
RECEIVER.elf:     file format elf32-avr

Sections:
Idx Name          Size      VMA       LMA       File off  Algn
  0 .text         00006ac6  00000000  00000000  00000094  2**1
                  CONTENTS, ALLOC, LOAD, READONLY, CODE
  1 .data         000001f0  00800060  00006ac6  00006b5a  2**0
                  CONTENTS, ALLOC, LOAD, DATA
  2 .bss          000000bd  00800250  00800250  00006d4a  2**0
                  ALLOC
  3 .comment      0000005c  00000000  00000000  00006d4a  2**0
                  CONTENTS, READONLY
  4 .note.gnu.avr.deviceinfo 0000003c  00000000  00000000  00006da8  2**2
                  CONTENTS, READONLY
  5 .debug_aranges 00000430  00000000  00000000  00006de4  2**0
                  CONTENTS, READONLY, DEBUGGING
  6 .debug_info   0000bf3a  00000000  00000000  00007214  2**0
                  CONTENTS, READONLY, DEBUGGING
  7 .debug_abbrev 00001313  00000000  00000000  0001314e  2**0
                  CONTENTS, READONLY, DEBUGGING
  8 .debug_line   0000419c  00000000  00000000  00014461  2**0
                  CONTENTS, READONLY, DEBUGGING
  9 .debug_frame  000011a8  00000000  00000000  00018600  2**2
                  CONTENTS, READONLY, DEBUGGING
 10 .debug_str    00001026  00000000  00000000  000197a8  2**0
                  CONTENTS, READONLY, DEBUGGING
 11 .debug_loc    00006180  00000000  00000000  0001a7ce  2**0
                  CONTENTS, READONLY, DEBUGGING
 12 .debug_ranges 000003c8  00000000  00000000  0002094e  2**0
                  CONTENTS, READONLY, DEBUGGING

Disassembly of section .text:

00000000 <__vectors>:
       0:	0c 94 b3 14 	jmp	0x2966	; 0x2966 <__ctors_end>
       4:	0c 94 26 25 	jmp	0x4a4c	; 0x4a4c <__vector_1>
       8:	0c 94 49 22 	jmp	0x4492	; 0x4492 <__vector_2>
       c:	0c 94 d0 14 	jmp	0x29a0	; 0x29a0 <__bad_interrupt>
      10:	0c 94 d0 14 	jmp	0x29a0	; 0x29a0 <__bad_interrupt>
      14:	0c 94 d0 14 	jmp	0x29a0	; 0x29a0 <__bad_interrupt>
      18:	0c 94 d0 14 	jmp	0x29a0	; 0x29a0 <__bad_interrupt>
      1c:	0c 94 56 21 	jmp	0x42ac	; 0x42ac <__vector_7>
      20:	0c 94 d0 14 	jmp	0x29a0	; 0x29a0 <__bad_interrupt>
      24:	0c 94 d0 14 	jmp	0x29a0	; 0x29a0 <__bad_interrupt>
      28:	0c 94 7b 21 	jmp	0x42f6	; 0x42f6 <__vector_10>
      2c:	0c 94 d0 14 	jmp	0x29a0	; 0x29a0 <__bad_interrupt>
      30:	0c 94 d0 14 	jmp	0x29a0	; 0x29a0 <__bad_interrupt>
      34:	0c 94 d0 14 	jmp	0x29a0	; 0x29a0 <__bad_interrupt>
      38:	0c 94 d0 14 	jmp	0x29a0	; 0x29a0 <__bad_interrupt>
      3c:	0c 94 d0 14 	jmp	0x29a0	; 0x29a0 <__bad_interrupt>
      40:	0c 94 d0 14 	jmp	0x29a0	; 0x29a0 <__bad_interrupt>
      44:	0c 94 d0 14 	jmp	0x29a0	; 0x29a0 <__bad_interrupt>
      48:	0c 94 d0 14 	jmp	0x29a0	; 0x29a0 <__bad_interrupt>
      4c:	0c 94 d0 14 	jmp	0x29a0	; 0x29a0 <__bad_interrupt>
      50:	0c 94 d0 14 	jmp	0x29a0	; 0x29a0 <__bad_interrupt>
      54:	b1 22       	and	r11, r17
      56:	c9 22       	and	r12, r25
      58:	e1 22       	and	r14, r17
      5a:	f9 22       	and	r15, r25
      5c:	11 23       	and	r17, r17
      5e:	29 23       	and	r18, r25
      60:	41 23       	and	r20, r17

00000062 <Font32x48_Num>:
	...
      92:	00 00 00 f0 00 00 00 00 00 f8 01 00 00 00 00 f8     ................
      a2:	01 00 00 00 00 f8 01 00 00 00 00 f8 01 00 00 00     ................
      b2:	00 f8 01 00 00 00 00 f8 01 00 00 00 00 f8 01 00     ................
      c2:	00 00 00 f8 01 00 00 00 00 f8 01 00 00 00 00 f8     ................
      d2:	01 00 00 00 00 f8 01 00 00 00 00 f8 01 00 00 00     ................
      e2:	00 f8 01 00 00 00 00 f8 01 00 00 00 00 f0 00 00     ................
	...
     166:	00 00 c0 03 00 00 00 00 e0 07 00 00 00 00 f0 0f     ................
     176:	00 00 00 00 f0 0f 00 00 00 00 f0 0f 00 00 00 00     ................
     186:	f0 0f 00 00 00 00 e0 07 00 00 00 00 c0 03 00 00     ................
	...
     21a:	00 00 80 07 00 00 00 00 f8 0f 00 00 00 80 ff 0f     ................
     22a:	00 00 00 fc ff 0f 00 00 c0 ff ff 07 00 00 fc ff     ................
     23a:	ff 00 00 c0 ff ff 0f 00 00 fc ff ff 00 00 80 ff     ................
     24a:	ff 0f 00 00 c0 ff 7f 00 00 00 c0 ff 07 00 00 00     ................
     25a:	c0 7f 00 00 00 00 80 07 00 00 00 00 00 00 00 00     ................
	...
     2b6:	fc ff 00 00 00 c0 ff ff 0f 00 00 f0 ff ff 3f 00     ..............?.
     2c6:	00 fc ff ff 7f 00 00 fe ff ff ff 00 00 ff ff ff     ................
     2d6:	ff 01 00 ff ff ff ff 03 80 ff 03 00 ff 07 80 3f     ...............?
     2e6:	00 00 f0 07 c0 0f 00 00 c0 07 c0 0f 00 00 c0 0f     ................
     2f6:	c0 07 00 00 80 0f c0 07 00 00 80 0f c0 07 00 00     ................
     306:	80 0f c0 07 00 00 80 0f c0 0f 00 00 c0 0f c0 0f     ................
     316:	00 00 c0 0f 80 3f 00 00 f0 07 80 ff 01 00 ff 07     .....?..........
     326:	00 ff ff ff ff 03 00 fe ff ff ff 01 00 fe ff ff     ................
     336:	ff 01 00 f8 ff ff ff 00 00 f0 ff ff 3f 00 00 c0     ............?...
     346:	ff ff 0f 00 00 00 fc ff 00 00 00 00 00 00 00 00     ................
	...
     376:	0c 00 00 00 00 00 1e 00 00 00 00 00 3f 00 00 00     ............?...
     386:	00 00 3f 00 00 00 00 80 3f 00 00 00 00 80 1f 00     ..?.....?.......
     396:	00 00 00 c0 1f 00 00 00 00 c0 0f 00 00 00 00 e0     ................
     3a6:	0f 00 00 00 00 f0 07 00 00 00 00 f8 03 00 00 00     ................
     3b6:	00 fc 01 00 00 00 00 fe ff ff ff 03 00 ff ff ff     ................
     3c6:	ff 07 c0 ff ff ff ff 0f c0 ff ff ff ff 0f c0 ff     ................
     3d6:	ff ff ff 0f c0 ff ff ff ff 07 00 ff ff ff ff 03     ................
	...
     432:	00 00 00 80 03 00 80 03 00 f0 07 00 e0 07 00 f8     ................
     442:	0f 00 f0 0f 00 fe 0f 00 fc 0f 00 fe 0f 00 fe 0f     ................
     452:	00 ff 07 00 ff 0f 80 ff 01 80 ff 0f 80 7f 00 80     ................
     462:	ff 0f 80 1f 00 c0 ff 0f c0 0f 00 e0 df 0f c0 0f     ................
     472:	00 f0 cf 0f c0 07 00 f8 c7 0f c0 07 00 fc c3 0f     ................
     482:	c0 07 00 fe c1 0f c0 07 00 fe c0 0f c0 07 00 7f     ................
     492:	c0 0f c0 0f 80 7f c0 0f c0 1f e0 3f c0 0f 80 3f     ...........?...?
     4a2:	f8 1f c0 0f 80 ff ff 0f c0 0f 80 ff ff 07 c0 0f     ................
     4b2:	00 ff ff 03 c0 0f 00 fe ff 01 c0 0f 00 fc ff 00     ................
     4c2:	c0 0f 00 f8 3f 00 c0 0f 00 c0 0f 00 80 07 00 00     ....?...........
     4d2:	00 00 00 03 00 00 00 00 00 00 00 00 00 00 00 00     ................
	...
     4f6:	00 00 1f 00 00 f0 01 80 7f 00 00 fc 03 80 ff 00     ................
     506:	00 fe 01 80 ff 01 00 ff 01 80 ff 03 00 ff 01 00     ................
     516:	fe 03 80 ff 00 00 f8 07 80 3f c0 01 f0 07 80 0f     .........?......
     526:	e0 03 c0 07 c0 0f e0 03 c0 0f c0 07 e0 03 80 0f     ................
     536:	c0 07 e0 03 80 0f c0 07 e0 03 80 0f c0 07 e0 03     ................
     546:	80 0f c0 07 f0 03 80 0f c0 0f f0 03 c0 0f c0 1f     ................
     556:	f8 07 c0 0f 80 ff ff 0f e0 07 80 ff ff 1f f8 07     ................
     566:	80 ff ff ff ff 03 00 ff ff ff ff 03 00 fe 3f ff     ..............?.
     576:	ff 01 00 fc 0f fe ff 00 00 f0 07 fc 7f 00 00 00     ................
     586:	00 f8 3f 00 00 00 00 e0 07 00 00 00 00 00 00 00     ..?.............
	...
     5a2:	00 00 00 c0 03 00 00 00 00 e0 07 00 00 00 00 f0     ................
     5b2:	0f 00 00 00 00 fc 0f 00 00 00 00 fe 0f 00 00 00     ................
     5c2:	00 ff 0f 00 00 00 c0 ff 0f 00 00 00 e0 df 0f 00     ................
     5d2:	00 00 f0 cf 0f 00 00 00 fc c3 0f 00 00 00 fe c1     ................
     5e2:	0f 00 00 00 ff c0 0f 00 00 c0 3f c0 0f 00 00 e0     ..........?.....
     5f2:	1f c0 0f 00 00 f0 0f c0 0f 00 00 fc 03 c0 0f 00     ................
     602:	00 fe 01 c0 0f 00 00 ff 00 c0 0f 00 80 ff ff ff     ................
     612:	ff 03 c0 ff ff ff ff 07 c0 ff ff ff ff 0f c0 ff     ................
     622:	ff ff ff 0f c0 ff ff ff ff 0f 80 ff ff ff ff 0f     ................
     632:	00 ff ff ff ff 07 00 00 00 c0 0f 00 00 00 00 c0     ................
     642:	0f 00 00 00 00 c0 0f 00 00 00 00 c0 0f 00 00 00     ................
     652:	00 80 07 00 00 00 00 00 02 00 00 00 00 00 00 00     ................
	...
     672:	04 00 00 00 00 03 3e 00 00 00 fc 07 ff 00 00 f0     ......>.........
     682:	ff 0f ff 01 00 ff ff 0f ff 03 80 ff ff 0f fe 03     ................
     692:	c0 ff ff 07 fc 07 c0 ff ff 03 f0 07 c0 ff ef 03     ................
     6a2:	e0 07 c0 3f f0 01 c0 0f c0 0f f0 00 c0 0f c0 0f     ...?............
     6b2:	f0 00 80 0f c0 0f f8 00 80 0f c0 0f f8 00 80 0f     ................
     6c2:	c0 0f f8 00 80 0f c0 0f f8 00 80 0f c0 0f f8 01     ................
     6d2:	c0 0f c0 0f f8 01 c0 07 c0 0f f8 03 f0 07 c0 0f     ................
     6e2:	f0 0f f8 07 c0 0f f0 ff ff 03 c0 0f e0 ff ff 03     ................
     6f2:	c0 0f e0 ff ff 01 c0 0f c0 ff ff 00 c0 0f 80 ff     ................
     702:	7f 00 80 07 00 fe 1f 00 00 00 00 f8 07 00 00 00     ................
	...
     72e:	00 00 f0 ff 00 00 00 00 ff ff 07 00 00 e0 ff ff     ................
     73e:	1f 00 00 f0 ff ff 7f 00 00 fc ff ff ff 00 00 fe     ................
     74e:	ff ff ff 01 00 fe ff ff ff 03 00 ff 9f ff ff 03     ................
     75e:	80 ff c0 0f fc 07 80 3f e0 03 f0 07 80 1f f0 01     .......?........
     76e:	e0 0f c0 0f f0 01 c0 0f c0 0f f0 00 80 0f c0 07     ................
     77e:	f8 00 80 0f c0 07 f8 00 80 0f c0 07 f8 00 80 0f     ................
     78e:	c0 07 f8 00 80 0f c0 0f f8 01 c0 0f c0 0f f8 01     ................
     79e:	c0 0f 80 1f f8 03 e0 07 80 7f f0 0f f8 07 80 ff     ................
     7ae:	f0 ff ff 03 00 ff e0 ff ff 03 00 fe e0 ff ff 01     ................
     7be:	00 fc c0 ff ff 00 00 f8 00 ff 7f 00 00 00 00 fe     ................
     7ce:	1f 00 00 00 00 f0 07 00 00 00 00 00 00 00 00 00     ................
	...
     7fa:	80 07 00 00 00 00 c0 07 00 00 00 00 c0 0f 00 00     ................
     80a:	00 00 c0 0f 00 00 00 00 c0 0f 00 00 00 00 c0 0f     ................
     81a:	00 00 00 00 c0 0f 00 00 fc 07 c0 0f 00 80 ff 0f     ................
     82a:	c0 0f 00 f0 ff 0f c0 0f 00 fc ff 0f c0 0f 00 ff     ................
     83a:	ff 0f c0 0f c0 ff ff 07 c0 0f f0 ff ff 03 c0 0f     ................
     84a:	fc ff 3f 00 c0 0f fe ff 00 00 c0 8f ff 0f 00 00     ..?.............
     85a:	c0 cf ff 01 00 00 c0 ef 7f 00 00 00 c0 ff 1f 00     ................
     86a:	00 00 c0 ff 07 00 00 00 c0 ff 03 00 00 00 c0 ff     ................
     87a:	00 00 00 00 c0 7f 00 00 00 00 c0 3f 00 00 00 00     ...........?....
     88a:	80 0f 00 00 00 00 80 07 00 00 00 00 00 00 00 00     ................
	...
     8ae:	00 00 00 e0 0f 00 00 c0 03 f8 3f 00 00 f8 0f fc     ..........?.....
     8be:	ff 00 00 fc 1f fe ff 01 00 fe 3f ff ff 03 00 ff     ..........?.....
     8ce:	7f ff ff 03 00 ff ff ff ff 07 80 ff ff 3f f8 07     .............?..
     8de:	80 3f f8 0f e0 07 c0 0f f0 07 c0 0f c0 0f f0 07     .?..............
     8ee:	c0 0f c0 07 e0 03 80 0f c0 07 e0 03 80 0f c0 07     ................
     8fe:	e0 03 80 0f c0 07 e0 03 80 0f c0 07 e0 03 80 0f     ................
     90e:	c0 0f f0 07 c0 0f c0 1f f0 07 c0 0f 80 3f fc 0f     .............?..
     91e:	e0 07 80 ff ff 3f f8 07 00 ff ff ff ff 07 00 ff     .....?..........
     92e:	7f ff ff 03 00 fe 3f ff ff 03 00 fc 1f fe ff 01     ......?.........
     93e:	00 f8 0f fc ff 00 00 c0 01 f8 3f 00 00 00 00 e0     ..........?.....
     94e:	0f 00 00 00 00 00 00 00 00 00 00 00 00 00 00 00     ................
	...
     96e:	00 80 7f 00 00 00 00 e0 ff 01 10 00 00 f8 ff 07     ................
     97e:	7c 00 00 fc ff 0f fc 01 00 fe ff 1f fc 03 00 ff     |...............
     98e:	ff 1f fc 03 00 ff ff 3f fc 07 80 7f c0 3f f0 07     .......?.....?..
     99e:	80 1f 00 7f e0 0f c0 0f 00 7e c0 0f c0 0f 00 7e     .........~.....~
     9ae:	80 0f c0 07 00 7c 80 0f c0 07 00 7c 80 0f c0 07     .....|.....|....
     9be:	00 7c 80 0f c0 07 00 7c 80 0f c0 0f 00 3e c0 0f     .|.....|.....>..
     9ce:	c0 1f 00 3e e0 07 80 3f 00 1f f0 07 80 ff c0 0f     ...>...?........
     9de:	fc 07 80 ff ff f7 ff 03 00 ff ff ff ff 03 00 fe     ................
     9ee:	ff ff ff 01 00 fc ff ff ff 00 00 f8 ff ff 3f 00     ..............?.
     9fe:	00 f0 ff ff 1f 00 00 80 ff ff 03 00 00 00 fc 3f     ...............?
	...

00000a22 <Consolas18x32>:
	...
     a86:	f8 ff cf 01 f8 ff cf 01 f8 ff cf 01 00 00 00 00     ................
	...
     ac2:	f8 07 00 00 f8 07 00 00 f8 07 00 00 f8 07 00 00     ................
	...
     ade:	f8 07 00 00 f8 07 00 00 f8 07 00 00 f8 07 00 00     ................
	...
     afe:	00 00 0c 00 00 0c 0c 00 00 0c 0c 00 00 0c cc 01     ................
     b0e:	00 cc ff 01 80 ff 7f 00 e0 7f 0c 00 e0 0c 0c 00     ................
     b1e:	00 0c 0c 00 00 0c cc 01 00 cc ff 01 80 ff 7f 00     ................
     b2e:	e0 7f 0c 00 e0 0c 0c 00 00 0c 0c 00 00 0c 0c 00     ................
     b3e:	00 0c 00 00 00 00 00 00 00 00 00 00 00 1e 80 01     ................
     b4e:	80 3f 80 01 c0 7f 00 03 c0 71 00 03 e0 e0 00 3f     .?.......q.....?
     b5e:	60 e0 f8 3f 60 f0 ff 07 f0 ff 3f 03 fe ff 01 03     `..?`.....?.....
     b6e:	7e 80 83 03 60 80 c7 01 60 00 ff 01 c0 00 fe 00     ~...`...`.......
     b7e:	00 00 7c 00 00 00 00 00 00 00 00 00 00 00 00 00     ..|.............
     b8e:	c0 03 00 00 f0 0f 00 08 f8 1f 00 0e 3c 3c 80 07     ............<<..
     b9e:	1c 38 e0 01 3c 3c 78 00 f8 1f 1e 00 f0 8f 07 00     .8..<<x.........
     bae:	c0 e3 f1 00 00 78 fc 03 00 1e fe 07 80 07 0f 0f     .....x..........
     bbe:	e0 01 07 0e 78 00 0f 0f 1c 00 fe 07 04 00 fc 01     ....x...........
     bce:	00 00 f0 00 00 00 00 00 00 00 7c 00 00 00 ff 00     ..........|.....
     bde:	c0 87 ff 01 e0 df c3 01 f0 ff 81 03 38 fc 00 03     ............8...
     bee:	18 f0 01 03 18 f0 03 03 18 b8 07 03 38 3c 0f 03     ............8<..
     bfe:	f0 1f 9e 01 f0 0f fc 01 c0 03 f0 00 00 00 ff 01     ................
     c0e:	00 80 ff 03 00 00 87 03 00 00 00 03 00 00 00 00     ................
	...
     c36:	f8 07 00 00 f8 07 00 00 f8 07 00 00 f8 07 00 00     ................
	...
     c76:	00 e0 1f 00 00 fc ff 01 00 ff ff 07 80 1f e0 1f     ................
     c86:	e0 03 00 3f f0 00 00 7c 78 00 00 f8 1c 00 00 e0     ...?...|x.......
     c96:	0c 00 00 c0 04 00 00 80 00 00 00 00 00 00 00 00     ................
	...
     cb6:	04 00 00 80 0c 00 00 c0 1c 00 00 e0 78 00 00 f0     ............x...
     cc6:	f0 00 00 7c e0 03 00 3f c0 1f e0 0f 00 ff ff 07     ...|...?........
     cd6:	00 fc ff 01 00 e0 1f 00 00 00 00 00 00 00 00 00     ................
	...
     cfe:	40 10 00 00 e0 38 00 00 c0 18 00 00 80 0d 00 00     @....8..........
     d0e:	80 0f 00 00 f8 ff 01 00 f8 ff 01 00 80 0f 00 00     ................
     d1e:	80 0d 00 00 c0 18 00 00 e0 38 00 00 40 10 00 00     .........8..@...
	...
     d42:	00 00 03 00 00 00 03 00 00 00 03 00 00 00 03 00     ................
     d52:	00 00 03 00 00 00 03 00 00 fe ff 01 00 fe ff 01     ................
     d62:	00 00 03 00 00 00 03 00 00 00 03 00 00 00 03 00     ................
     d72:	00 00 03 00 00 00 03 00 00 00 00 00 00 00 00 00     ................
	...
     d92:	00 00 00 c0 00 00 00 c0 00 00 00 c0 00 00 c0 60     ...............`
     da2:	00 00 e0 7b 00 00 e0 3f 00 00 e0 1f 00 00 80 0f     ...{...?........
	...
     dda:	00 00 06 00 00 00 06 00 00 00 06 00 00 00 06 00     ................
     dea:	00 00 06 00 00 00 06 00 00 00 06 00 00 00 06 00     ................
     dfa:	00 00 06 00 00 00 06 00 00 00 00 00 00 00 00 00     ................
	...
     e2a:	00 00 c0 01 00 00 e0 03 00 00 e0 03 00 00 e0 03     ................
     e3a:	00 00 c0 01 00 00 00 00 00 00 00 00 00 00 00 00     ................
	...
     e62:	00 00 00 30 00 00 00 3c 00 00 00 0f 00 00 c0 03     ...0...<........
     e72:	00 00 f0 00 00 00 3c 00 00 00 0f 00 00 c0 03 00     ......<.........
     e82:	00 f0 00 00 00 3c 00 00 00 0f 00 00 c0 03 00 00     .....<..........
     e92:	f0 00 00 00 3c 00 00 00 0c 00 00 00 00 00 00 00     ....<...........
     ea2:	00 00 00 00 00 f8 0f 00 00 fe 7f 00 80 ff ff 00     ................
     eb2:	c0 07 fc 01 c0 01 c6 01 e0 00 83 03 60 80 03 03     ............`...
     ec2:	60 c0 01 03 60 e0 00 03 e0 60 80 03 c0 31 c0 01     `...`....`...1..
     ed2:	c0 1f f0 01 80 ff ff 00 00 ff 3f 00 00 f8 0f 00     ..........?.....
	...
     ef2:	00 02 00 00 00 07 00 03 80 03 00 03 c0 01 00 03     ................
     f02:	e0 00 00 03 60 00 00 03 e0 ff ff 03 e0 ff ff 03     ....`...........
     f12:	e0 ff ff 03 00 00 00 03 00 00 00 03 00 00 00 03     ................
     f22:	00 00 00 03 00 00 00 03 00 00 00 00 00 00 00 00     ................
	...
     f3a:	80 00 00 03 c0 01 80 03 c0 00 c0 03 e0 00 e0 03     ................
     f4a:	60 00 f8 03 60 00 7c 03 60 00 3e 03 60 00 1f 03     `...`.|.`.>.`...
     f5a:	e0 80 07 03 c0 c1 03 03 c0 ff 01 03 80 ff 00 03     ................
     f6a:	00 3e 00 03 00 00 00 03 00 00 00 00 00 00 00 00     .>..............
	...
     f86:	00 00 00 03 c0 00 00 03 60 00 00 03 60 c0 00 03     ........`...`...
     f96:	60 c0 00 03 60 c0 00 03 60 c0 00 03 60 e0 80 03     `...`...`...`...
     fa6:	e0 f0 81 01 c0 bf c3 01 c0 bf ff 00 00 0f 7f 00     ................
     fb6:	00 00 3e 00 00 00 00 00 00 00 00 00 00 00 00 00     ..>.............
     fc6:	00 00 1c 00 00 00 1e 00 00 80 1f 00 00 e0 1b 00     ................
     fd6:	00 f0 18 00 00 7c 18 00 00 1e 18 00 80 0f 18 00     .....|..........
     fe6:	c0 03 18 00 e0 00 18 00 e0 ff ff 03 e0 ff ff 03     ................
     ff6:	e0 ff ff 03 00 00 18 00 00 00 18 00 00 00 18 00     ................
    1006:	00 00 18 00 00 00 00 00 00 00 00 00 00 00 00 00     ................
    1016:	e0 7f 00 03 e0 7f 00 03 e0 7f 00 03 60 60 00 03     ............``..
    1026:	60 60 00 03 60 60 00 03 60 60 00 03 60 60 80 03     ``..``..``..``..
    1036:	60 e0 80 01 60 c0 e1 01 60 c0 ff 00 60 80 7f 00     `...`...`...`...
    1046:	00 00 1f 00 00 00 00 00 00 00 00 00 00 00 00 00     ................
    1056:	00 00 00 00 00 f0 1f 00 00 fc 7f 00 00 ff ff 00     ................
    1066:	80 c7 e0 01 80 63 80 03 c0 61 00 03 c0 60 00 03     .....c...a...`..
    1076:	60 60 00 03 60 60 00 03 60 60 00 03 60 e0 80 01     ``..``..``..`...
    1086:	60 c0 c1 01 60 c0 ff 00 00 80 7f 00 00 00 3f 00     `...`.........?.
	...
    10a2:	60 00 00 00 60 00 00 00 60 00 00 02 60 00 80 03     `...`...`...`...
    10b2:	60 00 e0 03 60 00 f8 03 60 00 7e 00 60 80 1f 00     `...`...`.~.`...
    10c2:	60 e0 07 00 60 fc 01 00 60 7f 00 00 e0 0f 00 00     `...`...`.......
    10d2:	e0 03 00 00 e0 00 00 00 00 00 00 00 00 00 00 00     ................
	...
    10ea:	00 0f 7c 00 80 1f fe 00 c0 3f ff 01 c0 f0 87 01     ..|......?......
    10fa:	60 e0 83 03 60 e0 01 03 60 c0 00 03 60 c0 00 03     `...`...`...`...
    110a:	60 e0 01 03 60 e0 83 03 e0 f0 87 01 c0 3f ff 01     `...`........?..
    111a:	c0 1f fe 00 00 0f 7c 00 00 00 00 00 00 00 00 00     ......|.........
	...
    1132:	00 7e 00 00 00 ff 00 03 80 ff 01 03 c0 c1 01 03     .~..............
    1142:	c0 80 03 03 60 00 03 03 60 00 03 03 60 00 83 01     ....`...`...`...
    1152:	60 00 83 01 60 00 c3 01 e0 00 e3 00 c0 83 f9 00     `...`...........
    1162:	80 ff 7f 00 00 ff 1f 00 00 fc 07 00 00 00 00 00     ................
	...
    118e:	00 38 c0 01 00 7c e0 03 00 7c e0 03 00 7c e0 03     .8...|...|...|..
    119e:	00 38 c0 01 00 00 00 00 00 00 00 00 00 00 00 00     .8..............
	...
    11ca:	00 00 00 c0 00 00 00 c0 00 00 00 c0 00 38 c0 60     .............8.`
    11da:	00 7c e0 7b 00 7c e0 3f 00 7c e0 1f 00 38 80 0f     .|.{.|.?.|...8..
	...
    120e:	00 00 03 00 00 80 07 00 00 c0 0f 00 00 e0 1f 00     ................
    121e:	00 e0 1c 00 00 70 38 00 00 38 70 00 00 1c e0 00     .....p8..8p.....
    122e:	00 1e e0 01 00 0e c0 01 00 07 80 03 00 02 00 01     ................
	...
    1252:	00 c0 18 00 00 c0 18 00 00 c0 18 00 00 c0 18 00     ................
    1262:	00 c0 18 00 00 c0 18 00 00 c0 18 00 00 c0 18 00     ................
    1272:	00 c0 18 00 00 c0 18 00 00 c0 18 00 00 c0 18 00     ................
    1282:	00 c0 18 00 00 c0 18 00 00 00 00 00 00 00 00 00     ................
	...
    129e:	00 02 00 01 00 07 80 03 00 0e c0 01 00 1e e0 01     ................
    12ae:	00 1c e0 00 00 38 70 00 00 70 38 00 00 e0 1c 00     .....8p..p8.....
    12be:	00 e0 1f 00 00 c0 0f 00 00 80 07 00 00 00 03 00     ................
	...
    12ee:	18 00 00 00 18 00 80 01 18 e0 cf 03 18 e0 cf 03     ................
    12fe:	30 e0 8f 01 70 60 00 00 f0 70 00 00 e0 3f 00 00     0...p`...p...?..
    130e:	c0 3f 00 00 00 0f 00 00 00 00 00 00 00 00 00 00     .?..............
    131e:	00 00 00 00 00 f8 ff 01 00 fe ff 07 80 1f 00 1f     ................
    132e:	e0 01 00 3c 70 c0 1f 78 38 f0 7f 70 0c fc 7f 60     ...<p..x8..p...`
    133e:	0e 3c 60 60 06 0e 60 60 06 06 3c 60 06 fe 3f 60     .<``..``..<`..?`
    134e:	06 fe 7f 60 0c 3e 60 30 1c 00 60 38 f8 00 38 18     ...`.>`0..`8..8.
    135e:	f0 ff 1f 00 80 ff 03 00 00 00 00 00 00 00 80 03     ................
    136e:	00 00 f0 03 00 00 fe 03 00 c0 7f 00 00 f8 1f 00     ................
    137e:	00 ff 18 00 e0 1f 18 00 e0 03 18 00 e0 00 18 00     ................
    138e:	e0 03 18 00 e0 1f 18 00 00 ff 19 00 00 f8 1f 00     ................
    139e:	00 c0 7f 00 00 00 fe 03 00 00 f0 03 00 00 80 03     ................
	...
    13be:	e0 ff ff 03 e0 ff ff 03 e0 ff ff 03 60 c0 00 03     ............`...
    13ce:	60 c0 00 03 60 c0 00 03 60 c0 00 03 60 c0 00 03     `...`...`...`...
    13de:	e0 e0 00 03 e0 f0 81 01 c0 bf c3 01 c0 bf ff 00     ................
    13ee:	00 0f ff 00 00 00 3e 00 00 00 00 00 00 00 00 00     ......>.........
    13fe:	00 f0 0f 00 00 fe 3f 00 00 ff 7f 00 80 0f f8 00     ......?.........
    140e:	c0 03 c0 01 c0 01 80 01 e0 00 80 03 60 00 00 03     ............`...
    141e:	60 00 00 03 60 00 00 03 60 00 00 03 60 00 00 03     `...`...`...`...
    142e:	60 00 00 03 60 00 80 01 c0 00 80 01 00 00 00 00     `...`...........
	...
    144a:	e0 ff ff 03 e0 ff ff 03 e0 ff ff 03 60 00 00 03     ............`...
    145a:	60 00 00 03 60 00 00 03 60 00 00 03 60 00 00 03     `...`...`...`...
    146a:	e0 00 80 01 c0 00 80 01 c0 01 c0 01 80 07 f8 00     ................
    147a:	80 ff 7f 00 00 fe 3f 00 00 f8 07 00 00 00 00 00     ......?.........
	...
    1496:	e0 ff ff 03 e0 ff ff 03 e0 ff ff 03 60 c0 00 03     ............`...
    14a6:	60 c0 00 03 60 c0 00 03 60 c0 00 03 60 c0 00 03     `...`...`...`...
    14b6:	60 c0 00 03 60 c0 00 03 60 c0 00 03 60 c0 00 03     `...`...`...`...
	...
    14de:	e0 ff ff 03 e0 ff ff 03 e0 ff ff 03 60 80 01 00     ............`...
    14ee:	60 80 01 00 60 80 01 00 60 80 01 00 60 80 01 00     `...`...`...`...
    14fe:	60 80 01 00 60 80 01 00 60 80 01 00 60 80 01 00     `...`...`...`...
	...
    151e:	00 f0 0f 00 00 fc 3f 00 00 ff 7f 00 80 0f f0 00     ......?.........
    152e:	c0 03 c0 01 c0 01 80 01 e0 00 80 03 60 00 00 03     ............`...
    153e:	60 80 01 03 60 80 01 03 60 80 01 03 60 80 01 03     `...`...`...`...
    154e:	60 80 ff 03 60 80 ff 01 c0 80 ff 01 00 00 00 00     `...`...........
	...
    156a:	e0 ff ff 03 e0 ff ff 03 e0 ff ff 03 00 c0 00 00     ................
    157a:	00 c0 00 00 00 c0 00 00 00 c0 00 00 00 c0 00 00     ................
    158a:	00 c0 00 00 00 c0 00 00 00 c0 00 00 e0 ff ff 03     ................
    159a:	e0 ff ff 03 e0 ff ff 03 00 00 00 00 00 00 00 00     ................
	...
    15b6:	60 00 00 03 60 00 00 03 60 00 00 03 60 00 00 03     `...`...`...`...
    15c6:	60 00 00 03 e0 ff ff 03 e0 ff ff 03 e0 ff ff 03     `...............
    15d6:	60 00 00 03 60 00 00 03 60 00 00 03 60 00 00 03     `...`...`...`...
    15e6:	60 00 00 03 00 00 00 00 00 00 00 00 00 00 00 00     `...............
	...
    15fe:	60 00 c0 00 60 00 80 01 60 00 00 03 60 00 00 03     `...`...`...`...
    160e:	60 00 00 03 60 00 00 03 60 00 80 03 60 00 c0 01     `...`...`...`...
    161e:	e0 ff ff 01 e0 ff ff 00 e0 ff 3f 00 00 00 00 00     ..........?.....
	...
    1646:	e0 ff ff 03 e0 ff ff 03 e0 ff ff 03 00 80 00 00     ................
    1656:	00 e0 03 00 00 f0 07 00 00 3c 1f 00 00 1e 3c 00     .........<....<.
    1666:	80 0f f8 00 c0 03 f0 01 e0 01 c0 03 e0 00 80 03     ................
    1676:	20 00 00 03 00 00 00 00 00 00 00 00 00 00 00 00      ...............
	...
    1692:	e0 ff ff 03 e0 ff ff 03 e0 ff ff 03 00 00 00 03     ................
    16a2:	00 00 00 03 00 00 00 03 00 00 00 03 00 00 00 03     ................
    16b2:	00 00 00 03 00 00 00 03 00 00 00 03 00 00 00 03     ................
	...
    16ce:	e0 ff ff 03 e0 ff ff 03 e0 ff ff 03 e0 01 00 00     ................
    16de:	e0 07 00 00 80 0f 00 00 00 3e 00 00 00 78 00 00     .........>...x..
    16ee:	00 f0 00 00 00 78 00 00 00 3e 00 00 80 0f 00 00     .....x...>......
    16fe:	e0 07 00 00 e0 01 00 00 e0 ff ff 03 e0 ff ff 03     ................
    170e:	e0 ff ff 03 00 00 00 00 00 00 00 00 e0 ff ff 03     ................
    171e:	e0 ff ff 03 e0 ff ff 03 e0 03 00 00 80 0f 00 00     ................
    172e:	00 7e 00 00 00 f8 01 00 00 c0 0f 00 00 00 3f 00     .~............?.
    173e:	00 00 f8 00 00 00 e0 03 e0 ff ff 03 e0 ff ff 03     ................
    174e:	e0 ff ff 03 00 00 00 00 00 00 00 00 00 00 00 00     ................
    175e:	00 f8 0f 00 00 fe 7f 00 80 ff ff 00 80 07 f0 01     ................
    176e:	c0 01 c0 01 e0 00 80 03 60 00 00 03 60 00 00 03     ........`...`...
    177e:	60 00 00 03 60 00 00 03 e0 00 80 03 c0 01 c0 01     `...`...........
    178e:	c0 07 f0 00 80 ff ff 00 00 ff 3f 00 00 f8 0f 00     ..........?.....
	...
    17ae:	e0 ff ff 03 e0 ff ff 03 e0 ff ff 03 60 00 03 00     ............`...
    17be:	60 00 03 00 60 00 03 00 60 00 03 00 60 00 03 00     `...`...`...`...
    17ce:	60 00 03 00 e0 80 01 00 c0 c1 01 00 c0 ff 00 00     `...............
    17de:	80 7f 00 00 00 3e 00 00 00 00 00 00 00 00 00 00     .....>..........
    17ee:	00 f0 0f 00 00 fe 7f 00 80 ff ff 00 80 07 f0 01     ................
    17fe:	c0 01 c0 01 e0 00 80 03 60 00 00 03 60 00 00 0f     ........`...`...
    180e:	60 00 00 3f 60 00 00 7f e0 00 80 f3 c0 01 c0 e1     `..?`...........
    181e:	c0 07 f0 c1 80 ff ff c0 00 ff 3f c0 00 f8 0f e0     ..........?.....
    182e:	00 00 00 40 00 00 00 00 00 00 00 00 00 00 00 00     ...@............
    183e:	e0 ff ff 03 e0 ff ff 03 e0 ff ff 03 60 c0 00 00     ............`...
    184e:	60 c0 00 00 60 c0 00 00 60 c0 01 00 60 c0 03 00     `...`...`...`...
    185e:	e0 e0 07 00 c0 70 1f 00 c0 7f 7c 00 80 3f f0 01     .....p....|..?..
    186e:	00 0f e0 03 00 00 80 03 00 00 00 02 00 00 00 00     ................
    187e:	00 00 00 00 00 1f 80 01 80 3f 80 01 c0 7f 00 03     .........?......
    188e:	c0 71 00 03 e0 e0 00 03 60 e0 00 03 60 c0 01 03     .q......`...`...
    189e:	60 c0 01 03 60 c0 01 03 60 80 83 03 60 80 c7 01     `...`...`...`...
    18ae:	c0 00 ff 01 c0 00 fe 00 00 00 7c 00 00 00 00 00     ..........|.....
	...
    18ca:	60 00 00 00 60 00 00 00 60 00 00 00 60 00 00 00     `...`...`...`...
    18da:	60 00 00 00 60 00 00 00 e0 ff ff 03 e0 ff ff 03     `...`...........
    18ea:	e0 ff ff 03 60 00 00 00 60 00 00 00 60 00 00 00     ....`...`...`...
    18fa:	60 00 00 00 60 00 00 00 60 00 00 00 00 00 00 00     `...`...`.......
	...
    1912:	e0 ff 3f 00 e0 ff ff 00 e0 ff ff 01 00 00 c0 01     ..?.............
    1922:	00 00 80 03 00 00 00 03 00 00 00 03 00 00 00 03     ................
    1932:	00 00 00 03 00 00 00 03 00 00 80 03 00 00 c0 01     ................
    1942:	e0 ff ff 00 e0 ff 7f 00 e0 ff 3f 00 00 00 00 00     ..........?.....
    1952:	00 00 00 00 e0 00 00 00 e0 07 00 00 e0 3f 00 00     .............?..
    1962:	80 ff 01 00 00 f8 0f 00 00 c0 7f 00 00 00 fe 01     ................
    1972:	00 00 f0 03 00 00 80 03 00 00 f0 03 00 00 fe 01     ................
    1982:	00 c0 3f 00 00 f8 0f 00 00 ff 01 00 e0 3f 00 00     ..?..........?..
    1992:	e0 07 00 00 e0 00 00 00 00 00 00 00 e0 ff 03 00     ................
    19a2:	e0 ff 7f 00 00 80 ff 03 00 00 e0 03 00 00 f8 03     ................
    19b2:	00 00 fe 00 00 80 1f 00 00 e0 07 00 00 e0 07 00     ................
    19c2:	00 80 1f 00 00 00 fe 00 00 00 f0 03 00 00 c0 03     ................
    19d2:	00 80 ff 03 e0 ff 3f 00 e0 ff 03 00 00 00 00 00     ......?.........
    19e2:	00 00 00 02 20 00 00 03 60 00 c0 03 e0 01 e0 03     .... ...`.......
    19f2:	e0 03 f8 01 80 0f 7c 00 00 3f 1f 00 00 fc 0f 00     ......|..?......
    1a02:	00 f8 03 00 00 f8 03 00 00 fc 0f 00 00 3f 1f 00     .............?..
    1a12:	80 0f 7e 00 e0 03 f8 01 e0 01 e0 03 60 00 c0 03     ..~.........`...
    1a22:	20 00 00 03 00 00 00 02 20 00 00 00 60 00 00 00      ....... ...`...
    1a32:	e0 01 00 00 c0 07 00 00 80 0f 00 00 00 3e 00 00     .............>..
    1a42:	00 fc 00 00 00 f0 01 00 00 c0 ff 03 00 80 ff 03     ................
    1a52:	00 c0 ff 03 00 f0 01 00 00 f8 00 00 00 3e 00 00     .............>..
    1a62:	80 0f 00 00 c0 07 00 00 e0 01 00 00 60 00 00 00     ............`...
	...
    1a7a:	60 00 00 03 60 00 c0 03 60 00 e0 03 60 00 f8 03     `...`...`...`...
    1a8a:	60 00 3e 03 60 00 1f 03 60 c0 07 03 60 f0 01 03     `.>.`...`...`...
    1a9a:	60 fc 00 03 60 3e 00 03 e0 0f 00 03 e0 03 00 03     `...`>..........
    1aaa:	e0 01 00 03 60 00 00 03 00 00 00 00 00 00 00 00     ....`...........
	...
    1ace:	fe ff ff 7f fe ff ff 7f fe ff ff 7f 06 00 00 60     ...............`
    1ade:	06 00 00 60 06 00 00 60 06 00 00 60 06 00 00 60     ...`...`...`...`
	...
    1b0a:	0c 00 00 00 3c 00 00 00 f0 00 00 00 c0 03 00 00     ....<...........
    1b1a:	00 0f 00 00 00 3c 00 00 00 f0 00 00 00 c0 03 00     .....<..........
    1b2a:	00 00 0f 00 00 00 3c 00 00 00 f0 00 00 00 c0 03     ......<.........
    1b3a:	00 00 00 0f 00 00 00 3c 00 00 00 30 00 00 00 00     .......<...0....
	...
    1b5e:	06 00 00 60 06 00 00 60 06 00 00 60 06 00 00 60     ...`...`...`...`
    1b6e:	06 00 00 60 fe ff ff 7f fe ff ff 7f fe ff ff 7f     ...`............
	...
    1b9a:	00 60 00 00 00 70 00 00 00 7c 00 00 00 1f 00 00     .`...p...|......
    1baa:	80 07 00 00 e0 01 00 00 60 00 00 00 e0 01 00 00     ........`.......
    1bba:	c0 07 00 00 00 1f 00 00 00 7c 00 00 00 70 00 00     .........|...p..
    1bca:	00 60 00 00 00 00 00 00 00 00 00 00 00 00 00 00     .`..............
    1bda:	00 00 00 e0 00 00 00 e0 00 00 00 e0 00 00 00 e0     ................
    1bea:	00 00 00 e0 00 00 00 e0 00 00 00 e0 00 00 00 e0     ................
    1bfa:	00 00 00 e0 00 00 00 e0 00 00 00 e0 00 00 00 e0     ................
    1c0a:	00 00 00 e0 00 00 00 e0 00 00 00 e0 00 00 00 e0     ................
    1c1a:	00 00 00 e0 00 00 00 e0 00 00 00 00 00 00 00 00     ................
	...
    1c32:	08 00 00 00 18 00 00 00 38 00 00 00 78 00 00 00     ........8...x...
    1c42:	f0 00 00 00 e0 00 00 00 c0 00 00 00 80 00 00 00     ................
	...
    1c72:	00 00 f0 00 00 18 f8 01 00 18 fc 01 00 0c 8c 03     ................
    1c82:	00 0c 06 03 00 0c 06 03 00 0c 06 03 00 0c 06 03     ................
    1c92:	00 0c 86 01 00 1c 86 01 00 3c c6 00 00 f8 ff 03     .........<......
    1ca2:	00 f0 ff 03 00 e0 ff 03 00 00 00 00 00 00 00 00     ................
	...
    1cbe:	f8 ff ff 01 f8 ff ff 01 f8 ff ff 03 00 70 80 03     .............p..
    1cce:	00 38 00 03 00 18 00 03 00 0c 00 03 00 0c 00 03     .8..............
    1cde:	00 0c 80 03 00 1c 80 01 00 3c e0 01 00 f8 ff 00     .........<......
    1cee:	00 f0 7f 00 00 c0 1f 00 00 00 00 00 00 00 00 00     ................
	...
    1d06:	00 80 1f 00 00 e0 7f 00 00 f0 ff 00 00 78 e0 01     .............x..
    1d16:	00 38 80 01 00 1c 80 03 00 0c 00 03 00 0c 00 03     .8..............
    1d26:	00 0c 00 03 00 0c 00 03 00 0c 00 03 00 0c 00 03     ................
    1d36:	00 18 80 01 00 00 00 00 00 00 00 00 00 00 00 00     ................
    1d46:	00 00 00 00 00 80 3f 00 00 e0 ff 00 00 f0 ff 01     ......?.........
    1d56:	00 78 c0 03 00 18 80 03 00 1c 00 03 00 0c 00 03     .x..............
    1d66:	00 0c 00 03 00 0c 80 01 00 0c c0 01 00 0c e0 00     ................
    1d76:	f8 ff ff 03 f8 ff ff 03 f8 ff ff 03 00 00 00 00     ................
	...
    1d92:	00 80 3f 00 00 e0 ff 00 00 f0 ff 01 00 78 c6 01     ..?..........x..
    1da2:	00 1c 86 03 00 0c 06 03 00 0c 06 03 00 0c 06 03     ................
    1db2:	00 0c 06 03 00 1c 06 03 00 38 06 03 00 f8 07 01     .........8......
    1dc2:	00 f0 87 01 00 c0 07 00 00 00 00 00 00 00 00 00     ................
    1dd2:	00 00 00 00 00 30 00 00 00 30 00 00 00 30 00 00     .....0...0...0..
    1de2:	00 30 00 00 00 30 00 00 c0 ff ff 03 e0 ff ff 03     .0...0..........
    1df2:	f0 ff ff 03 70 30 00 00 38 30 00 00 18 30 00 00     ....p0..80...0..
    1e02:	18 30 00 00 18 00 00 00 00 00 00 00 00 00 00 00     .0..............
	...
    1e22:	00 00 00 1e 00 f8 3c 3f 00 fc ff 7f 00 fe ff 71     ......<?.......q
    1e32:	00 8e e3 60 00 07 c7 60 00 03 c6 60 00 03 c6 60     ...`...`...`...`
    1e42:	00 03 c6 60 00 07 c7 60 00 8f c3 70 00 ff c3 71     ...`...`...p...q
    1e52:	00 ff c1 3f 00 fb 80 1f 00 03 00 0f 00 03 00 00     ...?............
	...
    1e6e:	f8 ff ff 03 f8 ff ff 03 f8 ff ff 03 00 70 00 00     .............p..
    1e7e:	00 38 00 00 00 18 00 00 00 0c 00 00 00 0c 00 00     .8..............
    1e8e:	00 0c 00 00 00 1c 00 00 00 f8 ff 03 00 f8 ff 03     ................
    1e9e:	00 e0 ff 03 00 00 00 00 00 00 00 00 00 00 00 00     ................
	...
    1eb6:	00 00 00 03 00 0c 00 03 00 0c 00 03 00 0c 00 03     ................
    1ec6:	60 0c 00 03 f0 fc ff 03 f0 fc ff 03 f0 fc ff 03     `...............
    1ed6:	60 00 00 03 00 00 00 03 00 00 00 03 00 00 00 03     `...............
    1ee6:	00 00 00 03 00 00 00 00 00 00 00 00 00 00 00 00     ................
    1ef6:	00 00 00 00 00 00 00 30 00 03 00 60 00 03 00 60     .......0...`...`
    1f06:	00 03 00 60 00 03 00 60 00 03 00 60 00 03 00 60     ...`...`...`...`
    1f16:	00 03 00 70 18 03 00 78 3c ff ff 3f 3c ff ff 1f     ...p...x<..?<...
    1f26:	3c ff ff 07 18 00 00 00 00 00 00 00 00 00 00 00     <...............
	...
    1f46:	f8 ff ff 03 f8 ff ff 03 f8 ff ff 03 00 00 02 00     ................
    1f56:	00 00 07 00 00 80 0f 00 00 c0 3d 00 00 e0 78 00     ..........=...x.
    1f66:	00 70 f0 00 00 38 e0 01 00 1c c0 03 00 0c 80 03     .p...8..........
    1f76:	00 04 00 03 00 00 00 02 00 00 00 00 00 00 00 00     ................
	...
    1f8e:	00 00 00 03 18 00 00 03 18 00 00 03 18 00 00 03     ................
    1f9e:	18 00 00 03 f8 ff ff 03 f8 ff ff 03 f8 ff ff 03     ................
    1fae:	00 00 00 03 00 00 00 03 00 00 00 03 00 00 00 03     ................
    1fbe:	00 00 00 03 00 00 00 00 00 00 00 00 00 00 00 00     ................
    1fce:	00 00 00 00 00 fc ff 03 00 fc ff 03 00 fc ff 03     ................
    1fde:	00 38 00 00 00 0c 00 00 00 0c 00 00 00 fc ff 03     .8..............
    1fee:	00 fc ff 03 00 f0 ff 03 00 38 00 00 00 0c 00 00     .........8......
    1ffe:	00 0c 00 00 00 fc ff 03 00 fc ff 03 00 f0 ff 03     ................
	...
    201e:	00 fc ff 03 00 fc ff 03 00 fc ff 03 00 70 00 00     .............p..
    202e:	00 38 00 00 00 18 00 00 00 0c 00 00 00 0c 00 00     .8..............
    203e:	00 0c 00 00 00 1c 00 00 00 fc ff 03 00 f8 ff 03     ................
    204e:	00 e0 ff 03 00 00 00 00 00 00 00 00 00 00 00 00     ................
    205e:	00 80 1f 00 00 e0 7f 00 00 f0 ff 00 00 78 e0 01     .............x..
    206e:	00 18 80 03 00 0c 00 03 00 0c 00 03 00 0c 00 03     ................
    207e:	00 0c 00 03 00 0c 00 03 00 1c 80 01 00 78 e0 01     .............x..
    208e:	00 f0 ff 00 00 e0 7f 00 00 c0 1f 00 00 00 00 00     ................
	...
    20ae:	00 fc ff ff 00 fc ff ff 00 fc ff ff 00 70 80 03     .............p..
    20be:	00 38 00 03 00 18 00 03 00 0c 00 03 00 0c 00 03     .8..............
    20ce:	00 0c 80 03 00 1c 80 01 00 3c e0 01 00 f8 ff 00     .........<......
    20de:	00 f0 7f 00 00 c0 1f 00 00 00 00 00 00 00 00 00     ................
    20ee:	00 00 00 00 00 80 3f 00 00 e0 ff 00 00 f0 ff 01     ......?.........
    20fe:	00 78 c0 03 00 18 80 03 00 1c 00 03 00 0c 00 03     .x..............
    210e:	00 0c 00 03 00 0c 80 01 00 0c c0 01 00 0c e0 00     ................
    211e:	00 f8 ff ff 00 fc ff ff 00 fc ff ff 00 00 00 00     ................
	...
    213e:	00 fc ff 03 00 fc ff 03 00 fc ff 03 00 70 00 00     .............p..
    214e:	00 38 00 00 00 18 00 00 00 0c 00 00 00 0c 00 00     .8..............
    215e:	00 0c 00 00 00 1c 00 00 00 fc 00 00 00 f8 00 00     ................
    216e:	00 e0 00 00 00 00 00 00 00 00 00 00 00 00 00 00     ................
	...
    2186:	00 e0 80 01 00 f0 81 01 00 f8 03 03 00 9c 03 03     ................
    2196:	00 0c 07 03 00 0c 07 03 00 0c 06 03 00 0c 0e 03     ................
    21a6:	00 0c 0e 03 00 0c 9c 01 00 1c fc 01 00 18 f8 00     ................
    21b6:	00 00 70 00 00 00 00 00 00 00 00 00 00 00 00 00     ..p.............
    21c6:	00 0c 00 00 00 0c 00 00 00 0c 00 00 00 0c 00 00     ................
    21d6:	00 0c 00 00 c0 ff ff 00 e0 ff ff 01 e0 ff ff 01     ................
    21e6:	00 0c 80 03 00 0c 00 03 00 0c 00 03 00 0c 00 03     ................
    21f6:	00 0c 00 03 00 0c 00 03 00 0c 80 01 00 00 00 00     ................
	...
    2216:	00 fc 7f 00 00 fc ff 01 00 fc ff 03 00 00 80 03     ................
    2226:	00 00 00 03 00 00 00 03 00 00 00 03 00 00 80 01     ................
    2236:	00 00 c0 01 00 00 e0 00 00 fc ff 03 00 fc ff 03     ................
    2246:	00 fc ff 03 00 00 00 00 00 00 00 00 00 00 00 00     ................
    2256:	00 00 00 00 00 1c 00 00 00 7c 00 00 00 fc 03 00     .........|......
    2266:	00 f0 0f 00 00 80 7f 00 00 00 fc 01 00 00 e0 03     ................
    2276:	00 00 c0 03 00 00 e0 03 00 00 fc 01 00 80 7f 00     ................
    2286:	00 f0 0f 00 00 fc 03 00 00 7c 00 00 00 1c 00 00     .........|......
	...
    229e:	00 fc 0f 00 00 fc ff 01 00 80 ff 03 00 00 80 03     ................
    22ae:	00 00 e0 03 00 00 f8 01 00 00 3e 00 00 80 0f 00     ..........>.....
    22be:	00 80 0f 00 00 00 3e 00 00 00 f8 01 00 00 e0 03     ......>.........
    22ce:	00 00 80 03 00 80 ff 03 00 fc ff 01 00 fc 0f 00     ................
	...
    22e6:	00 04 00 02 00 0c 00 03 00 1c 80 03 00 7c c0 03     .............|..
    22f6:	00 f8 f0 01 00 e0 79 00 00 c0 3f 00 00 80 1f 00     ......y...?.....
    2306:	00 80 1f 00 00 c0 3f 00 00 e0 79 00 00 f8 f0 01     ......?...y.....
    2316:	00 7c e0 03 00 1c 80 03 00 0c 00 03 00 04 00 02     .|..............
	...
    232e:	00 00 00 60 00 07 00 60 00 1f 00 60 00 ff 00 60     ...`...`...`...`
    233e:	00 fc 03 70 00 e0 1f 38 00 00 7f 1e 00 00 f8 0f     ...p...8........
    234e:	00 00 e0 07 00 00 fc 01 00 00 7f 00 00 e0 0f 00     ................
    235e:	00 fc 03 00 00 7f 00 00 00 1f 00 00 00 03 00 00     ................
	...
    237e:	00 0c 00 03 00 0c 80 03 00 0c c0 03 00 0c f0 03     ................
    238e:	00 0c 78 03 00 0c 1c 03 00 0c 0f 03 00 8c 07 03     ..x.............
    239e:	00 cc 01 03 00 fc 00 03 00 7c 00 03 00 1c 00 03     .........|......
    23ae:	00 0c 00 03 00 00 00 03 00 00 00 00 00 00 00 00     ................
    23be:	00 00 00 00 00 c0 00 00 00 c0 00 00 00 c0 00 00     ................
    23ce:	00 c0 00 00 00 e0 01 00 f0 ff ff 0f fc 3f ff 3f     .............?.?
    23de:	fc 1f fe 3f 0e 00 00 70 06 00 00 60 06 00 00 60     ...?...p...`...`
    23ee:	06 00 00 60 00 00 00 00 00 00 00 00 00 00 00 00     ...`............
	...
    2422:	ff ff ff ff ff ff ff ff ff ff ff ff 00 00 00 00     ................
	...
    245a:	06 00 00 60 06 00 00 60 06 00 00 60 0e 00 00 70     ...`...`...`...p
    246a:	fc 1f fe 3f fc 3f ff 3f f0 ff ff 0f 00 e0 01 00     ...?.?.?........
    247a:	00 c0 00 00 00 c0 00 00 00 c0 00 00 00 c0 00 00     ................
	...
    2496:	00 00 0e 00 00 80 0f 00 00 c0 0f 00 00 c0 01 00     ................
    24a6:	00 c0 00 00 00 c0 00 00 00 80 01 00 00 00 03 00     ................
    24b6:	00 00 06 00 00 00 0c 00 00 00 18 00 00 00 18 00     ................
    24c6:	00 00 1c 00 00 80 1f 00 00 80 0f 00 00 80 03 00     ................
	...
    24de:	fc ff ff 07 fc ff ff 07 0c 00 00 06 0c 00 00 06     ................
    24ee:	0c 00 00 06 0c 00 00 06 fc ff ff 07 fc ff ff 07     ................
	...

00002522 <Consolas14x24>:
    2522:	00 00 00 00 c0 03 00 f8 03 00 7f 00 e0 67 00 f0     .............g..
    2532:	60 00 38 60 00 f0 60 00 e0 67 00 00 7f 00 00 f8     `.8`..`..g......
    2542:	03 00 c0 03 00 00 00 00 00 00 00 00 00 00 00 00     ................
    2552:	f8 ff 03 f8 ff 03 18 06 03 18 06 03 18 06 03 18     ................
    2562:	06 03 38 07 03 f0 8d 01 e0 fc 01 00 70 00 00 00     ..8.........p...
    2572:	00 00 00 00 00 00 00 80 3f 00 c0 ff 00 e0 e0 01     ........?.......
    2582:	30 80 01 38 80 03 18 00 03 18 00 03 18 00 03 18     0..8............
    2592:	00 03 18 00 03 30 80 01 00 00 00 00 00 00 00 00     .....0..........
    25a2:	00 f8 ff 03 f8 ff 03 18 00 03 18 00 03 18 00 03     ................
    25b2:	18 00 03 18 80 03 30 80 01 70 e0 01 e0 ff 00 80     ......0..p......
    25c2:	3f 00 00 00 00 00 00 00 00 00 00 00 00 00 f8 ff     ?...............
    25d2:	03 f8 ff 03 18 06 03 18 06 03 18 06 03 18 06 03     ................
    25e2:	18 06 03 18 06 03 00 00 00 00 00 00 00 00 00 00     ................
	...
    25fa:	f8 ff 03 f8 ff 03 18 06 00 18 06 00 18 06 00 18     ................
    260a:	06 00 18 06 00 18 06 00 00 00 00 00 00 00 00 00     ................
	...
    2622:	3f 00 c0 ff 00 e0 e0 01 30 80 01 38 00 03 18 00     ?.......0..8....
    2632:	03 18 06 03 18 06 03 18 06 03 18 fe 03 30 fe 01     .............0..
	...
    264a:	00 f8 ff 03 f8 ff 03 00 06 00 00 06 00 00 06 00     ................
    265a:	00 06 00 00 06 00 00 06 00 f8 ff 03 f8 ff 03 00     ................
	...
    2676:	00 00 18 00 03 18 00 03 18 00 03 f8 ff 03 f8 ff     ................
    2686:	03 18 00 03 18 00 03 18 00 03 00 00 00 00 00 00     ................
	...
    26a2:	18 80 01 18 00 03 18 00 03 18 00 03 18 00 03 18     ................
    26b2:	80 03 f8 ff 01 f8 ff 00 00 00 00 00 00 00 00 00     ................
	...
    26ca:	00 00 f8 ff 03 f8 ff 03 00 04 00 00 1f 00 80 3b     ...............;
    26da:	00 e0 f0 00 70 c0 01 38 80 03 08 00 02 00 00 00     ....p..8........
	...
    26f6:	00 00 00 f8 ff 03 f8 ff 03 00 00 03 00 00 03 00     ................
    2706:	00 03 00 00 03 00 00 03 00 00 03 00 00 00 00 00     ................
    2716:	00 00 00 00 00 00 00 f8 ff 03 f8 ff 03 78 00 00     .............x..
    2726:	c0 03 00 00 0f 00 00 18 00 00 0f 00 c0 03 00 70     ...............p
    2736:	00 00 f8 ff 03 f8 ff 03 00 00 00 00 00 00 00 00     ................
    2746:	00 00 00 00 f8 ff 03 f8 ff 03 38 00 00 e0 01 00     ..........8.....
    2756:	80 07 00 00 3c 00 00 f0 00 00 80 03 f8 ff 03 f8     ....<...........
    2766:	ff 03 00 00 00 00 00 00 00 00 00 80 3f 00 e0 ff     ............?...
    2776:	00 70 c0 01 38 80 03 18 00 03 18 00 03 18 00 03     .p..8...........
    2786:	38 80 03 70 c0 01 e0 ff 00 80 3f 00 00 00 00 00     8..p......?.....
	...
    279e:	f8 ff 03 f8 ff 03 18 18 00 18 18 00 18 18 00 18     ................
    27ae:	18 00 18 18 00 30 0c 00 f0 07 00 c0 03 00 00 00     .....0..........
    27be:	00 00 00 00 00 00 00 80 3f 00 e0 ff 00 70 c0 01     ........?....p..
    27ce:	38 80 03 18 00 0f 18 00 1f 18 00 3b 38 80 33 70     8..........;8.3p
    27de:	c0 31 e0 ff 30 80 3f 18 00 00 18 00 00 00 00 00     .1..0.?.........
    27ee:	00 00 00 00 f8 ff 03 f8 ff 03 18 0c 00 18 0c 00     ................
    27fe:	18 0c 00 18 1c 00 38 76 00 f0 e7 01 e0 81 03 00     ......8v........
    280e:	00 02 00 00 00 00 00 00 00 00 00 e0 81 01 f0 03     ................
    281e:	03 30 03 03 18 06 03 18 06 03 18 0c 03 18 0c 03     .0..............
    282e:	18 9c 01 30 f8 01 00 f0 00 00 00 00 00 00 00 00     ...0............
    283e:	00 00 00 00 00 18 00 00 18 00 00 18 00 00 18 00     ................
    284e:	00 f8 ff 03 f8 ff 03 18 00 00 18 00 00 18 00 00     ................
    285e:	18 00 00 00 00 00 00 00 00 00 00 00 00 00 00 f8     ................
    286e:	ff 00 f8 ff 01 00 80 03 00 00 03 00 00 03 00 00     ................
    287e:	03 00 00 03 00 80 01 f8 ff 01 f8 7f 00 00 00 00     ................
	...
    2896:	00 38 00 00 f8 03 00 c0 1f 00 00 fe 00 00 e0 03     .8..............
    28a6:	00 80 03 00 e0 03 00 fe 00 c0 0f 00 f8 01 00 38     ...............8
	...
    28be:	00 00 00 f8 3f 00 f8 ff 03 00 e0 03 00 f8 03 00     ....?...........
    28ce:	7e 00 00 0f 00 00 7e 00 00 f8 03 00 c0 03 f8 ff     ~.....~.........
    28de:	03 f8 3f 00 00 00 00 00 00 00 00 00 02 08 00 03     ..?.............
    28ee:	18 c0 03 78 e0 00 e0 79 00 c0 1f 00 00 0f 00 c0     ...x...y........
    28fe:	1f 00 e0 79 00 78 e0 00 18 c0 03 08 00 03 00 00     ...y.x..........
    290e:	02 00 00 00 00 00 00 08 00 00 38 00 00 f0 00 00     ..........8.....
    291e:	c0 03 00 00 0f 00 00 fc 03 00 fc 03 00 0f 00 c0     ................
    292e:	03 00 f0 00 00 38 00 00 08 00 00 00 00 00 00 00     .....8..........
    293e:	00 18 00 03 18 80 03 18 e0 03 18 38 03 18 1c 03     ...........8....
    294e:	18 07 03 98 03 03 f8 00 03 78 00 03 18 00 03 00     .........x......
    295e:	00 03 00 00 00 00 00 00                             ........

00002966 <__ctors_end>:
    2966:	11 24       	eor	r1, r1
    2968:	1f be       	out	0x3f, r1	; 63
    296a:	cf e5       	ldi	r28, 0x5F	; 95
    296c:	d8 e0       	ldi	r29, 0x08	; 8
    296e:	de bf       	out	0x3e, r29	; 62
    2970:	cd bf       	out	0x3d, r28	; 61

00002972 <__do_copy_data>:
    2972:	12 e0       	ldi	r17, 0x02	; 2
    2974:	a0 e6       	ldi	r26, 0x60	; 96
    2976:	b0 e0       	ldi	r27, 0x00	; 0
    2978:	e6 ec       	ldi	r30, 0xC6	; 198
    297a:	fa e6       	ldi	r31, 0x6A	; 106
    297c:	02 c0       	rjmp	.+4      	; 0x2982 <__do_copy_data+0x10>
    297e:	05 90       	lpm	r0, Z+
    2980:	0d 92       	st	X+, r0
    2982:	a0 35       	cpi	r26, 0x50	; 80
    2984:	b1 07       	cpc	r27, r17
    2986:	d9 f7       	brne	.-10     	; 0x297e <__do_copy_data+0xc>

00002988 <__do_clear_bss>:
    2988:	23 e0       	ldi	r18, 0x03	; 3
    298a:	a0 e5       	ldi	r26, 0x50	; 80
    298c:	b2 e0       	ldi	r27, 0x02	; 2
    298e:	01 c0       	rjmp	.+2      	; 0x2992 <.do_clear_bss_start>

00002990 <.do_clear_bss_loop>:
    2990:	1d 92       	st	X+, r1

00002992 <.do_clear_bss_start>:
    2992:	ad 30       	cpi	r26, 0x0D	; 13
    2994:	b2 07       	cpc	r27, r18
    2996:	e1 f7       	brne	.-8      	; 0x2990 <.do_clear_bss_loop>
    2998:	0e 94 92 23 	call	0x4724	; 0x4724 <main>
    299c:	0c 94 61 35 	jmp	0x6ac2	; 0x6ac2 <_exit>

000029a0 <__bad_interrupt>:
    29a0:	0c 94 00 00 	jmp	0	; 0x0 <__vectors>

000029a4 <dt_testdevice>:
  return tt;
}
//функция определения датчика на шине
char dt_testdevice(void) //dt — digital termomether | определим, есть ли устройство на шине
{
  char stektemp=SREG;// сохраним значение стека
    29a4:	9f b7       	in	r25, 0x3f	; 63
  cli(); //запрещаем прерывания
    29a6:	f8 94       	cli
  char dt;
  DDRTEMP |= 1<<BITTEMP; //притягиваем шину
    29a8:	87 b3       	in	r24, 0x17	; 23
    29aa:	82 60       	ori	r24, 0x02	; 2
    29ac:	87 bb       	out	0x17, r24	; 23
	#else
		//round up by default
		__ticks_dc = (uint32_t)(ceil(fabs(__tmp)));
	#endif

	__builtin_avr_delay_cycles(__ticks_dc);
    29ae:	e3 e9       	ldi	r30, 0x93	; 147
    29b0:	f7 e0       	ldi	r31, 0x07	; 7
    29b2:	31 97       	sbiw	r30, 0x01	; 1
    29b4:	f1 f7       	brne	.-4      	; 0x29b2 <dt_testdevice+0xe>
    29b6:	00 c0       	rjmp	.+0      	; 0x29b8 <dt_testdevice+0x14>
    29b8:	00 00       	nop
  _delay_us(485); //задержка как минимум на 480 микросекунд
  DDRTEMP &= ~(1<<BITTEMP); //отпускаем шину
    29ba:	87 b3       	in	r24, 0x17	; 23
    29bc:	8d 7f       	andi	r24, 0xFD	; 253
    29be:	87 bb       	out	0x17, r24	; 23
    29c0:	e3 e0       	ldi	r30, 0x03	; 3
    29c2:	f1 e0       	ldi	r31, 0x01	; 1
    29c4:	31 97       	sbiw	r30, 0x01	; 1
    29c6:	f1 f7       	brne	.-4      	; 0x29c4 <dt_testdevice+0x20>
    29c8:	00 c0       	rjmp	.+0      	; 0x29ca <dt_testdevice+0x26>
    29ca:	00 00       	nop
  _delay_us(65); //задержка как минимум на 60 микросекунд
  if ((PINTEMP & (1<<BITTEMP))==0)//проверяем, ответит ли устройство
    29cc:	b1 99       	sbic	0x16, 1	; 22
    29ce:	02 c0       	rjmp	.+4      	; 0x29d4 <dt_testdevice+0x30>
  {
	  dt=1;//устройство есть
    29d0:	81 e0       	ldi	r24, 0x01	; 1
    29d2:	01 c0       	rjmp	.+2      	; 0x29d6 <dt_testdevice+0x32>
  }
  else dt=0;//устройства нет
    29d4:	80 e0       	ldi	r24, 0x00	; 0
  SREG = stektemp;// вернем значение стека
    29d6:	9f bf       	out	0x3f, r25	; 63
    29d8:	ef e8       	ldi	r30, 0x8F	; 143
    29da:	f6 e0       	ldi	r31, 0x06	; 6
    29dc:	31 97       	sbiw	r30, 0x01	; 1
    29de:	f1 f7       	brne	.-4      	; 0x29dc <dt_testdevice+0x38>
    29e0:	00 c0       	rjmp	.+0      	; 0x29e2 <dt_testdevice+0x3e>
    29e2:	00 00       	nop
  _delay_us(420); //задержка как минимум на 480 микросекунд, но хватит и 420, тк это с учетом времени прошедших команд
  return dt; //вернем результат
}
    29e4:	08 95       	ret

000029e6 <dt_readbit>:
	return c;
}
//функция чтения бита с устройства
char dt_readbit(void)
{
  char stektemp=SREG;// сохраним значение стека
    29e6:	2f b7       	in	r18, 0x3f	; 63
  cli(); //запрещаем прерывание
    29e8:	f8 94       	cli
  char bt; //переменная хранения бита
  DDRTEMP |= 1<<BITTEMP; //притягиваем шину
    29ea:	87 b3       	in	r24, 0x17	; 23
    29ec:	82 60       	ori	r24, 0x02	; 2
    29ee:	87 bb       	out	0x17, r24	; 23
    29f0:	3a e0       	ldi	r19, 0x0A	; 10
    29f2:	3a 95       	dec	r19
    29f4:	f1 f7       	brne	.-4      	; 0x29f2 <dt_readbit+0xc>
    29f6:	00 c0       	rjmp	.+0      	; 0x29f8 <dt_readbit+0x12>
  _delay_us(2); //задержка как минимум на 2 микросекунды
  DDRTEMP &= ~(1<<BITTEMP); //отпускаем шину
    29f8:	87 b3       	in	r24, 0x17	; 23
    29fa:	8d 7f       	andi	r24, 0xFD	; 253
    29fc:	87 bb       	out	0x17, r24	; 23
    29fe:	85 e4       	ldi	r24, 0x45	; 69
    2a00:	8a 95       	dec	r24
    2a02:	f1 f7       	brne	.-4      	; 0x2a00 <dt_readbit+0x1a>
    2a04:	00 00       	nop
  _delay_us(13);
  bt = (PINTEMP & (1<<BITTEMP))>>BITTEMP; //читаем бит
    2a06:	86 b3       	in	r24, 0x16	; 22
    2a08:	82 70       	andi	r24, 0x02	; 2
    2a0a:	90 e0       	ldi	r25, 0x00	; 0
    2a0c:	95 95       	asr	r25
    2a0e:	87 95       	ror	r24
    2a10:	30 ef       	ldi	r19, 0xF0	; 240
    2a12:	3a 95       	dec	r19
    2a14:	f1 f7       	brne	.-4      	; 0x2a12 <dt_readbit+0x2c>
  _delay_us(45);
  SREG = stektemp;// вернем значение стека
    2a16:	2f bf       	out	0x3f, r18	; 63
  return bt; //вернем результат
}
    2a18:	08 95       	ret

00002a1a <dt_readbyte>:
  _delay_us(420); //задержка как минимум на 480 микросекунд, но хватит и 420, тк это с учетом времени прошедших команд
  return dt; //вернем результат
}
//функция чтения байта с устройства
unsigned char dt_readbyte(void)
{
    2a1a:	cf 93       	push	r28
    2a1c:	df 93       	push	r29
	char c=0;
	char i;
	for(i=0;i<8;i++)
    2a1e:	c0 e0       	ldi	r28, 0x00	; 0
  return dt; //вернем результат
}
//функция чтения байта с устройства
unsigned char dt_readbyte(void)
{
	char c=0;
    2a20:	d0 e0       	ldi	r29, 0x00	; 0
	char i;
	for(i=0;i<8;i++)
    2a22:	0b c0       	rjmp	.+22     	; 0x2a3a <dt_readbyte+0x20>
	{
	  c|=dt_readbit()<<i; //читаем бит
    2a24:	0e 94 f3 14 	call	0x29e6	; 0x29e6 <dt_readbit>
    2a28:	90 e0       	ldi	r25, 0x00	; 0
    2a2a:	0c 2e       	mov	r0, r28
    2a2c:	02 c0       	rjmp	.+4      	; 0x2a32 <dt_readbyte+0x18>
    2a2e:	88 0f       	add	r24, r24
    2a30:	99 1f       	adc	r25, r25
    2a32:	0a 94       	dec	r0
    2a34:	e2 f7       	brpl	.-8      	; 0x2a2e <dt_readbyte+0x14>
    2a36:	d8 2b       	or	r29, r24
//функция чтения байта с устройства
unsigned char dt_readbyte(void)
{
	char c=0;
	char i;
	for(i=0;i<8;i++)
    2a38:	cf 5f       	subi	r28, 0xFF	; 255
    2a3a:	c8 30       	cpi	r28, 0x08	; 8
    2a3c:	98 f3       	brcs	.-26     	; 0x2a24 <dt_readbyte+0xa>
	{
	  c|=dt_readbit()<<i; //читаем бит
	}
	return c;
}
    2a3e:	8d 2f       	mov	r24, r29
    2a40:	df 91       	pop	r29
    2a42:	cf 91       	pop	r28
    2a44:	08 95       	ret

00002a46 <dt_sendbit>:
	}
}
//функция записи бита на устройство
void dt_sendbit(char bt)
{
	char stektemp=SREG;// сохраним значение стека
    2a46:	2f b7       	in	r18, 0x3f	; 63
	cli(); //запрещаем прерывание
    2a48:	f8 94       	cli
	DDRTEMP |= 1<<BITTEMP; //притягиваем шину
    2a4a:	97 b3       	in	r25, 0x17	; 23
    2a4c:	92 60       	ori	r25, 0x02	; 2
    2a4e:	97 bb       	out	0x17, r25	; 23
    2a50:	9a e0       	ldi	r25, 0x0A	; 10
    2a52:	9a 95       	dec	r25
    2a54:	f1 f7       	brne	.-4      	; 0x2a52 <dt_sendbit+0xc>
    2a56:	00 c0       	rjmp	.+0      	; 0x2a58 <dt_sendbit+0x12>
	_delay_us(2); //задержка как минимум на 2 микросекунды
	if(bt)
    2a58:	88 23       	and	r24, r24
    2a5a:	19 f0       	breq	.+6      	; 0x2a62 <dt_sendbit+0x1c>
    {
	  DDRTEMP &= ~(1<<BITTEMP); //отпускаем шину
    2a5c:	87 b3       	in	r24, 0x17	; 23
    2a5e:	8d 7f       	andi	r24, 0xFD	; 253
    2a60:	87 bb       	out	0x17, r24	; 23
    2a62:	83 e0       	ldi	r24, 0x03	; 3
    2a64:	91 e0       	ldi	r25, 0x01	; 1
    2a66:	01 97       	sbiw	r24, 0x01	; 1
    2a68:	f1 f7       	brne	.-4      	; 0x2a66 <dt_sendbit+0x20>
    2a6a:	00 c0       	rjmp	.+0      	; 0x2a6c <dt_sendbit+0x26>
    2a6c:	00 00       	nop
	}
	_delay_us(65); //задержка как минимум на 60 микросекунд
	DDRTEMP &= ~(1<<BITTEMP); //отпускаем шину
    2a6e:	87 b3       	in	r24, 0x17	; 23
    2a70:	8d 7f       	andi	r24, 0xFD	; 253
    2a72:	87 bb       	out	0x17, r24	; 23
	SREG = stektemp;// вернем значение стека
    2a74:	2f bf       	out	0x3f, r18	; 63
    2a76:	08 95       	ret

00002a78 <dt_sendbyte>:
  SREG = stektemp;// вернем значение стека
  return bt; //вернем результат
}
//функция записи байта на устройство
void dt_sendbyte(unsigned char bt)
{
    2a78:	cf 93       	push	r28
    2a7a:	df 93       	push	r29
    2a7c:	d8 2f       	mov	r29, r24
	char i;
	for(i=0;i<8;i++)//посылаем отдельно каждый бит на устройство
    2a7e:	c0 e0       	ldi	r28, 0x00	; 0
    2a80:	17 c0       	rjmp	.+46     	; 0x2ab0 <dt_sendbyte+0x38>
	{
		if((bt & (1<<i)) == 1<<i)//посылаем 1
    2a82:	81 e0       	ldi	r24, 0x01	; 1
    2a84:	90 e0       	ldi	r25, 0x00	; 0
    2a86:	0c 2e       	mov	r0, r28
    2a88:	02 c0       	rjmp	.+4      	; 0x2a8e <dt_sendbyte+0x16>
    2a8a:	88 0f       	add	r24, r24
    2a8c:	99 1f       	adc	r25, r25
    2a8e:	0a 94       	dec	r0
    2a90:	e2 f7       	brpl	.-8      	; 0x2a8a <dt_sendbyte+0x12>
    2a92:	2d 2f       	mov	r18, r29
    2a94:	30 e0       	ldi	r19, 0x00	; 0
    2a96:	28 23       	and	r18, r24
    2a98:	39 23       	and	r19, r25
    2a9a:	82 17       	cp	r24, r18
    2a9c:	93 07       	cpc	r25, r19
    2a9e:	21 f4       	brne	.+8      	; 0x2aa8 <dt_sendbyte+0x30>
		dt_sendbit(1);
    2aa0:	81 e0       	ldi	r24, 0x01	; 1
    2aa2:	0e 94 23 15 	call	0x2a46	; 0x2a46 <dt_sendbit>
    2aa6:	03 c0       	rjmp	.+6      	; 0x2aae <dt_sendbyte+0x36>
		else //посылаем 0
		dt_sendbit(0);
    2aa8:	80 e0       	ldi	r24, 0x00	; 0
    2aaa:	0e 94 23 15 	call	0x2a46	; 0x2a46 <dt_sendbit>
}
//функция записи байта на устройство
void dt_sendbyte(unsigned char bt)
{
	char i;
	for(i=0;i<8;i++)//посылаем отдельно каждый бит на устройство
    2aae:	cf 5f       	subi	r28, 0xFF	; 255
    2ab0:	c8 30       	cpi	r28, 0x08	; 8
    2ab2:	38 f3       	brcs	.-50     	; 0x2a82 <dt_sendbyte+0xa>
		if((bt & (1<<i)) == 1<<i)//посылаем 1
		dt_sendbit(1);
		else //посылаем 0
		dt_sendbit(0);
	}
}
    2ab4:	df 91       	pop	r29
    2ab6:	cf 91       	pop	r28
    2ab8:	08 95       	ret

00002aba <dt_check>:

#include "DS18B20.h"

//функция преобразования показаний датчика в температуру
int dt_check(void)
{
    2aba:	cf 93       	push	r28
  unsigned char bt;//переменная для считывания байта
  unsigned int tt=0;
  if(dt_testdevice()==1) //если устройство нашлось
    2abc:	0e 94 d2 14 	call	0x29a4	; 0x29a4 <dt_testdevice>
    2ac0:	81 30       	cpi	r24, 0x01	; 1
    2ac2:	09 f5       	brne	.+66     	; 0x2b06 <dt_check+0x4c>
  {
   dt_sendbyte(NOID); //пропустить идентификацию, тк у нас только одно устройство на шине
    2ac4:	8c ec       	ldi	r24, 0xCC	; 204
    2ac6:	0e 94 3c 15 	call	0x2a78	; 0x2a78 <dt_sendbyte>
   dt_sendbyte(T_CONVERT); //измеряем температуру
    2aca:	84 e4       	ldi	r24, 0x44	; 68
    2acc:	0e 94 3c 15 	call	0x2a78	; 0x2a78 <dt_sendbyte>
	#else
		//round up by default
		__ticks_dc = (uint32_t)(ceil(fabs(__tmp)));
	#endif

	__builtin_avr_delay_cycles(__ticks_dc);
    2ad0:	2f ef       	ldi	r18, 0xFF	; 255
    2ad2:	8e e9       	ldi	r24, 0x9E	; 158
    2ad4:	94 e2       	ldi	r25, 0x24	; 36
    2ad6:	21 50       	subi	r18, 0x01	; 1
    2ad8:	80 40       	sbci	r24, 0x00	; 0
    2ada:	90 40       	sbci	r25, 0x00	; 0
    2adc:	e1 f7       	brne	.-8      	; 0x2ad6 <dt_check+0x1c>
    2ade:	00 c0       	rjmp	.+0      	; 0x2ae0 <dt_check+0x26>
    2ae0:	00 00       	nop
   _delay_ms(750); //в 12 битном режиме преобразования — 100 милисекунд
   dt_testdevice(); //снова используем те же манипуляции с шиной что и при проверке ее присутствия
    2ae2:	0e 94 d2 14 	call	0x29a4	; 0x29a4 <dt_testdevice>
   dt_sendbyte(NOID); //пропустить идентификацию, тк у нас только одно устройство на шине
    2ae6:	8c ec       	ldi	r24, 0xCC	; 204
    2ae8:	0e 94 3c 15 	call	0x2a78	; 0x2a78 <dt_sendbyte>
   dt_sendbyte(READ_DATA); //даем команду на чтение данных с устройства
    2aec:	8e eb       	ldi	r24, 0xBE	; 190
    2aee:	0e 94 3c 15 	call	0x2a78	; 0x2a78 <dt_sendbyte>
   bt = dt_readbyte(); //читаем младший бит
    2af2:	0e 94 0d 15 	call	0x2a1a	; 0x2a1a <dt_readbyte>
    2af6:	c8 2f       	mov	r28, r24
   tt = dt_readbyte(); //читаем старший бит MS
    2af8:	0e 94 0d 15 	call	0x2a1a	; 0x2a1a <dt_readbyte>
    2afc:	90 e0       	ldi	r25, 0x00	; 0
   tt = (tt<<8)|bt;//сдвигаем старший влево, младший пишем на его место, тем самым получаем общий результат
    2afe:	98 2f       	mov	r25, r24
    2b00:	88 27       	eor	r24, r24
    2b02:	8c 2b       	or	r24, r28
    2b04:	02 c0       	rjmp	.+4      	; 0x2b0a <dt_check+0x50>

//функция преобразования показаний датчика в температуру
int dt_check(void)
{
  unsigned char bt;//переменная для считывания байта
  unsigned int tt=0;
    2b06:	80 e0       	ldi	r24, 0x00	; 0
    2b08:	90 e0       	ldi	r25, 0x00	; 0
   bt = dt_readbyte(); //читаем младший бит
   tt = dt_readbyte(); //читаем старший бит MS
   tt = (tt<<8)|bt;//сдвигаем старший влево, младший пишем на его место, тем самым получаем общий результат
  }
  return tt;
}
    2b0a:	cf 91       	pop	r28
    2b0c:	08 95       	ret

00002b0e <ILI9486_Write8>:

		ILI9486_Print_Char32x32(cursor_y,cursor_x,*(string+i),TFT_STRING_MODE);
		cursor_y+=font_w;
		i++;
	}
}
    2b0e:	8b bb       	out	0x1b, r24	; 27
    2b10:	85 b3       	in	r24, 0x15	; 21
    2b12:	8f 7e       	andi	r24, 0xEF	; 239
    2b14:	85 bb       	out	0x15, r24	; 21
    2b16:	85 b3       	in	r24, 0x15	; 21
    2b18:	80 61       	ori	r24, 0x10	; 16
    2b1a:	85 bb       	out	0x15, r24	; 21
    2b1c:	08 95       	ret

00002b1e <ILI9486_Write16>:
    2b1e:	cf 93       	push	r28
    2b20:	c8 2f       	mov	r28, r24
    2b22:	89 2f       	mov	r24, r25
    2b24:	0e 94 87 15 	call	0x2b0e	; 0x2b0e <ILI9486_Write8>
    2b28:	8c 2f       	mov	r24, r28
    2b2a:	0e 94 87 15 	call	0x2b0e	; 0x2b0e <ILI9486_Write8>
    2b2e:	cf 91       	pop	r28
    2b30:	08 95       	ret

00002b32 <ILI9486_SendCommand>:
    2b32:	25 b3       	in	r18, 0x15	; 21
    2b34:	2f 7d       	andi	r18, 0xDF	; 223
    2b36:	25 bb       	out	0x15, r18	; 21
    2b38:	0e 94 8f 15 	call	0x2b1e	; 0x2b1e <ILI9486_Write16>
    2b3c:	85 b3       	in	r24, 0x15	; 21
    2b3e:	80 62       	ori	r24, 0x20	; 32
    2b40:	85 bb       	out	0x15, r24	; 21
    2b42:	08 95       	ret

00002b44 <ILI9486_SendData>:
    2b44:	25 b3       	in	r18, 0x15	; 21
    2b46:	20 62       	ori	r18, 0x20	; 32
    2b48:	25 bb       	out	0x15, r18	; 21
    2b4a:	0e 94 8f 15 	call	0x2b1e	; 0x2b1e <ILI9486_Write16>
    2b4e:	08 95       	ret

00002b50 <ILI9486_Write_Cmd_Data>:
    2b50:	cf 93       	push	r28
    2b52:	df 93       	push	r29
    2b54:	eb 01       	movw	r28, r22
    2b56:	25 b3       	in	r18, 0x15	; 21
    2b58:	2f 7b       	andi	r18, 0xBF	; 191
    2b5a:	25 bb       	out	0x15, r18	; 21
    2b5c:	0e 94 99 15 	call	0x2b32	; 0x2b32 <ILI9486_SendCommand>
    2b60:	ce 01       	movw	r24, r28
    2b62:	0e 94 a2 15 	call	0x2b44	; 0x2b44 <ILI9486_SendData>
    2b66:	85 b3       	in	r24, 0x15	; 21
    2b68:	80 64       	ori	r24, 0x40	; 64
    2b6a:	85 bb       	out	0x15, r24	; 21
    2b6c:	df 91       	pop	r29
    2b6e:	cf 91       	pop	r28
    2b70:	08 95       	ret

00002b72 <ILI9486_reset>:
    2b72:	8f ef       	ldi	r24, 0xFF	; 255
    2b74:	8a bb       	out	0x1a, r24	; 26
    2b76:	85 b3       	in	r24, 0x15	; 21
    2b78:	80 64       	ori	r24, 0x40	; 64
    2b7a:	85 bb       	out	0x15, r24	; 21
    2b7c:	85 b3       	in	r24, 0x15	; 21
    2b7e:	88 60       	ori	r24, 0x08	; 8
    2b80:	85 bb       	out	0x15, r24	; 21
    2b82:	85 b3       	in	r24, 0x15	; 21
    2b84:	80 61       	ori	r24, 0x10	; 16
    2b86:	85 bb       	out	0x15, r24	; 21
    2b88:	85 b3       	in	r24, 0x15	; 21
    2b8a:	80 68       	ori	r24, 0x80	; 128
    2b8c:	85 bb       	out	0x15, r24	; 21
    2b8e:	2f ef       	ldi	r18, 0xFF	; 255
    2b90:	80 e7       	ldi	r24, 0x70	; 112
    2b92:	92 e0       	ldi	r25, 0x02	; 2
    2b94:	21 50       	subi	r18, 0x01	; 1
    2b96:	80 40       	sbci	r24, 0x00	; 0
    2b98:	90 40       	sbci	r25, 0x00	; 0
    2b9a:	e1 f7       	brne	.-8      	; 0x2b94 <ILI9486_reset+0x22>
    2b9c:	00 c0       	rjmp	.+0      	; 0x2b9e <ILI9486_reset+0x2c>
    2b9e:	00 00       	nop
    2ba0:	85 b3       	in	r24, 0x15	; 21
    2ba2:	8f 77       	andi	r24, 0x7F	; 127
    2ba4:	85 bb       	out	0x15, r24	; 21
    2ba6:	2f ef       	ldi	r18, 0xFF	; 255
    2ba8:	81 ee       	ldi	r24, 0xE1	; 225
    2baa:	94 e0       	ldi	r25, 0x04	; 4
    2bac:	21 50       	subi	r18, 0x01	; 1
    2bae:	80 40       	sbci	r24, 0x00	; 0
    2bb0:	90 40       	sbci	r25, 0x00	; 0
    2bb2:	e1 f7       	brne	.-8      	; 0x2bac <ILI9486_reset+0x3a>
    2bb4:	00 c0       	rjmp	.+0      	; 0x2bb6 <ILI9486_reset+0x44>
    2bb6:	00 00       	nop
    2bb8:	85 b3       	in	r24, 0x15	; 21
    2bba:	80 68       	ori	r24, 0x80	; 128
    2bbc:	85 bb       	out	0x15, r24	; 21
    2bbe:	2f ef       	ldi	r18, 0xFF	; 255
    2bc0:	81 ee       	ldi	r24, 0xE1	; 225
    2bc2:	94 e0       	ldi	r25, 0x04	; 4
    2bc4:	21 50       	subi	r18, 0x01	; 1
    2bc6:	80 40       	sbci	r24, 0x00	; 0
    2bc8:	90 40       	sbci	r25, 0x00	; 0
    2bca:	e1 f7       	brne	.-8      	; 0x2bc4 <ILI9486_reset+0x52>
    2bcc:	00 c0       	rjmp	.+0      	; 0x2bce <ILI9486_reset+0x5c>
    2bce:	00 00       	nop
    2bd0:	60 e0       	ldi	r22, 0x00	; 0
    2bd2:	70 e0       	ldi	r23, 0x00	; 0
    2bd4:	80 eb       	ldi	r24, 0xB0	; 176
    2bd6:	90 e0       	ldi	r25, 0x00	; 0
    2bd8:	0e 94 a8 15 	call	0x2b50	; 0x2b50 <ILI9486_Write_Cmd_Data>
    2bdc:	08 95       	ret

00002bde <ILI9486_SetRotation>:
    2bde:	cf 93       	push	r28
    2be0:	c8 2f       	mov	r28, r24
    2be2:	85 b3       	in	r24, 0x15	; 21
    2be4:	8f 7b       	andi	r24, 0xBF	; 191
    2be6:	85 bb       	out	0x15, r24	; 21
    2be8:	86 e3       	ldi	r24, 0x36	; 54
    2bea:	90 e0       	ldi	r25, 0x00	; 0
    2bec:	0e 94 99 15 	call	0x2b32	; 0x2b32 <ILI9486_SendCommand>
    2bf0:	c1 30       	cpi	r28, 0x01	; 1
    2bf2:	b1 f0       	breq	.+44     	; 0x2c20 <ILI9486_SetRotation+0x42>
    2bf4:	28 f0       	brcs	.+10     	; 0x2c00 <ILI9486_SetRotation+0x22>
    2bf6:	c2 30       	cpi	r28, 0x02	; 2
    2bf8:	19 f1       	breq	.+70     	; 0x2c40 <ILI9486_SetRotation+0x62>
    2bfa:	c3 30       	cpi	r28, 0x03	; 3
    2bfc:	89 f1       	breq	.+98     	; 0x2c60 <ILI9486_SetRotation+0x82>
    2bfe:	3f c0       	rjmp	.+126    	; 0x2c7e <ILI9486_SetRotation+0xa0>
    2c00:	88 e4       	ldi	r24, 0x48	; 72
    2c02:	0e 94 87 15 	call	0x2b0e	; 0x2b0e <ILI9486_Write8>
    2c06:	80 e4       	ldi	r24, 0x40	; 64
    2c08:	91 e0       	ldi	r25, 0x01	; 1
    2c0a:	90 93 53 02 	sts	0x0253, r25	; 0x800253 <X_SIZE+0x1>
    2c0e:	80 93 52 02 	sts	0x0252, r24	; 0x800252 <X_SIZE>
    2c12:	80 ee       	ldi	r24, 0xE0	; 224
    2c14:	91 e0       	ldi	r25, 0x01	; 1
    2c16:	90 93 51 02 	sts	0x0251, r25	; 0x800251 <__data_end+0x1>
    2c1a:	80 93 50 02 	sts	0x0250, r24	; 0x800250 <__data_end>
    2c1e:	2f c0       	rjmp	.+94     	; 0x2c7e <ILI9486_SetRotation+0xa0>
    2c20:	88 e2       	ldi	r24, 0x28	; 40
    2c22:	0e 94 87 15 	call	0x2b0e	; 0x2b0e <ILI9486_Write8>
    2c26:	80 ee       	ldi	r24, 0xE0	; 224
    2c28:	91 e0       	ldi	r25, 0x01	; 1
    2c2a:	90 93 53 02 	sts	0x0253, r25	; 0x800253 <X_SIZE+0x1>
    2c2e:	80 93 52 02 	sts	0x0252, r24	; 0x800252 <X_SIZE>
    2c32:	80 e4       	ldi	r24, 0x40	; 64
    2c34:	91 e0       	ldi	r25, 0x01	; 1
    2c36:	90 93 51 02 	sts	0x0251, r25	; 0x800251 <__data_end+0x1>
    2c3a:	80 93 50 02 	sts	0x0250, r24	; 0x800250 <__data_end>
    2c3e:	1f c0       	rjmp	.+62     	; 0x2c7e <ILI9486_SetRotation+0xa0>
    2c40:	88 e9       	ldi	r24, 0x98	; 152
    2c42:	0e 94 87 15 	call	0x2b0e	; 0x2b0e <ILI9486_Write8>
    2c46:	80 e4       	ldi	r24, 0x40	; 64
    2c48:	91 e0       	ldi	r25, 0x01	; 1
    2c4a:	90 93 53 02 	sts	0x0253, r25	; 0x800253 <X_SIZE+0x1>
    2c4e:	80 93 52 02 	sts	0x0252, r24	; 0x800252 <X_SIZE>
    2c52:	80 ee       	ldi	r24, 0xE0	; 224
    2c54:	91 e0       	ldi	r25, 0x01	; 1
    2c56:	90 93 51 02 	sts	0x0251, r25	; 0x800251 <__data_end+0x1>
    2c5a:	80 93 50 02 	sts	0x0250, r24	; 0x800250 <__data_end>
    2c5e:	0f c0       	rjmp	.+30     	; 0x2c7e <ILI9486_SetRotation+0xa0>
    2c60:	88 ef       	ldi	r24, 0xF8	; 248
    2c62:	0e 94 87 15 	call	0x2b0e	; 0x2b0e <ILI9486_Write8>
    2c66:	80 ee       	ldi	r24, 0xE0	; 224
    2c68:	91 e0       	ldi	r25, 0x01	; 1
    2c6a:	90 93 53 02 	sts	0x0253, r25	; 0x800253 <X_SIZE+0x1>
    2c6e:	80 93 52 02 	sts	0x0252, r24	; 0x800252 <X_SIZE>
    2c72:	80 e4       	ldi	r24, 0x40	; 64
    2c74:	91 e0       	ldi	r25, 0x01	; 1
    2c76:	90 93 51 02 	sts	0x0251, r25	; 0x800251 <__data_end+0x1>
    2c7a:	80 93 50 02 	sts	0x0250, r24	; 0x800250 <__data_end>
    2c7e:	85 b3       	in	r24, 0x15	; 21
    2c80:	80 64       	ori	r24, 0x40	; 64
    2c82:	85 bb       	out	0x15, r24	; 21
    2c84:	cf 91       	pop	r28
    2c86:	08 95       	ret

00002c88 <ILI9486_ini>:
    2c88:	0e 94 b9 15 	call	0x2b72	; 0x2b72 <ILI9486_reset>
    2c8c:	2f ef       	ldi	r18, 0xFF	; 255
    2c8e:	85 ea       	ldi	r24, 0xA5	; 165
    2c90:	9e e0       	ldi	r25, 0x0E	; 14
    2c92:	21 50       	subi	r18, 0x01	; 1
    2c94:	80 40       	sbci	r24, 0x00	; 0
    2c96:	90 40       	sbci	r25, 0x00	; 0
    2c98:	e1 f7       	brne	.-8      	; 0x2c92 <ILI9486_ini+0xa>
    2c9a:	00 c0       	rjmp	.+0      	; 0x2c9c <ILI9486_ini+0x14>
    2c9c:	00 00       	nop
    2c9e:	a8 95       	wdr
    2ca0:	85 b3       	in	r24, 0x15	; 21
    2ca2:	8f 7b       	andi	r24, 0xBF	; 191
    2ca4:	85 bb       	out	0x15, r24	; 21
    2ca6:	85 b3       	in	r24, 0x15	; 21
    2ca8:	8f 7d       	andi	r24, 0xDF	; 223
    2caa:	85 bb       	out	0x15, r24	; 21
    2cac:	81 e0       	ldi	r24, 0x01	; 1
    2cae:	0e 94 87 15 	call	0x2b0e	; 0x2b0e <ILI9486_Write8>
    2cb2:	85 b3       	in	r24, 0x15	; 21
    2cb4:	80 64       	ori	r24, 0x40	; 64
    2cb6:	85 bb       	out	0x15, r24	; 21
    2cb8:	2f ef       	ldi	r18, 0xFF	; 255
    2cba:	82 e5       	ldi	r24, 0x52	; 82
    2cbc:	97 e0       	ldi	r25, 0x07	; 7
    2cbe:	21 50       	subi	r18, 0x01	; 1
    2cc0:	80 40       	sbci	r24, 0x00	; 0
    2cc2:	90 40       	sbci	r25, 0x00	; 0
    2cc4:	e1 f7       	brne	.-8      	; 0x2cbe <ILI9486_ini+0x36>
    2cc6:	00 c0       	rjmp	.+0      	; 0x2cc8 <ILI9486_ini+0x40>
    2cc8:	00 00       	nop
    2cca:	a8 95       	wdr
    2ccc:	85 b3       	in	r24, 0x15	; 21
    2cce:	8f 7b       	andi	r24, 0xBF	; 191
    2cd0:	85 bb       	out	0x15, r24	; 21
    2cd2:	85 b3       	in	r24, 0x15	; 21
    2cd4:	8f 7d       	andi	r24, 0xDF	; 223
    2cd6:	85 bb       	out	0x15, r24	; 21
    2cd8:	88 e2       	ldi	r24, 0x28	; 40
    2cda:	0e 94 87 15 	call	0x2b0e	; 0x2b0e <ILI9486_Write8>
    2cde:	85 b3       	in	r24, 0x15	; 21
    2ce0:	80 64       	ori	r24, 0x40	; 64
    2ce2:	85 bb       	out	0x15, r24	; 21
    2ce4:	85 b3       	in	r24, 0x15	; 21
    2ce6:	8f 7b       	andi	r24, 0xBF	; 191
    2ce8:	85 bb       	out	0x15, r24	; 21
    2cea:	85 b3       	in	r24, 0x15	; 21
    2cec:	8f 7d       	andi	r24, 0xDF	; 223
    2cee:	85 bb       	out	0x15, r24	; 21
    2cf0:	8a e3       	ldi	r24, 0x3A	; 58
    2cf2:	0e 94 87 15 	call	0x2b0e	; 0x2b0e <ILI9486_Write8>
    2cf6:	85 b3       	in	r24, 0x15	; 21
    2cf8:	80 62       	ori	r24, 0x20	; 32
    2cfa:	85 bb       	out	0x15, r24	; 21
    2cfc:	85 e5       	ldi	r24, 0x55	; 85
    2cfe:	0e 94 87 15 	call	0x2b0e	; 0x2b0e <ILI9486_Write8>
    2d02:	85 b3       	in	r24, 0x15	; 21
    2d04:	80 64       	ori	r24, 0x40	; 64
    2d06:	85 bb       	out	0x15, r24	; 21
    2d08:	85 b3       	in	r24, 0x15	; 21
    2d0a:	8f 7b       	andi	r24, 0xBF	; 191
    2d0c:	85 bb       	out	0x15, r24	; 21
    2d0e:	85 b3       	in	r24, 0x15	; 21
    2d10:	8f 7d       	andi	r24, 0xDF	; 223
    2d12:	85 bb       	out	0x15, r24	; 21
    2d14:	80 ec       	ldi	r24, 0xC0	; 192
    2d16:	0e 94 87 15 	call	0x2b0e	; 0x2b0e <ILI9486_Write8>
    2d1a:	85 b3       	in	r24, 0x15	; 21
    2d1c:	80 62       	ori	r24, 0x20	; 32
    2d1e:	85 bb       	out	0x15, r24	; 21
    2d20:	8d e0       	ldi	r24, 0x0D	; 13
    2d22:	0e 94 87 15 	call	0x2b0e	; 0x2b0e <ILI9486_Write8>
    2d26:	85 b3       	in	r24, 0x15	; 21
    2d28:	80 62       	ori	r24, 0x20	; 32
    2d2a:	85 bb       	out	0x15, r24	; 21
    2d2c:	8d e0       	ldi	r24, 0x0D	; 13
    2d2e:	0e 94 87 15 	call	0x2b0e	; 0x2b0e <ILI9486_Write8>
    2d32:	85 b3       	in	r24, 0x15	; 21
    2d34:	80 64       	ori	r24, 0x40	; 64
    2d36:	85 bb       	out	0x15, r24	; 21
    2d38:	85 b3       	in	r24, 0x15	; 21
    2d3a:	8f 7b       	andi	r24, 0xBF	; 191
    2d3c:	85 bb       	out	0x15, r24	; 21
    2d3e:	85 b3       	in	r24, 0x15	; 21
    2d40:	8f 7d       	andi	r24, 0xDF	; 223
    2d42:	85 bb       	out	0x15, r24	; 21
    2d44:	81 ec       	ldi	r24, 0xC1	; 193
    2d46:	0e 94 87 15 	call	0x2b0e	; 0x2b0e <ILI9486_Write8>
    2d4a:	85 b3       	in	r24, 0x15	; 21
    2d4c:	80 62       	ori	r24, 0x20	; 32
    2d4e:	85 bb       	out	0x15, r24	; 21
    2d50:	83 e4       	ldi	r24, 0x43	; 67
    2d52:	0e 94 87 15 	call	0x2b0e	; 0x2b0e <ILI9486_Write8>
    2d56:	85 b3       	in	r24, 0x15	; 21
    2d58:	80 62       	ori	r24, 0x20	; 32
    2d5a:	85 bb       	out	0x15, r24	; 21
    2d5c:	80 e0       	ldi	r24, 0x00	; 0
    2d5e:	0e 94 87 15 	call	0x2b0e	; 0x2b0e <ILI9486_Write8>
    2d62:	85 b3       	in	r24, 0x15	; 21
    2d64:	80 64       	ori	r24, 0x40	; 64
    2d66:	85 bb       	out	0x15, r24	; 21
    2d68:	85 b3       	in	r24, 0x15	; 21
    2d6a:	8f 7b       	andi	r24, 0xBF	; 191
    2d6c:	85 bb       	out	0x15, r24	; 21
    2d6e:	85 b3       	in	r24, 0x15	; 21
    2d70:	8f 7d       	andi	r24, 0xDF	; 223
    2d72:	85 bb       	out	0x15, r24	; 21
    2d74:	82 ec       	ldi	r24, 0xC2	; 194
    2d76:	0e 94 87 15 	call	0x2b0e	; 0x2b0e <ILI9486_Write8>
    2d7a:	85 b3       	in	r24, 0x15	; 21
    2d7c:	80 62       	ori	r24, 0x20	; 32
    2d7e:	85 bb       	out	0x15, r24	; 21
    2d80:	80 e0       	ldi	r24, 0x00	; 0
    2d82:	0e 94 87 15 	call	0x2b0e	; 0x2b0e <ILI9486_Write8>
    2d86:	85 b3       	in	r24, 0x15	; 21
    2d88:	80 64       	ori	r24, 0x40	; 64
    2d8a:	85 bb       	out	0x15, r24	; 21
    2d8c:	85 b3       	in	r24, 0x15	; 21
    2d8e:	8f 7b       	andi	r24, 0xBF	; 191
    2d90:	85 bb       	out	0x15, r24	; 21
    2d92:	85 b3       	in	r24, 0x15	; 21
    2d94:	8f 7d       	andi	r24, 0xDF	; 223
    2d96:	85 bb       	out	0x15, r24	; 21
    2d98:	85 ec       	ldi	r24, 0xC5	; 197
    2d9a:	0e 94 87 15 	call	0x2b0e	; 0x2b0e <ILI9486_Write8>
    2d9e:	85 b3       	in	r24, 0x15	; 21
    2da0:	80 62       	ori	r24, 0x20	; 32
    2da2:	85 bb       	out	0x15, r24	; 21
    2da4:	80 e0       	ldi	r24, 0x00	; 0
    2da6:	0e 94 87 15 	call	0x2b0e	; 0x2b0e <ILI9486_Write8>
    2daa:	85 b3       	in	r24, 0x15	; 21
    2dac:	80 62       	ori	r24, 0x20	; 32
    2dae:	85 bb       	out	0x15, r24	; 21
    2db0:	88 e4       	ldi	r24, 0x48	; 72
    2db2:	0e 94 87 15 	call	0x2b0e	; 0x2b0e <ILI9486_Write8>
    2db6:	85 b3       	in	r24, 0x15	; 21
    2db8:	80 62       	ori	r24, 0x20	; 32
    2dba:	85 bb       	out	0x15, r24	; 21
    2dbc:	80 e0       	ldi	r24, 0x00	; 0
    2dbe:	0e 94 87 15 	call	0x2b0e	; 0x2b0e <ILI9486_Write8>
    2dc2:	85 b3       	in	r24, 0x15	; 21
    2dc4:	80 62       	ori	r24, 0x20	; 32
    2dc6:	85 bb       	out	0x15, r24	; 21
    2dc8:	88 e4       	ldi	r24, 0x48	; 72
    2dca:	0e 94 87 15 	call	0x2b0e	; 0x2b0e <ILI9486_Write8>
    2dce:	85 b3       	in	r24, 0x15	; 21
    2dd0:	80 64       	ori	r24, 0x40	; 64
    2dd2:	85 bb       	out	0x15, r24	; 21
    2dd4:	85 b3       	in	r24, 0x15	; 21
    2dd6:	8f 7b       	andi	r24, 0xBF	; 191
    2dd8:	85 bb       	out	0x15, r24	; 21
    2dda:	85 b3       	in	r24, 0x15	; 21
    2ddc:	8f 7d       	andi	r24, 0xDF	; 223
    2dde:	85 bb       	out	0x15, r24	; 21
    2de0:	84 eb       	ldi	r24, 0xB4	; 180
    2de2:	0e 94 87 15 	call	0x2b0e	; 0x2b0e <ILI9486_Write8>
    2de6:	85 b3       	in	r24, 0x15	; 21
    2de8:	80 62       	ori	r24, 0x20	; 32
    2dea:	85 bb       	out	0x15, r24	; 21
    2dec:	80 e0       	ldi	r24, 0x00	; 0
    2dee:	0e 94 87 15 	call	0x2b0e	; 0x2b0e <ILI9486_Write8>
    2df2:	85 b3       	in	r24, 0x15	; 21
    2df4:	80 64       	ori	r24, 0x40	; 64
    2df6:	85 bb       	out	0x15, r24	; 21
    2df8:	85 b3       	in	r24, 0x15	; 21
    2dfa:	8f 7b       	andi	r24, 0xBF	; 191
    2dfc:	85 bb       	out	0x15, r24	; 21
    2dfe:	85 b3       	in	r24, 0x15	; 21
    2e00:	8f 7d       	andi	r24, 0xDF	; 223
    2e02:	85 bb       	out	0x15, r24	; 21
    2e04:	86 eb       	ldi	r24, 0xB6	; 182
    2e06:	0e 94 87 15 	call	0x2b0e	; 0x2b0e <ILI9486_Write8>
    2e0a:	85 b3       	in	r24, 0x15	; 21
    2e0c:	80 62       	ori	r24, 0x20	; 32
    2e0e:	85 bb       	out	0x15, r24	; 21
    2e10:	82 e0       	ldi	r24, 0x02	; 2
    2e12:	0e 94 87 15 	call	0x2b0e	; 0x2b0e <ILI9486_Write8>
    2e16:	85 b3       	in	r24, 0x15	; 21
    2e18:	80 62       	ori	r24, 0x20	; 32
    2e1a:	85 bb       	out	0x15, r24	; 21
    2e1c:	82 e0       	ldi	r24, 0x02	; 2
    2e1e:	0e 94 87 15 	call	0x2b0e	; 0x2b0e <ILI9486_Write8>
    2e22:	85 b3       	in	r24, 0x15	; 21
    2e24:	80 62       	ori	r24, 0x20	; 32
    2e26:	85 bb       	out	0x15, r24	; 21
    2e28:	8b e3       	ldi	r24, 0x3B	; 59
    2e2a:	0e 94 87 15 	call	0x2b0e	; 0x2b0e <ILI9486_Write8>
    2e2e:	85 b3       	in	r24, 0x15	; 21
    2e30:	80 64       	ori	r24, 0x40	; 64
    2e32:	85 bb       	out	0x15, r24	; 21
    2e34:	85 b3       	in	r24, 0x15	; 21
    2e36:	8f 7b       	andi	r24, 0xBF	; 191
    2e38:	85 bb       	out	0x15, r24	; 21
    2e3a:	85 b3       	in	r24, 0x15	; 21
    2e3c:	8f 7d       	andi	r24, 0xDF	; 223
    2e3e:	85 bb       	out	0x15, r24	; 21
    2e40:	80 ee       	ldi	r24, 0xE0	; 224
    2e42:	0e 94 87 15 	call	0x2b0e	; 0x2b0e <ILI9486_Write8>
    2e46:	85 b3       	in	r24, 0x15	; 21
    2e48:	80 62       	ori	r24, 0x20	; 32
    2e4a:	85 bb       	out	0x15, r24	; 21
    2e4c:	8f e0       	ldi	r24, 0x0F	; 15
    2e4e:	0e 94 87 15 	call	0x2b0e	; 0x2b0e <ILI9486_Write8>
    2e52:	85 b3       	in	r24, 0x15	; 21
    2e54:	80 62       	ori	r24, 0x20	; 32
    2e56:	85 bb       	out	0x15, r24	; 21
    2e58:	81 e2       	ldi	r24, 0x21	; 33
    2e5a:	0e 94 87 15 	call	0x2b0e	; 0x2b0e <ILI9486_Write8>
    2e5e:	85 b3       	in	r24, 0x15	; 21
    2e60:	80 62       	ori	r24, 0x20	; 32
    2e62:	85 bb       	out	0x15, r24	; 21
    2e64:	8c e1       	ldi	r24, 0x1C	; 28
    2e66:	0e 94 87 15 	call	0x2b0e	; 0x2b0e <ILI9486_Write8>
    2e6a:	85 b3       	in	r24, 0x15	; 21
    2e6c:	80 62       	ori	r24, 0x20	; 32
    2e6e:	85 bb       	out	0x15, r24	; 21
    2e70:	8b e0       	ldi	r24, 0x0B	; 11
    2e72:	0e 94 87 15 	call	0x2b0e	; 0x2b0e <ILI9486_Write8>
    2e76:	85 b3       	in	r24, 0x15	; 21
    2e78:	80 62       	ori	r24, 0x20	; 32
    2e7a:	85 bb       	out	0x15, r24	; 21
    2e7c:	8e e0       	ldi	r24, 0x0E	; 14
    2e7e:	0e 94 87 15 	call	0x2b0e	; 0x2b0e <ILI9486_Write8>
    2e82:	85 b3       	in	r24, 0x15	; 21
    2e84:	80 62       	ori	r24, 0x20	; 32
    2e86:	85 bb       	out	0x15, r24	; 21
    2e88:	88 e0       	ldi	r24, 0x08	; 8
    2e8a:	0e 94 87 15 	call	0x2b0e	; 0x2b0e <ILI9486_Write8>
    2e8e:	85 b3       	in	r24, 0x15	; 21
    2e90:	80 62       	ori	r24, 0x20	; 32
    2e92:	85 bb       	out	0x15, r24	; 21
    2e94:	89 e4       	ldi	r24, 0x49	; 73
    2e96:	0e 94 87 15 	call	0x2b0e	; 0x2b0e <ILI9486_Write8>
    2e9a:	85 b3       	in	r24, 0x15	; 21
    2e9c:	80 62       	ori	r24, 0x20	; 32
    2e9e:	85 bb       	out	0x15, r24	; 21
    2ea0:	88 e9       	ldi	r24, 0x98	; 152
    2ea2:	0e 94 87 15 	call	0x2b0e	; 0x2b0e <ILI9486_Write8>
    2ea6:	85 b3       	in	r24, 0x15	; 21
    2ea8:	80 62       	ori	r24, 0x20	; 32
    2eaa:	85 bb       	out	0x15, r24	; 21
    2eac:	88 e3       	ldi	r24, 0x38	; 56
    2eae:	0e 94 87 15 	call	0x2b0e	; 0x2b0e <ILI9486_Write8>
    2eb2:	85 b3       	in	r24, 0x15	; 21
    2eb4:	80 62       	ori	r24, 0x20	; 32
    2eb6:	85 bb       	out	0x15, r24	; 21
    2eb8:	89 e0       	ldi	r24, 0x09	; 9
    2eba:	0e 94 87 15 	call	0x2b0e	; 0x2b0e <ILI9486_Write8>
    2ebe:	85 b3       	in	r24, 0x15	; 21
    2ec0:	80 62       	ori	r24, 0x20	; 32
    2ec2:	85 bb       	out	0x15, r24	; 21
    2ec4:	81 e1       	ldi	r24, 0x11	; 17
    2ec6:	0e 94 87 15 	call	0x2b0e	; 0x2b0e <ILI9486_Write8>
    2eca:	85 b3       	in	r24, 0x15	; 21
    2ecc:	80 62       	ori	r24, 0x20	; 32
    2ece:	85 bb       	out	0x15, r24	; 21
    2ed0:	83 e0       	ldi	r24, 0x03	; 3
    2ed2:	0e 94 87 15 	call	0x2b0e	; 0x2b0e <ILI9486_Write8>
    2ed6:	85 b3       	in	r24, 0x15	; 21
    2ed8:	80 62       	ori	r24, 0x20	; 32
    2eda:	85 bb       	out	0x15, r24	; 21
    2edc:	84 e1       	ldi	r24, 0x14	; 20
    2ede:	0e 94 87 15 	call	0x2b0e	; 0x2b0e <ILI9486_Write8>
    2ee2:	85 b3       	in	r24, 0x15	; 21
    2ee4:	80 62       	ori	r24, 0x20	; 32
    2ee6:	85 bb       	out	0x15, r24	; 21
    2ee8:	80 e1       	ldi	r24, 0x10	; 16
    2eea:	0e 94 87 15 	call	0x2b0e	; 0x2b0e <ILI9486_Write8>
    2eee:	85 b3       	in	r24, 0x15	; 21
    2ef0:	80 62       	ori	r24, 0x20	; 32
    2ef2:	85 bb       	out	0x15, r24	; 21
    2ef4:	80 e0       	ldi	r24, 0x00	; 0
    2ef6:	0e 94 87 15 	call	0x2b0e	; 0x2b0e <ILI9486_Write8>
    2efa:	85 b3       	in	r24, 0x15	; 21
    2efc:	80 64       	ori	r24, 0x40	; 64
    2efe:	85 bb       	out	0x15, r24	; 21
    2f00:	85 b3       	in	r24, 0x15	; 21
    2f02:	8f 7b       	andi	r24, 0xBF	; 191
    2f04:	85 bb       	out	0x15, r24	; 21
    2f06:	85 b3       	in	r24, 0x15	; 21
    2f08:	8f 7d       	andi	r24, 0xDF	; 223
    2f0a:	85 bb       	out	0x15, r24	; 21
    2f0c:	81 ee       	ldi	r24, 0xE1	; 225
    2f0e:	0e 94 87 15 	call	0x2b0e	; 0x2b0e <ILI9486_Write8>
    2f12:	85 b3       	in	r24, 0x15	; 21
    2f14:	80 62       	ori	r24, 0x20	; 32
    2f16:	85 bb       	out	0x15, r24	; 21
    2f18:	8f e0       	ldi	r24, 0x0F	; 15
    2f1a:	0e 94 87 15 	call	0x2b0e	; 0x2b0e <ILI9486_Write8>
    2f1e:	85 b3       	in	r24, 0x15	; 21
    2f20:	80 62       	ori	r24, 0x20	; 32
    2f22:	85 bb       	out	0x15, r24	; 21
    2f24:	8f e2       	ldi	r24, 0x2F	; 47
    2f26:	0e 94 87 15 	call	0x2b0e	; 0x2b0e <ILI9486_Write8>
    2f2a:	85 b3       	in	r24, 0x15	; 21
    2f2c:	80 62       	ori	r24, 0x20	; 32
    2f2e:	85 bb       	out	0x15, r24	; 21
    2f30:	8b e2       	ldi	r24, 0x2B	; 43
    2f32:	0e 94 87 15 	call	0x2b0e	; 0x2b0e <ILI9486_Write8>
    2f36:	85 b3       	in	r24, 0x15	; 21
    2f38:	80 62       	ori	r24, 0x20	; 32
    2f3a:	85 bb       	out	0x15, r24	; 21
    2f3c:	8c e0       	ldi	r24, 0x0C	; 12
    2f3e:	0e 94 87 15 	call	0x2b0e	; 0x2b0e <ILI9486_Write8>
    2f42:	85 b3       	in	r24, 0x15	; 21
    2f44:	80 62       	ori	r24, 0x20	; 32
    2f46:	85 bb       	out	0x15, r24	; 21
    2f48:	8e e0       	ldi	r24, 0x0E	; 14
    2f4a:	0e 94 87 15 	call	0x2b0e	; 0x2b0e <ILI9486_Write8>
    2f4e:	85 b3       	in	r24, 0x15	; 21
    2f50:	80 62       	ori	r24, 0x20	; 32
    2f52:	85 bb       	out	0x15, r24	; 21
    2f54:	86 e0       	ldi	r24, 0x06	; 6
    2f56:	0e 94 87 15 	call	0x2b0e	; 0x2b0e <ILI9486_Write8>
    2f5a:	85 b3       	in	r24, 0x15	; 21
    2f5c:	80 62       	ori	r24, 0x20	; 32
    2f5e:	85 bb       	out	0x15, r24	; 21
    2f60:	87 e4       	ldi	r24, 0x47	; 71
    2f62:	0e 94 87 15 	call	0x2b0e	; 0x2b0e <ILI9486_Write8>
    2f66:	85 b3       	in	r24, 0x15	; 21
    2f68:	80 62       	ori	r24, 0x20	; 32
    2f6a:	85 bb       	out	0x15, r24	; 21
    2f6c:	86 e7       	ldi	r24, 0x76	; 118
    2f6e:	0e 94 87 15 	call	0x2b0e	; 0x2b0e <ILI9486_Write8>
    2f72:	85 b3       	in	r24, 0x15	; 21
    2f74:	80 62       	ori	r24, 0x20	; 32
    2f76:	85 bb       	out	0x15, r24	; 21
    2f78:	87 e3       	ldi	r24, 0x37	; 55
    2f7a:	0e 94 87 15 	call	0x2b0e	; 0x2b0e <ILI9486_Write8>
    2f7e:	85 b3       	in	r24, 0x15	; 21
    2f80:	80 62       	ori	r24, 0x20	; 32
    2f82:	85 bb       	out	0x15, r24	; 21
    2f84:	87 e0       	ldi	r24, 0x07	; 7
    2f86:	0e 94 87 15 	call	0x2b0e	; 0x2b0e <ILI9486_Write8>
    2f8a:	85 b3       	in	r24, 0x15	; 21
    2f8c:	80 62       	ori	r24, 0x20	; 32
    2f8e:	85 bb       	out	0x15, r24	; 21
    2f90:	81 e1       	ldi	r24, 0x11	; 17
    2f92:	0e 94 87 15 	call	0x2b0e	; 0x2b0e <ILI9486_Write8>
    2f96:	85 b3       	in	r24, 0x15	; 21
    2f98:	80 62       	ori	r24, 0x20	; 32
    2f9a:	85 bb       	out	0x15, r24	; 21
    2f9c:	84 e0       	ldi	r24, 0x04	; 4
    2f9e:	0e 94 87 15 	call	0x2b0e	; 0x2b0e <ILI9486_Write8>
    2fa2:	85 b3       	in	r24, 0x15	; 21
    2fa4:	80 62       	ori	r24, 0x20	; 32
    2fa6:	85 bb       	out	0x15, r24	; 21
    2fa8:	83 e2       	ldi	r24, 0x23	; 35
    2faa:	0e 94 87 15 	call	0x2b0e	; 0x2b0e <ILI9486_Write8>
    2fae:	85 b3       	in	r24, 0x15	; 21
    2fb0:	80 62       	ori	r24, 0x20	; 32
    2fb2:	85 bb       	out	0x15, r24	; 21
    2fb4:	8e e1       	ldi	r24, 0x1E	; 30
    2fb6:	0e 94 87 15 	call	0x2b0e	; 0x2b0e <ILI9486_Write8>
    2fba:	85 b3       	in	r24, 0x15	; 21
    2fbc:	80 62       	ori	r24, 0x20	; 32
    2fbe:	85 bb       	out	0x15, r24	; 21
    2fc0:	80 e0       	ldi	r24, 0x00	; 0
    2fc2:	0e 94 87 15 	call	0x2b0e	; 0x2b0e <ILI9486_Write8>
    2fc6:	85 b3       	in	r24, 0x15	; 21
    2fc8:	80 64       	ori	r24, 0x40	; 64
    2fca:	85 bb       	out	0x15, r24	; 21
    2fcc:	85 b3       	in	r24, 0x15	; 21
    2fce:	8f 7b       	andi	r24, 0xBF	; 191
    2fd0:	85 bb       	out	0x15, r24	; 21
    2fd2:	85 b3       	in	r24, 0x15	; 21
    2fd4:	8f 7d       	andi	r24, 0xDF	; 223
    2fd6:	85 bb       	out	0x15, r24	; 21
    2fd8:	81 e1       	ldi	r24, 0x11	; 17
    2fda:	0e 94 87 15 	call	0x2b0e	; 0x2b0e <ILI9486_Write8>
    2fde:	85 b3       	in	r24, 0x15	; 21
    2fe0:	80 64       	ori	r24, 0x40	; 64
    2fe2:	85 bb       	out	0x15, r24	; 21
    2fe4:	2f ef       	ldi	r18, 0xFF	; 255
    2fe6:	82 e5       	ldi	r24, 0x52	; 82
    2fe8:	97 e0       	ldi	r25, 0x07	; 7
    2fea:	21 50       	subi	r18, 0x01	; 1
    2fec:	80 40       	sbci	r24, 0x00	; 0
    2fee:	90 40       	sbci	r25, 0x00	; 0
    2ff0:	e1 f7       	brne	.-8      	; 0x2fea <ILI9486_ini+0x362>
    2ff2:	00 c0       	rjmp	.+0      	; 0x2ff4 <ILI9486_ini+0x36c>
    2ff4:	00 00       	nop
    2ff6:	a8 95       	wdr
    2ff8:	85 b3       	in	r24, 0x15	; 21
    2ffa:	8f 7b       	andi	r24, 0xBF	; 191
    2ffc:	85 bb       	out	0x15, r24	; 21
    2ffe:	85 b3       	in	r24, 0x15	; 21
    3000:	8f 7d       	andi	r24, 0xDF	; 223
    3002:	85 bb       	out	0x15, r24	; 21
    3004:	89 e2       	ldi	r24, 0x29	; 41
    3006:	0e 94 87 15 	call	0x2b0e	; 0x2b0e <ILI9486_Write8>
    300a:	85 b3       	in	r24, 0x15	; 21
    300c:	80 64       	ori	r24, 0x40	; 64
    300e:	85 bb       	out	0x15, r24	; 21
    3010:	80 e0       	ldi	r24, 0x00	; 0
    3012:	0e 94 ef 15 	call	0x2bde	; 0x2bde <ILI9486_SetRotation>
    3016:	08 95       	ret

00003018 <ILI9486_SetAddrWindow>:
    3018:	cf 92       	push	r12
    301a:	df 92       	push	r13
    301c:	ef 92       	push	r14
    301e:	ff 92       	push	r15
    3020:	0f 93       	push	r16
    3022:	1f 93       	push	r17
    3024:	cf 93       	push	r28
    3026:	df 93       	push	r29
    3028:	d8 2e       	mov	r13, r24
    302a:	c9 2e       	mov	r12, r25
    302c:	16 2f       	mov	r17, r22
    302e:	07 2f       	mov	r16, r23
    3030:	f4 2e       	mov	r15, r20
    3032:	e5 2e       	mov	r14, r21
    3034:	c2 2f       	mov	r28, r18
    3036:	d3 2f       	mov	r29, r19
    3038:	85 b3       	in	r24, 0x15	; 21
    303a:	8f 7b       	andi	r24, 0xBF	; 191
    303c:	85 bb       	out	0x15, r24	; 21
    303e:	85 b3       	in	r24, 0x15	; 21
    3040:	8f 7d       	andi	r24, 0xDF	; 223
    3042:	85 bb       	out	0x15, r24	; 21
    3044:	8a e2       	ldi	r24, 0x2A	; 42
    3046:	0e 94 87 15 	call	0x2b0e	; 0x2b0e <ILI9486_Write8>
    304a:	85 b3       	in	r24, 0x15	; 21
    304c:	80 62       	ori	r24, 0x20	; 32
    304e:	85 bb       	out	0x15, r24	; 21
    3050:	8c 2d       	mov	r24, r12
    3052:	0e 94 87 15 	call	0x2b0e	; 0x2b0e <ILI9486_Write8>
    3056:	85 b3       	in	r24, 0x15	; 21
    3058:	80 62       	ori	r24, 0x20	; 32
    305a:	85 bb       	out	0x15, r24	; 21
    305c:	8d 2d       	mov	r24, r13
    305e:	0e 94 87 15 	call	0x2b0e	; 0x2b0e <ILI9486_Write8>
    3062:	85 b3       	in	r24, 0x15	; 21
    3064:	80 62       	ori	r24, 0x20	; 32
    3066:	85 bb       	out	0x15, r24	; 21
    3068:	8e 2d       	mov	r24, r14
    306a:	0e 94 87 15 	call	0x2b0e	; 0x2b0e <ILI9486_Write8>
    306e:	85 b3       	in	r24, 0x15	; 21
    3070:	80 62       	ori	r24, 0x20	; 32
    3072:	85 bb       	out	0x15, r24	; 21
    3074:	8f 2d       	mov	r24, r15
    3076:	0e 94 87 15 	call	0x2b0e	; 0x2b0e <ILI9486_Write8>
    307a:	85 b3       	in	r24, 0x15	; 21
    307c:	80 64       	ori	r24, 0x40	; 64
    307e:	85 bb       	out	0x15, r24	; 21
    3080:	85 b3       	in	r24, 0x15	; 21
    3082:	8f 7b       	andi	r24, 0xBF	; 191
    3084:	85 bb       	out	0x15, r24	; 21
    3086:	85 b3       	in	r24, 0x15	; 21
    3088:	8f 7d       	andi	r24, 0xDF	; 223
    308a:	85 bb       	out	0x15, r24	; 21
    308c:	8b e2       	ldi	r24, 0x2B	; 43
    308e:	0e 94 87 15 	call	0x2b0e	; 0x2b0e <ILI9486_Write8>
    3092:	85 b3       	in	r24, 0x15	; 21
    3094:	80 62       	ori	r24, 0x20	; 32
    3096:	85 bb       	out	0x15, r24	; 21
    3098:	80 2f       	mov	r24, r16
    309a:	0e 94 87 15 	call	0x2b0e	; 0x2b0e <ILI9486_Write8>
    309e:	85 b3       	in	r24, 0x15	; 21
    30a0:	80 62       	ori	r24, 0x20	; 32
    30a2:	85 bb       	out	0x15, r24	; 21
    30a4:	81 2f       	mov	r24, r17
    30a6:	0e 94 87 15 	call	0x2b0e	; 0x2b0e <ILI9486_Write8>
    30aa:	85 b3       	in	r24, 0x15	; 21
    30ac:	80 62       	ori	r24, 0x20	; 32
    30ae:	85 bb       	out	0x15, r24	; 21
    30b0:	8d 2f       	mov	r24, r29
    30b2:	0e 94 87 15 	call	0x2b0e	; 0x2b0e <ILI9486_Write8>
    30b6:	85 b3       	in	r24, 0x15	; 21
    30b8:	80 62       	ori	r24, 0x20	; 32
    30ba:	85 bb       	out	0x15, r24	; 21
    30bc:	8c 2f       	mov	r24, r28
    30be:	0e 94 87 15 	call	0x2b0e	; 0x2b0e <ILI9486_Write8>
    30c2:	85 b3       	in	r24, 0x15	; 21
    30c4:	80 64       	ori	r24, 0x40	; 64
    30c6:	85 bb       	out	0x15, r24	; 21
    30c8:	df 91       	pop	r29
    30ca:	cf 91       	pop	r28
    30cc:	1f 91       	pop	r17
    30ce:	0f 91       	pop	r16
    30d0:	ff 90       	pop	r15
    30d2:	ef 90       	pop	r14
    30d4:	df 90       	pop	r13
    30d6:	cf 90       	pop	r12
    30d8:	08 95       	ret

000030da <ILI9486_drawPixel>:
    30da:	cf 93       	push	r28
    30dc:	df 93       	push	r29
    30de:	ea 01       	movw	r28, r20
    30e0:	9b 01       	movw	r18, r22
    30e2:	ac 01       	movw	r20, r24
    30e4:	0e 94 0c 18 	call	0x3018	; 0x3018 <ILI9486_SetAddrWindow>
    30e8:	be 01       	movw	r22, r28
    30ea:	8c e2       	ldi	r24, 0x2C	; 44
    30ec:	90 e0       	ldi	r25, 0x00	; 0
    30ee:	0e 94 a8 15 	call	0x2b50	; 0x2b50 <ILI9486_Write_Cmd_Data>
    30f2:	df 91       	pop	r29
    30f4:	cf 91       	pop	r28
    30f6:	08 95       	ret

000030f8 <ILI9486_FillScreen>:
    30f8:	ef 92       	push	r14
    30fa:	ff 92       	push	r15
    30fc:	0f 93       	push	r16
    30fe:	1f 93       	push	r17
    3100:	cf 93       	push	r28
    3102:	df 93       	push	r29
    3104:	e8 2e       	mov	r14, r24
    3106:	f9 2e       	mov	r15, r25
    3108:	20 91 50 02 	lds	r18, 0x0250	; 0x800250 <__data_end>
    310c:	30 91 51 02 	lds	r19, 0x0251	; 0x800251 <__data_end+0x1>
    3110:	21 50       	subi	r18, 0x01	; 1
    3112:	31 09       	sbc	r19, r1
    3114:	40 91 52 02 	lds	r20, 0x0252	; 0x800252 <X_SIZE>
    3118:	50 91 53 02 	lds	r21, 0x0253	; 0x800253 <X_SIZE+0x1>
    311c:	41 50       	subi	r20, 0x01	; 1
    311e:	51 09       	sbc	r21, r1
    3120:	60 e0       	ldi	r22, 0x00	; 0
    3122:	70 e0       	ldi	r23, 0x00	; 0
    3124:	80 e0       	ldi	r24, 0x00	; 0
    3126:	90 e0       	ldi	r25, 0x00	; 0
    3128:	0e 94 0c 18 	call	0x3018	; 0x3018 <ILI9486_SetAddrWindow>
    312c:	85 b3       	in	r24, 0x15	; 21
    312e:	8f 7b       	andi	r24, 0xBF	; 191
    3130:	85 bb       	out	0x15, r24	; 21
    3132:	85 b3       	in	r24, 0x15	; 21
    3134:	8f 7d       	andi	r24, 0xDF	; 223
    3136:	85 bb       	out	0x15, r24	; 21
    3138:	8c e2       	ldi	r24, 0x2C	; 44
    313a:	0e 94 87 15 	call	0x2b0e	; 0x2b0e <ILI9486_Write8>
    313e:	85 b3       	in	r24, 0x15	; 21
    3140:	80 62       	ori	r24, 0x20	; 32
    3142:	85 bb       	out	0x15, r24	; 21
    3144:	00 e0       	ldi	r16, 0x00	; 0
    3146:	10 e0       	ldi	r17, 0x00	; 0
    3148:	19 c0       	rjmp	.+50     	; 0x317c <ILI9486_FillScreen+0x84>
    314a:	85 b3       	in	r24, 0x15	; 21
    314c:	80 62       	ori	r24, 0x20	; 32
    314e:	85 bb       	out	0x15, r24	; 21
    3150:	8f 2d       	mov	r24, r15
    3152:	0e 94 87 15 	call	0x2b0e	; 0x2b0e <ILI9486_Write8>
    3156:	85 b3       	in	r24, 0x15	; 21
    3158:	80 62       	ori	r24, 0x20	; 32
    315a:	85 bb       	out	0x15, r24	; 21
    315c:	8e 2d       	mov	r24, r14
    315e:	0e 94 87 15 	call	0x2b0e	; 0x2b0e <ILI9486_Write8>
    3162:	21 96       	adiw	r28, 0x01	; 1
    3164:	02 c0       	rjmp	.+4      	; 0x316a <ILI9486_FillScreen+0x72>
    3166:	c0 e0       	ldi	r28, 0x00	; 0
    3168:	d0 e0       	ldi	r29, 0x00	; 0
    316a:	80 91 50 02 	lds	r24, 0x0250	; 0x800250 <__data_end>
    316e:	90 91 51 02 	lds	r25, 0x0251	; 0x800251 <__data_end+0x1>
    3172:	c8 17       	cp	r28, r24
    3174:	d9 07       	cpc	r29, r25
    3176:	48 f3       	brcs	.-46     	; 0x314a <ILI9486_FillScreen+0x52>
    3178:	0f 5f       	subi	r16, 0xFF	; 255
    317a:	1f 4f       	sbci	r17, 0xFF	; 255
    317c:	80 91 52 02 	lds	r24, 0x0252	; 0x800252 <X_SIZE>
    3180:	90 91 53 02 	lds	r25, 0x0253	; 0x800253 <X_SIZE+0x1>
    3184:	08 17       	cp	r16, r24
    3186:	19 07       	cpc	r17, r25
    3188:	70 f3       	brcs	.-36     	; 0x3166 <ILI9486_FillScreen+0x6e>
    318a:	85 b3       	in	r24, 0x15	; 21
    318c:	80 64       	ori	r24, 0x40	; 64
    318e:	85 bb       	out	0x15, r24	; 21
    3190:	df 91       	pop	r29
    3192:	cf 91       	pop	r28
    3194:	1f 91       	pop	r17
    3196:	0f 91       	pop	r16
    3198:	ff 90       	pop	r15
    319a:	ef 90       	pop	r14
    319c:	08 95       	ret

0000319e <ILI9486_fillRect>:
    319e:	cf 92       	push	r12
    31a0:	df 92       	push	r13
    31a2:	ef 92       	push	r14
    31a4:	ff 92       	push	r15
    31a6:	0f 93       	push	r16
    31a8:	1f 93       	push	r17
    31aa:	cf 93       	push	r28
    31ac:	df 93       	push	r29
    31ae:	fc 01       	movw	r30, r24
    31b0:	e4 0f       	add	r30, r20
    31b2:	f5 1f       	adc	r31, r21
    31b4:	40 91 52 02 	lds	r20, 0x0252	; 0x800252 <X_SIZE>
    31b8:	50 91 53 02 	lds	r21, 0x0253	; 0x800253 <X_SIZE+0x1>
    31bc:	4e 17       	cp	r20, r30
    31be:	5f 07       	cpc	r21, r31
    31c0:	08 f0       	brcs	.+2      	; 0x31c4 <ILI9486_fillRect+0x26>
    31c2:	af 01       	movw	r20, r30
    31c4:	6a 01       	movw	r12, r20
    31c6:	c8 1a       	sub	r12, r24
    31c8:	d9 0a       	sbc	r13, r25
    31ca:	fb 01       	movw	r30, r22
    31cc:	e2 0f       	add	r30, r18
    31ce:	f3 1f       	adc	r31, r19
    31d0:	20 91 50 02 	lds	r18, 0x0250	; 0x800250 <__data_end>
    31d4:	30 91 51 02 	lds	r19, 0x0251	; 0x800251 <__data_end+0x1>
    31d8:	2e 17       	cp	r18, r30
    31da:	3f 07       	cpc	r19, r31
    31dc:	08 f0       	brcs	.+2      	; 0x31e0 <ILI9486_fillRect+0x42>
    31de:	9f 01       	movw	r18, r30
    31e0:	e9 01       	movw	r28, r18
    31e2:	c6 1b       	sub	r28, r22
    31e4:	d7 0b       	sbc	r29, r23
    31e6:	21 50       	subi	r18, 0x01	; 1
    31e8:	31 09       	sbc	r19, r1
    31ea:	41 50       	subi	r20, 0x01	; 1
    31ec:	51 09       	sbc	r21, r1
    31ee:	0e 94 0c 18 	call	0x3018	; 0x3018 <ILI9486_SetAddrWindow>
    31f2:	85 b3       	in	r24, 0x15	; 21
    31f4:	8f 7b       	andi	r24, 0xBF	; 191
    31f6:	85 bb       	out	0x15, r24	; 21
    31f8:	85 b3       	in	r24, 0x15	; 21
    31fa:	8f 7d       	andi	r24, 0xDF	; 223
    31fc:	85 bb       	out	0x15, r24	; 21
    31fe:	8c e2       	ldi	r24, 0x2C	; 44
    3200:	0e 94 87 15 	call	0x2b0e	; 0x2b0e <ILI9486_Write8>
    3204:	85 b3       	in	r24, 0x15	; 21
    3206:	80 62       	ori	r24, 0x20	; 32
    3208:	85 bb       	out	0x15, r24	; 21
    320a:	cc 16       	cp	r12, r28
    320c:	dd 06       	cpc	r13, r29
    320e:	90 f0       	brcs	.+36     	; 0x3234 <ILI9486_fillRect+0x96>
    3210:	16 c0       	rjmp	.+44     	; 0x323e <ILI9486_fillRect+0xa0>
    3212:	e6 01       	movw	r28, r12
    3214:	85 b3       	in	r24, 0x15	; 21
    3216:	80 62       	ori	r24, 0x20	; 32
    3218:	85 bb       	out	0x15, r24	; 21
    321a:	81 2f       	mov	r24, r17
    321c:	0e 94 87 15 	call	0x2b0e	; 0x2b0e <ILI9486_Write8>
    3220:	85 b3       	in	r24, 0x15	; 21
    3222:	80 62       	ori	r24, 0x20	; 32
    3224:	85 bb       	out	0x15, r24	; 21
    3226:	80 2f       	mov	r24, r16
    3228:	0e 94 87 15 	call	0x2b0e	; 0x2b0e <ILI9486_Write8>
    322c:	21 97       	sbiw	r28, 0x01	; 1
    322e:	91 f7       	brne	.-28     	; 0x3214 <ILI9486_fillRect+0x76>
    3230:	e7 01       	movw	r28, r14
    3232:	05 c0       	rjmp	.+10     	; 0x323e <ILI9486_fillRect+0xa0>
    3234:	9c 2d       	mov	r25, r12
    3236:	8d 2d       	mov	r24, r13
    3238:	6e 01       	movw	r12, r28
    323a:	c9 2f       	mov	r28, r25
    323c:	d8 2f       	mov	r29, r24
    323e:	7e 01       	movw	r14, r28
    3240:	81 e0       	ldi	r24, 0x01	; 1
    3242:	e8 1a       	sub	r14, r24
    3244:	f1 08       	sbc	r15, r1
    3246:	cd 2b       	or	r28, r29
    3248:	21 f7       	brne	.-56     	; 0x3212 <ILI9486_fillRect+0x74>
    324a:	85 b3       	in	r24, 0x15	; 21
    324c:	80 64       	ori	r24, 0x40	; 64
    324e:	85 bb       	out	0x15, r24	; 21
    3250:	df 91       	pop	r29
    3252:	cf 91       	pop	r28
    3254:	1f 91       	pop	r17
    3256:	0f 91       	pop	r16
    3258:	ff 90       	pop	r15
    325a:	ef 90       	pop	r14
    325c:	df 90       	pop	r13
    325e:	cf 90       	pop	r12
    3260:	08 95       	ret

00003262 <ILI9486_DrawFastVLine>:
    3262:	0f 93       	push	r16
    3264:	1f 93       	push	r17
    3266:	e0 91 52 02 	lds	r30, 0x0252	; 0x800252 <X_SIZE>
    326a:	f0 91 53 02 	lds	r31, 0x0253	; 0x800253 <X_SIZE+0x1>
    326e:	8e 17       	cp	r24, r30
    3270:	9f 07       	cpc	r25, r31
    3272:	d0 f4       	brcc	.+52     	; 0x32a8 <ILI9486_DrawFastVLine+0x46>
    3274:	e0 91 50 02 	lds	r30, 0x0250	; 0x800250 <__data_end>
    3278:	f0 91 51 02 	lds	r31, 0x0251	; 0x800251 <__data_end+0x1>
    327c:	6e 17       	cp	r22, r30
    327e:	7f 07       	cpc	r23, r31
    3280:	98 f4       	brcc	.+38     	; 0x32a8 <ILI9486_DrawFastVLine+0x46>
    3282:	41 15       	cp	r20, r1
    3284:	51 05       	cpc	r21, r1
    3286:	81 f0       	breq	.+32     	; 0x32a8 <ILI9486_DrawFastVLine+0x46>
    3288:	db 01       	movw	r26, r22
    328a:	a4 0f       	add	r26, r20
    328c:	b5 1f       	adc	r27, r21
    328e:	11 97       	sbiw	r26, 0x01	; 1
    3290:	ae 17       	cp	r26, r30
    3292:	bf 07       	cpc	r27, r31
    3294:	18 f0       	brcs	.+6      	; 0x329c <ILI9486_DrawFastVLine+0x3a>
    3296:	af 01       	movw	r20, r30
    3298:	46 1b       	sub	r20, r22
    329a:	57 0b       	sbc	r21, r23
    329c:	89 01       	movw	r16, r18
    329e:	9a 01       	movw	r18, r20
    32a0:	41 e0       	ldi	r20, 0x01	; 1
    32a2:	50 e0       	ldi	r21, 0x00	; 0
    32a4:	0e 94 cf 18 	call	0x319e	; 0x319e <ILI9486_fillRect>
    32a8:	1f 91       	pop	r17
    32aa:	0f 91       	pop	r16
    32ac:	08 95       	ret

000032ae <ILI9486_DrawFastHLine>:
    32ae:	0f 93       	push	r16
    32b0:	1f 93       	push	r17
    32b2:	e0 91 52 02 	lds	r30, 0x0252	; 0x800252 <X_SIZE>
    32b6:	f0 91 53 02 	lds	r31, 0x0253	; 0x800253 <X_SIZE+0x1>
    32ba:	8e 17       	cp	r24, r30
    32bc:	9f 07       	cpc	r25, r31
    32be:	c8 f4       	brcc	.+50     	; 0x32f2 <ILI9486_DrawFastHLine+0x44>
    32c0:	a0 91 50 02 	lds	r26, 0x0250	; 0x800250 <__data_end>
    32c4:	b0 91 51 02 	lds	r27, 0x0251	; 0x800251 <__data_end+0x1>
    32c8:	6a 17       	cp	r22, r26
    32ca:	7b 07       	cpc	r23, r27
    32cc:	90 f4       	brcc	.+36     	; 0x32f2 <ILI9486_DrawFastHLine+0x44>
    32ce:	41 15       	cp	r20, r1
    32d0:	51 05       	cpc	r21, r1
    32d2:	79 f0       	breq	.+30     	; 0x32f2 <ILI9486_DrawFastHLine+0x44>
    32d4:	dc 01       	movw	r26, r24
    32d6:	a4 0f       	add	r26, r20
    32d8:	b5 1f       	adc	r27, r21
    32da:	11 97       	sbiw	r26, 0x01	; 1
    32dc:	ae 17       	cp	r26, r30
    32de:	bf 07       	cpc	r27, r31
    32e0:	18 f0       	brcs	.+6      	; 0x32e8 <ILI9486_DrawFastHLine+0x3a>
    32e2:	af 01       	movw	r20, r30
    32e4:	48 1b       	sub	r20, r24
    32e6:	59 0b       	sbc	r21, r25
    32e8:	89 01       	movw	r16, r18
    32ea:	21 e0       	ldi	r18, 0x01	; 1
    32ec:	30 e0       	ldi	r19, 0x00	; 0
    32ee:	0e 94 cf 18 	call	0x319e	; 0x319e <ILI9486_fillRect>
    32f2:	1f 91       	pop	r17
    32f4:	0f 91       	pop	r16
    32f6:	08 95       	ret

000032f8 <ILI9486_writeLine>:
    32f8:	2f 92       	push	r2
    32fa:	3f 92       	push	r3
    32fc:	4f 92       	push	r4
    32fe:	5f 92       	push	r5
    3300:	6f 92       	push	r6
    3302:	7f 92       	push	r7
    3304:	8f 92       	push	r8
    3306:	9f 92       	push	r9
    3308:	af 92       	push	r10
    330a:	bf 92       	push	r11
    330c:	cf 92       	push	r12
    330e:	df 92       	push	r13
    3310:	ef 92       	push	r14
    3312:	ff 92       	push	r15
    3314:	0f 93       	push	r16
    3316:	1f 93       	push	r17
    3318:	cf 93       	push	r28
    331a:	df 93       	push	r29
    331c:	00 d0       	rcall	.+0      	; 0x331e <ILI9486_writeLine+0x26>
    331e:	00 d0       	rcall	.+0      	; 0x3320 <ILI9486_writeLine+0x28>
    3320:	cd b7       	in	r28, 0x3d	; 61
    3322:	de b7       	in	r29, 0x3e	; 62
    3324:	9c 83       	std	Y+4, r25	; 0x04
    3326:	8b 83       	std	Y+3, r24	; 0x03
    3328:	7b 01       	movw	r14, r22
    332a:	6a 01       	movw	r12, r20
    332c:	1a 83       	std	Y+2, r17	; 0x02
    332e:	09 83       	std	Y+1, r16	; 0x01
    3330:	c9 01       	movw	r24, r18
    3332:	86 1b       	sub	r24, r22
    3334:	97 0b       	sbc	r25, r23
    3336:	8c 01       	movw	r16, r24
    3338:	22 f4       	brpl	.+8      	; 0x3342 <ILI9486_writeLine+0x4a>
    333a:	00 27       	eor	r16, r16
    333c:	11 27       	eor	r17, r17
    333e:	08 1b       	sub	r16, r24
    3340:	19 0b       	sbc	r17, r25
    3342:	c6 01       	movw	r24, r12
    3344:	4b 81       	ldd	r20, Y+3	; 0x03
    3346:	5c 81       	ldd	r21, Y+4	; 0x04
    3348:	84 1b       	sub	r24, r20
    334a:	95 0b       	sbc	r25, r21
    334c:	5c 01       	movw	r10, r24
    334e:	22 f4       	brpl	.+8      	; 0x3358 <ILI9486_writeLine+0x60>
    3350:	aa 24       	eor	r10, r10
    3352:	bb 24       	eor	r11, r11
    3354:	a8 1a       	sub	r10, r24
    3356:	b9 0a       	sbc	r11, r25
    3358:	a0 16       	cp	r10, r16
    335a:	b1 06       	cpc	r11, r17
    335c:	5c f4       	brge	.+22     	; 0x3374 <ILI9486_writeLine+0x7c>
    335e:	9c 2d       	mov	r25, r12
    3360:	8d 2d       	mov	r24, r13
    3362:	69 01       	movw	r12, r18
    3364:	29 2f       	mov	r18, r25
    3366:	38 2f       	mov	r19, r24
    3368:	9b 81       	ldd	r25, Y+3	; 0x03
    336a:	8c 81       	ldd	r24, Y+4	; 0x04
    336c:	fc 82       	std	Y+4, r15	; 0x04
    336e:	eb 82       	std	Y+3, r14	; 0x03
    3370:	e9 2e       	mov	r14, r25
    3372:	f8 2e       	mov	r15, r24
    3374:	8b 81       	ldd	r24, Y+3	; 0x03
    3376:	9c 81       	ldd	r25, Y+4	; 0x04
    3378:	c8 16       	cp	r12, r24
    337a:	d9 06       	cpc	r13, r25
    337c:	5c f4       	brge	.+22     	; 0x3394 <ILI9486_writeLine+0x9c>
    337e:	9e 2d       	mov	r25, r14
    3380:	8f 2d       	mov	r24, r15
    3382:	79 01       	movw	r14, r18
    3384:	29 2f       	mov	r18, r25
    3386:	38 2f       	mov	r19, r24
    3388:	9b 81       	ldd	r25, Y+3	; 0x03
    338a:	8c 81       	ldd	r24, Y+4	; 0x04
    338c:	dc 82       	std	Y+4, r13	; 0x04
    338e:	cb 82       	std	Y+3, r12	; 0x03
    3390:	c9 2e       	mov	r12, r25
    3392:	d8 2e       	mov	r13, r24
    3394:	16 01       	movw	r2, r12
    3396:	4b 81       	ldd	r20, Y+3	; 0x03
    3398:	5c 81       	ldd	r21, Y+4	; 0x04
    339a:	24 1a       	sub	r2, r20
    339c:	35 0a       	sbc	r3, r21
    339e:	c9 01       	movw	r24, r18
    33a0:	8e 19       	sub	r24, r14
    33a2:	9f 09       	sbc	r25, r15
    33a4:	3c 01       	movw	r6, r24
    33a6:	22 f4       	brpl	.+8      	; 0x33b0 <ILI9486_writeLine+0xb8>
    33a8:	66 24       	eor	r6, r6
    33aa:	77 24       	eor	r7, r7
    33ac:	68 1a       	sub	r6, r24
    33ae:	79 0a       	sbc	r7, r25
    33b0:	41 01       	movw	r8, r2
    33b2:	33 20       	and	r3, r3
    33b4:	1c f4       	brge	.+6      	; 0x33bc <ILI9486_writeLine+0xc4>
    33b6:	5f ef       	ldi	r21, 0xFF	; 255
    33b8:	85 1a       	sub	r8, r21
    33ba:	95 0a       	sbc	r9, r21
    33bc:	95 94       	asr	r9
    33be:	87 94       	ror	r8
    33c0:	e2 16       	cp	r14, r18
    33c2:	f3 06       	cpc	r15, r19
    33c4:	24 f4       	brge	.+8      	; 0x33ce <ILI9486_writeLine+0xd6>
    33c6:	44 24       	eor	r4, r4
    33c8:	43 94       	inc	r4
    33ca:	51 2c       	mov	r5, r1
    33cc:	22 c0       	rjmp	.+68     	; 0x3412 <ILI9486_writeLine+0x11a>
    33ce:	44 24       	eor	r4, r4
    33d0:	4a 94       	dec	r4
    33d2:	54 2c       	mov	r5, r4
    33d4:	1e c0       	rjmp	.+60     	; 0x3412 <ILI9486_writeLine+0x11a>
    33d6:	a0 16       	cp	r10, r16
    33d8:	b1 06       	cpc	r11, r17
    33da:	44 f4       	brge	.+16     	; 0x33ec <ILI9486_writeLine+0xf4>
    33dc:	49 81       	ldd	r20, Y+1	; 0x01
    33de:	5a 81       	ldd	r21, Y+2	; 0x02
    33e0:	6b 81       	ldd	r22, Y+3	; 0x03
    33e2:	7c 81       	ldd	r23, Y+4	; 0x04
    33e4:	c7 01       	movw	r24, r14
    33e6:	0e 94 6d 18 	call	0x30da	; 0x30da <ILI9486_drawPixel>
    33ea:	07 c0       	rjmp	.+14     	; 0x33fa <ILI9486_writeLine+0x102>
    33ec:	49 81       	ldd	r20, Y+1	; 0x01
    33ee:	5a 81       	ldd	r21, Y+2	; 0x02
    33f0:	b7 01       	movw	r22, r14
    33f2:	8b 81       	ldd	r24, Y+3	; 0x03
    33f4:	9c 81       	ldd	r25, Y+4	; 0x04
    33f6:	0e 94 6d 18 	call	0x30da	; 0x30da <ILI9486_drawPixel>
    33fa:	86 18       	sub	r8, r6
    33fc:	97 08       	sbc	r9, r7
    33fe:	22 f4       	brpl	.+8      	; 0x3408 <ILI9486_writeLine+0x110>
    3400:	e4 0c       	add	r14, r4
    3402:	f5 1c       	adc	r15, r5
    3404:	82 0c       	add	r8, r2
    3406:	93 1c       	adc	r9, r3
    3408:	8b 81       	ldd	r24, Y+3	; 0x03
    340a:	9c 81       	ldd	r25, Y+4	; 0x04
    340c:	01 96       	adiw	r24, 0x01	; 1
    340e:	9c 83       	std	Y+4, r25	; 0x04
    3410:	8b 83       	std	Y+3, r24	; 0x03
    3412:	4b 81       	ldd	r20, Y+3	; 0x03
    3414:	5c 81       	ldd	r21, Y+4	; 0x04
    3416:	c4 16       	cp	r12, r20
    3418:	d5 06       	cpc	r13, r21
    341a:	ec f6       	brge	.-70     	; 0x33d6 <ILI9486_writeLine+0xde>
    341c:	0f 90       	pop	r0
    341e:	0f 90       	pop	r0
    3420:	0f 90       	pop	r0
    3422:	0f 90       	pop	r0
    3424:	df 91       	pop	r29
    3426:	cf 91       	pop	r28
    3428:	1f 91       	pop	r17
    342a:	0f 91       	pop	r16
    342c:	ff 90       	pop	r15
    342e:	ef 90       	pop	r14
    3430:	df 90       	pop	r13
    3432:	cf 90       	pop	r12
    3434:	bf 90       	pop	r11
    3436:	af 90       	pop	r10
    3438:	9f 90       	pop	r9
    343a:	8f 90       	pop	r8
    343c:	7f 90       	pop	r7
    343e:	6f 90       	pop	r6
    3440:	5f 90       	pop	r5
    3442:	4f 90       	pop	r4
    3444:	3f 90       	pop	r3
    3446:	2f 90       	pop	r2
    3448:	08 95       	ret

0000344a <ILI9486_Draw_Line>:
    344a:	0f 93       	push	r16
    344c:	1f 93       	push	r17
    344e:	84 17       	cp	r24, r20
    3450:	95 07       	cpc	r25, r21
    3452:	89 f4       	brne	.+34     	; 0x3476 <ILI9486_Draw_Line+0x2c>
    3454:	26 17       	cp	r18, r22
    3456:	37 07       	cpc	r19, r23
    3458:	2c f4       	brge	.+10     	; 0x3464 <ILI9486_Draw_Line+0x1a>
    345a:	56 2f       	mov	r21, r22
    345c:	47 2f       	mov	r20, r23
    345e:	b9 01       	movw	r22, r18
    3460:	25 2f       	mov	r18, r21
    3462:	34 2f       	mov	r19, r20
    3464:	a9 01       	movw	r20, r18
    3466:	46 1b       	sub	r20, r22
    3468:	57 0b       	sbc	r21, r23
    346a:	4f 5f       	subi	r20, 0xFF	; 255
    346c:	5f 4f       	sbci	r21, 0xFF	; 255
    346e:	98 01       	movw	r18, r16
    3470:	0e 94 31 19 	call	0x3262	; 0x3262 <ILI9486_DrawFastVLine>
    3474:	15 c0       	rjmp	.+42     	; 0x34a0 <ILI9486_Draw_Line+0x56>
    3476:	62 17       	cp	r22, r18
    3478:	73 07       	cpc	r23, r19
    347a:	81 f4       	brne	.+32     	; 0x349c <ILI9486_Draw_Line+0x52>
    347c:	48 17       	cp	r20, r24
    347e:	59 07       	cpc	r21, r25
    3480:	2c f4       	brge	.+10     	; 0x348c <ILI9486_Draw_Line+0x42>
    3482:	38 2f       	mov	r19, r24
    3484:	29 2f       	mov	r18, r25
    3486:	ca 01       	movw	r24, r20
    3488:	43 2f       	mov	r20, r19
    348a:	52 2f       	mov	r21, r18
    348c:	48 1b       	sub	r20, r24
    348e:	59 0b       	sbc	r21, r25
    3490:	4f 5f       	subi	r20, 0xFF	; 255
    3492:	5f 4f       	sbci	r21, 0xFF	; 255
    3494:	98 01       	movw	r18, r16
    3496:	0e 94 57 19 	call	0x32ae	; 0x32ae <ILI9486_DrawFastHLine>
    349a:	02 c0       	rjmp	.+4      	; 0x34a0 <ILI9486_Draw_Line+0x56>
    349c:	0e 94 7c 19 	call	0x32f8	; 0x32f8 <ILI9486_writeLine>
    34a0:	1f 91       	pop	r17
    34a2:	0f 91       	pop	r16
    34a4:	08 95       	ret

000034a6 <ILI9486_Draw_Circle>:
    34a6:	2f 92       	push	r2
    34a8:	3f 92       	push	r3
    34aa:	4f 92       	push	r4
    34ac:	5f 92       	push	r5
    34ae:	6f 92       	push	r6
    34b0:	7f 92       	push	r7
    34b2:	8f 92       	push	r8
    34b4:	9f 92       	push	r9
    34b6:	af 92       	push	r10
    34b8:	bf 92       	push	r11
    34ba:	cf 92       	push	r12
    34bc:	df 92       	push	r13
    34be:	ef 92       	push	r14
    34c0:	ff 92       	push	r15
    34c2:	0f 93       	push	r16
    34c4:	1f 93       	push	r17
    34c6:	cf 93       	push	r28
    34c8:	df 93       	push	r29
    34ca:	00 d0       	rcall	.+0      	; 0x34cc <ILI9486_Draw_Circle+0x26>
    34cc:	00 d0       	rcall	.+0      	; 0x34ce <ILI9486_Draw_Circle+0x28>
    34ce:	00 d0       	rcall	.+0      	; 0x34d0 <ILI9486_Draw_Circle+0x2a>
    34d0:	cd b7       	in	r28, 0x3d	; 61
    34d2:	de b7       	in	r29, 0x3e	; 62
    34d4:	6c 01       	movw	r12, r24
    34d6:	4b 01       	movw	r8, r22
    34d8:	5e 83       	std	Y+6, r21	; 0x06
    34da:	4d 83       	std	Y+5, r20	; 0x05
    34dc:	02 2f       	mov	r16, r18
    34de:	13 2f       	mov	r17, r19
    34e0:	81 e0       	ldi	r24, 0x01	; 1
    34e2:	90 e0       	ldi	r25, 0x00	; 0
    34e4:	7c 01       	movw	r14, r24
    34e6:	e4 1a       	sub	r14, r20
    34e8:	f5 0a       	sbc	r15, r21
    34ea:	ca 01       	movw	r24, r20
    34ec:	91 95       	neg	r25
    34ee:	81 95       	neg	r24
    34f0:	91 09       	sbc	r25, r1
    34f2:	88 0f       	add	r24, r24
    34f4:	99 1f       	adc	r25, r25
    34f6:	9c 83       	std	Y+4, r25	; 0x04
    34f8:	8b 83       	std	Y+3, r24	; 0x03
    34fa:	29 83       	std	Y+1, r18	; 0x01
    34fc:	3a 83       	std	Y+2, r19	; 0x02
    34fe:	ba 01       	movw	r22, r20
    3500:	68 0d       	add	r22, r8
    3502:	79 1d       	adc	r23, r9
    3504:	42 2f       	mov	r20, r18
    3506:	53 2f       	mov	r21, r19
    3508:	c6 01       	movw	r24, r12
    350a:	0e 94 6d 18 	call	0x30da	; 0x30da <ILI9486_drawPixel>
    350e:	b4 01       	movw	r22, r8
    3510:	2d 81       	ldd	r18, Y+5	; 0x05
    3512:	3e 81       	ldd	r19, Y+6	; 0x06
    3514:	62 1b       	sub	r22, r18
    3516:	73 0b       	sbc	r23, r19
    3518:	40 2f       	mov	r20, r16
    351a:	51 2f       	mov	r21, r17
    351c:	c6 01       	movw	r24, r12
    351e:	0e 94 6d 18 	call	0x30da	; 0x30da <ILI9486_drawPixel>
    3522:	40 2f       	mov	r20, r16
    3524:	51 2f       	mov	r21, r17
    3526:	b4 01       	movw	r22, r8
    3528:	8d 81       	ldd	r24, Y+5	; 0x05
    352a:	9e 81       	ldd	r25, Y+6	; 0x06
    352c:	8c 0d       	add	r24, r12
    352e:	9d 1d       	adc	r25, r13
    3530:	0e 94 6d 18 	call	0x30da	; 0x30da <ILI9486_drawPixel>
    3534:	40 2f       	mov	r20, r16
    3536:	51 2f       	mov	r21, r17
    3538:	b4 01       	movw	r22, r8
    353a:	c6 01       	movw	r24, r12
    353c:	2d 81       	ldd	r18, Y+5	; 0x05
    353e:	3e 81       	ldd	r19, Y+6	; 0x06
    3540:	82 1b       	sub	r24, r18
    3542:	93 0b       	sbc	r25, r19
    3544:	0e 94 6d 18 	call	0x30da	; 0x30da <ILI9486_drawPixel>
    3548:	00 e0       	ldi	r16, 0x00	; 0
    354a:	10 e0       	ldi	r17, 0x00	; 0
    354c:	66 24       	eor	r6, r6
    354e:	63 94       	inc	r6
    3550:	71 2c       	mov	r7, r1
    3552:	64 c0       	rjmp	.+200    	; 0x361c <ILI9486_Draw_Circle+0x176>
    3554:	ff 20       	and	r15, r15
    3556:	6c f0       	brlt	.+26     	; 0x3572 <ILI9486_Draw_Circle+0xcc>
    3558:	8d 81       	ldd	r24, Y+5	; 0x05
    355a:	9e 81       	ldd	r25, Y+6	; 0x06
    355c:	01 97       	sbiw	r24, 0x01	; 1
    355e:	9e 83       	std	Y+6, r25	; 0x06
    3560:	8d 83       	std	Y+5, r24	; 0x05
    3562:	2b 81       	ldd	r18, Y+3	; 0x03
    3564:	3c 81       	ldd	r19, Y+4	; 0x04
    3566:	2e 5f       	subi	r18, 0xFE	; 254
    3568:	3f 4f       	sbci	r19, 0xFF	; 255
    356a:	3c 83       	std	Y+4, r19	; 0x04
    356c:	2b 83       	std	Y+3, r18	; 0x03
    356e:	e2 0e       	add	r14, r18
    3570:	f3 1e       	adc	r15, r19
    3572:	0f 5f       	subi	r16, 0xFF	; 255
    3574:	1f 4f       	sbci	r17, 0xFF	; 255
    3576:	32 e0       	ldi	r19, 0x02	; 2
    3578:	63 0e       	add	r6, r19
    357a:	71 1c       	adc	r7, r1
    357c:	e6 0c       	add	r14, r6
    357e:	f7 1c       	adc	r15, r7
    3580:	56 01       	movw	r10, r12
    3582:	a0 0e       	add	r10, r16
    3584:	b1 1e       	adc	r11, r17
    3586:	49 81       	ldd	r20, Y+1	; 0x01
    3588:	5a 81       	ldd	r21, Y+2	; 0x02
    358a:	2d 80       	ldd	r2, Y+5	; 0x05
    358c:	3e 80       	ldd	r3, Y+6	; 0x06
    358e:	28 0c       	add	r2, r8
    3590:	39 1c       	adc	r3, r9
    3592:	b1 01       	movw	r22, r2
    3594:	c5 01       	movw	r24, r10
    3596:	0e 94 6d 18 	call	0x30da	; 0x30da <ILI9486_drawPixel>
    359a:	26 01       	movw	r4, r12
    359c:	40 1a       	sub	r4, r16
    359e:	51 0a       	sbc	r5, r17
    35a0:	49 81       	ldd	r20, Y+1	; 0x01
    35a2:	5a 81       	ldd	r21, Y+2	; 0x02
    35a4:	b1 01       	movw	r22, r2
    35a6:	c2 01       	movw	r24, r4
    35a8:	0e 94 6d 18 	call	0x30da	; 0x30da <ILI9486_drawPixel>
    35ac:	49 81       	ldd	r20, Y+1	; 0x01
    35ae:	5a 81       	ldd	r21, Y+2	; 0x02
    35b0:	14 01       	movw	r2, r8
    35b2:	8d 81       	ldd	r24, Y+5	; 0x05
    35b4:	9e 81       	ldd	r25, Y+6	; 0x06
    35b6:	28 1a       	sub	r2, r24
    35b8:	39 0a       	sbc	r3, r25
    35ba:	b1 01       	movw	r22, r2
    35bc:	c5 01       	movw	r24, r10
    35be:	0e 94 6d 18 	call	0x30da	; 0x30da <ILI9486_drawPixel>
    35c2:	49 81       	ldd	r20, Y+1	; 0x01
    35c4:	5a 81       	ldd	r21, Y+2	; 0x02
    35c6:	b1 01       	movw	r22, r2
    35c8:	c2 01       	movw	r24, r4
    35ca:	0e 94 6d 18 	call	0x30da	; 0x30da <ILI9486_drawPixel>
    35ce:	54 01       	movw	r10, r8
    35d0:	a0 0e       	add	r10, r16
    35d2:	b1 1e       	adc	r11, r17
    35d4:	49 81       	ldd	r20, Y+1	; 0x01
    35d6:	5a 81       	ldd	r21, Y+2	; 0x02
    35d8:	b5 01       	movw	r22, r10
    35da:	4d 80       	ldd	r4, Y+5	; 0x05
    35dc:	5e 80       	ldd	r5, Y+6	; 0x06
    35de:	4c 0c       	add	r4, r12
    35e0:	5d 1c       	adc	r5, r13
    35e2:	c2 01       	movw	r24, r4
    35e4:	0e 94 6d 18 	call	0x30da	; 0x30da <ILI9486_drawPixel>
    35e8:	49 81       	ldd	r20, Y+1	; 0x01
    35ea:	5a 81       	ldd	r21, Y+2	; 0x02
    35ec:	b5 01       	movw	r22, r10
    35ee:	16 01       	movw	r2, r12
    35f0:	2d 81       	ldd	r18, Y+5	; 0x05
    35f2:	3e 81       	ldd	r19, Y+6	; 0x06
    35f4:	22 1a       	sub	r2, r18
    35f6:	33 0a       	sbc	r3, r19
    35f8:	c1 01       	movw	r24, r2
    35fa:	0e 94 6d 18 	call	0x30da	; 0x30da <ILI9486_drawPixel>
    35fe:	54 01       	movw	r10, r8
    3600:	a0 1a       	sub	r10, r16
    3602:	b1 0a       	sbc	r11, r17
    3604:	49 81       	ldd	r20, Y+1	; 0x01
    3606:	5a 81       	ldd	r21, Y+2	; 0x02
    3608:	b5 01       	movw	r22, r10
    360a:	c2 01       	movw	r24, r4
    360c:	0e 94 6d 18 	call	0x30da	; 0x30da <ILI9486_drawPixel>
    3610:	49 81       	ldd	r20, Y+1	; 0x01
    3612:	5a 81       	ldd	r21, Y+2	; 0x02
    3614:	b5 01       	movw	r22, r10
    3616:	c1 01       	movw	r24, r2
    3618:	0e 94 6d 18 	call	0x30da	; 0x30da <ILI9486_drawPixel>
    361c:	8d 81       	ldd	r24, Y+5	; 0x05
    361e:	9e 81       	ldd	r25, Y+6	; 0x06
    3620:	08 17       	cp	r16, r24
    3622:	19 07       	cpc	r17, r25
    3624:	0c f4       	brge	.+2      	; 0x3628 <ILI9486_Draw_Circle+0x182>
    3626:	96 cf       	rjmp	.-212    	; 0x3554 <ILI9486_Draw_Circle+0xae>
    3628:	26 96       	adiw	r28, 0x06	; 6
    362a:	0f b6       	in	r0, 0x3f	; 63
    362c:	f8 94       	cli
    362e:	de bf       	out	0x3e, r29	; 62
    3630:	0f be       	out	0x3f, r0	; 63
    3632:	cd bf       	out	0x3d, r28	; 61
    3634:	df 91       	pop	r29
    3636:	cf 91       	pop	r28
    3638:	1f 91       	pop	r17
    363a:	0f 91       	pop	r16
    363c:	ff 90       	pop	r15
    363e:	ef 90       	pop	r14
    3640:	df 90       	pop	r13
    3642:	cf 90       	pop	r12
    3644:	bf 90       	pop	r11
    3646:	af 90       	pop	r10
    3648:	9f 90       	pop	r9
    364a:	8f 90       	pop	r8
    364c:	7f 90       	pop	r7
    364e:	6f 90       	pop	r6
    3650:	5f 90       	pop	r5
    3652:	4f 90       	pop	r4
    3654:	3f 90       	pop	r3
    3656:	2f 90       	pop	r2
    3658:	08 95       	ret

0000365a <ILI9486_fillCircleHelper>:
    365a:	3f 92       	push	r3
    365c:	4f 92       	push	r4
    365e:	5f 92       	push	r5
    3660:	6f 92       	push	r6
    3662:	7f 92       	push	r7
    3664:	8f 92       	push	r8
    3666:	9f 92       	push	r9
    3668:	af 92       	push	r10
    366a:	bf 92       	push	r11
    366c:	cf 92       	push	r12
    366e:	df 92       	push	r13
    3670:	ef 92       	push	r14
    3672:	ff 92       	push	r15
    3674:	0f 93       	push	r16
    3676:	1f 93       	push	r17
    3678:	cf 93       	push	r28
    367a:	df 93       	push	r29
    367c:	00 d0       	rcall	.+0      	; 0x367e <ILI9486_fillCircleHelper+0x24>
    367e:	00 d0       	rcall	.+0      	; 0x3680 <ILI9486_fillCircleHelper+0x26>
    3680:	cd b7       	in	r28, 0x3d	; 61
    3682:	de b7       	in	r29, 0x3e	; 62
    3684:	4c 01       	movw	r8, r24
    3686:	5b 01       	movw	r10, r22
    3688:	6a 01       	movw	r12, r20
    368a:	32 2e       	mov	r3, r18
    368c:	38 01       	movw	r6, r16
    368e:	fa 82       	std	Y+2, r15	; 0x02
    3690:	e9 82       	std	Y+1, r14	; 0x01
    3692:	01 e0       	ldi	r16, 0x01	; 1
    3694:	10 e0       	ldi	r17, 0x00	; 0
    3696:	04 1b       	sub	r16, r20
    3698:	15 0b       	sbc	r17, r21
    369a:	44 24       	eor	r4, r4
    369c:	55 24       	eor	r5, r5
    369e:	44 1a       	sub	r4, r20
    36a0:	55 0a       	sbc	r5, r21
    36a2:	44 0c       	add	r4, r4
    36a4:	55 1c       	adc	r5, r5
    36a6:	1c 82       	std	Y+4, r1	; 0x04
    36a8:	1b 82       	std	Y+3, r1	; 0x03
    36aa:	ee 24       	eor	r14, r14
    36ac:	e3 94       	inc	r14
    36ae:	f1 2c       	mov	r15, r1
    36b0:	65 c0       	rjmp	.+202    	; 0x377c <ILI9486_fillCircleHelper+0x122>
    36b2:	11 23       	and	r17, r17
    36b4:	44 f0       	brlt	.+16     	; 0x36c6 <ILI9486_fillCircleHelper+0x6c>
    36b6:	81 e0       	ldi	r24, 0x01	; 1
    36b8:	c8 1a       	sub	r12, r24
    36ba:	d1 08       	sbc	r13, r1
    36bc:	92 e0       	ldi	r25, 0x02	; 2
    36be:	49 0e       	add	r4, r25
    36c0:	51 1c       	adc	r5, r1
    36c2:	04 0d       	add	r16, r4
    36c4:	15 1d       	adc	r17, r5
    36c6:	eb 81       	ldd	r30, Y+3	; 0x03
    36c8:	fc 81       	ldd	r31, Y+4	; 0x04
    36ca:	31 96       	adiw	r30, 0x01	; 1
    36cc:	fc 83       	std	Y+4, r31	; 0x04
    36ce:	eb 83       	std	Y+3, r30	; 0x03
    36d0:	f2 e0       	ldi	r31, 0x02	; 2
    36d2:	ef 0e       	add	r14, r31
    36d4:	f1 1c       	adc	r15, r1
    36d6:	0e 0d       	add	r16, r14
    36d8:	1f 1d       	adc	r17, r15
    36da:	30 fe       	sbrs	r3, 0
    36dc:	26 c0       	rjmp	.+76     	; 0x372a <ILI9486_fillCircleHelper+0xd0>
    36de:	a6 01       	movw	r20, r12
    36e0:	44 0f       	add	r20, r20
    36e2:	55 1f       	adc	r21, r21
    36e4:	4f 5f       	subi	r20, 0xFF	; 255
    36e6:	5f 4f       	sbci	r21, 0xFF	; 255
    36e8:	46 0d       	add	r20, r6
    36ea:	57 1d       	adc	r21, r7
    36ec:	29 81       	ldd	r18, Y+1	; 0x01
    36ee:	3a 81       	ldd	r19, Y+2	; 0x02
    36f0:	b5 01       	movw	r22, r10
    36f2:	6c 19       	sub	r22, r12
    36f4:	7d 09       	sbc	r23, r13
    36f6:	8b 81       	ldd	r24, Y+3	; 0x03
    36f8:	9c 81       	ldd	r25, Y+4	; 0x04
    36fa:	88 0d       	add	r24, r8
    36fc:	99 1d       	adc	r25, r9
    36fe:	0e 94 31 19 	call	0x3262	; 0x3262 <ILI9486_DrawFastVLine>
    3702:	4b 81       	ldd	r20, Y+3	; 0x03
    3704:	5c 81       	ldd	r21, Y+4	; 0x04
    3706:	44 0f       	add	r20, r20
    3708:	55 1f       	adc	r21, r21
    370a:	4f 5f       	subi	r20, 0xFF	; 255
    370c:	5f 4f       	sbci	r21, 0xFF	; 255
    370e:	46 0d       	add	r20, r6
    3710:	57 1d       	adc	r21, r7
    3712:	29 81       	ldd	r18, Y+1	; 0x01
    3714:	3a 81       	ldd	r19, Y+2	; 0x02
    3716:	b5 01       	movw	r22, r10
    3718:	8b 81       	ldd	r24, Y+3	; 0x03
    371a:	9c 81       	ldd	r25, Y+4	; 0x04
    371c:	68 1b       	sub	r22, r24
    371e:	79 0b       	sbc	r23, r25
    3720:	c6 01       	movw	r24, r12
    3722:	88 0d       	add	r24, r8
    3724:	99 1d       	adc	r25, r9
    3726:	0e 94 31 19 	call	0x3262	; 0x3262 <ILI9486_DrawFastVLine>
    372a:	31 fe       	sbrs	r3, 1
    372c:	27 c0       	rjmp	.+78     	; 0x377c <ILI9486_fillCircleHelper+0x122>
    372e:	a6 01       	movw	r20, r12
    3730:	44 0f       	add	r20, r20
    3732:	55 1f       	adc	r21, r21
    3734:	4f 5f       	subi	r20, 0xFF	; 255
    3736:	5f 4f       	sbci	r21, 0xFF	; 255
    3738:	46 0d       	add	r20, r6
    373a:	57 1d       	adc	r21, r7
    373c:	29 81       	ldd	r18, Y+1	; 0x01
    373e:	3a 81       	ldd	r19, Y+2	; 0x02
    3740:	b5 01       	movw	r22, r10
    3742:	6c 19       	sub	r22, r12
    3744:	7d 09       	sbc	r23, r13
    3746:	c4 01       	movw	r24, r8
    3748:	eb 81       	ldd	r30, Y+3	; 0x03
    374a:	fc 81       	ldd	r31, Y+4	; 0x04
    374c:	8e 1b       	sub	r24, r30
    374e:	9f 0b       	sbc	r25, r31
    3750:	0e 94 31 19 	call	0x3262	; 0x3262 <ILI9486_DrawFastVLine>
    3754:	4b 81       	ldd	r20, Y+3	; 0x03
    3756:	5c 81       	ldd	r21, Y+4	; 0x04
    3758:	44 0f       	add	r20, r20
    375a:	55 1f       	adc	r21, r21
    375c:	4f 5f       	subi	r20, 0xFF	; 255
    375e:	5f 4f       	sbci	r21, 0xFF	; 255
    3760:	46 0d       	add	r20, r6
    3762:	57 1d       	adc	r21, r7
    3764:	29 81       	ldd	r18, Y+1	; 0x01
    3766:	3a 81       	ldd	r19, Y+2	; 0x02
    3768:	b5 01       	movw	r22, r10
    376a:	8b 81       	ldd	r24, Y+3	; 0x03
    376c:	9c 81       	ldd	r25, Y+4	; 0x04
    376e:	68 1b       	sub	r22, r24
    3770:	79 0b       	sbc	r23, r25
    3772:	c4 01       	movw	r24, r8
    3774:	8c 19       	sub	r24, r12
    3776:	9d 09       	sbc	r25, r13
    3778:	0e 94 31 19 	call	0x3262	; 0x3262 <ILI9486_DrawFastVLine>
    377c:	eb 81       	ldd	r30, Y+3	; 0x03
    377e:	fc 81       	ldd	r31, Y+4	; 0x04
    3780:	ec 15       	cp	r30, r12
    3782:	fd 05       	cpc	r31, r13
    3784:	0c f4       	brge	.+2      	; 0x3788 <ILI9486_fillCircleHelper+0x12e>
    3786:	95 cf       	rjmp	.-214    	; 0x36b2 <ILI9486_fillCircleHelper+0x58>
    3788:	0f 90       	pop	r0
    378a:	0f 90       	pop	r0
    378c:	0f 90       	pop	r0
    378e:	0f 90       	pop	r0
    3790:	df 91       	pop	r29
    3792:	cf 91       	pop	r28
    3794:	1f 91       	pop	r17
    3796:	0f 91       	pop	r16
    3798:	ff 90       	pop	r15
    379a:	ef 90       	pop	r14
    379c:	df 90       	pop	r13
    379e:	cf 90       	pop	r12
    37a0:	bf 90       	pop	r11
    37a2:	af 90       	pop	r10
    37a4:	9f 90       	pop	r9
    37a6:	8f 90       	pop	r8
    37a8:	7f 90       	pop	r7
    37aa:	6f 90       	pop	r6
    37ac:	5f 90       	pop	r5
    37ae:	4f 90       	pop	r4
    37b0:	3f 90       	pop	r3
    37b2:	08 95       	ret

000037b4 <ILI9486_fillCircle>:
    37b4:	af 92       	push	r10
    37b6:	bf 92       	push	r11
    37b8:	cf 92       	push	r12
    37ba:	df 92       	push	r13
    37bc:	ef 92       	push	r14
    37be:	ff 92       	push	r15
    37c0:	0f 93       	push	r16
    37c2:	1f 93       	push	r17
    37c4:	cf 93       	push	r28
    37c6:	df 93       	push	r29
    37c8:	6c 01       	movw	r12, r24
    37ca:	5b 01       	movw	r10, r22
    37cc:	ea 01       	movw	r28, r20
    37ce:	79 01       	movw	r14, r18
    37d0:	44 0f       	add	r20, r20
    37d2:	55 1f       	adc	r21, r21
    37d4:	4f 5f       	subi	r20, 0xFF	; 255
    37d6:	5f 4f       	sbci	r21, 0xFF	; 255
    37d8:	6c 1b       	sub	r22, r28
    37da:	7d 0b       	sbc	r23, r29
    37dc:	0e 94 31 19 	call	0x3262	; 0x3262 <ILI9486_DrawFastVLine>
    37e0:	00 e0       	ldi	r16, 0x00	; 0
    37e2:	10 e0       	ldi	r17, 0x00	; 0
    37e4:	23 e0       	ldi	r18, 0x03	; 3
    37e6:	ae 01       	movw	r20, r28
    37e8:	b5 01       	movw	r22, r10
    37ea:	c6 01       	movw	r24, r12
    37ec:	0e 94 2d 1b 	call	0x365a	; 0x365a <ILI9486_fillCircleHelper>
    37f0:	df 91       	pop	r29
    37f2:	cf 91       	pop	r28
    37f4:	1f 91       	pop	r17
    37f6:	0f 91       	pop	r16
    37f8:	ff 90       	pop	r15
    37fa:	ef 90       	pop	r14
    37fc:	df 90       	pop	r13
    37fe:	cf 90       	pop	r12
    3800:	bf 90       	pop	r11
    3802:	af 90       	pop	r10
    3804:	08 95       	ret

00003806 <ILI9486_DrawRect>:
    3806:	af 92       	push	r10
    3808:	bf 92       	push	r11
    380a:	cf 92       	push	r12
    380c:	df 92       	push	r13
    380e:	ef 92       	push	r14
    3810:	ff 92       	push	r15
    3812:	0f 93       	push	r16
    3814:	1f 93       	push	r17
    3816:	cf 93       	push	r28
    3818:	df 93       	push	r29
    381a:	ec 01       	movw	r28, r24
    381c:	7b 01       	movw	r14, r22
    381e:	5a 01       	movw	r10, r20
    3820:	69 01       	movw	r12, r18
    3822:	98 01       	movw	r18, r16
    3824:	0e 94 57 19 	call	0x32ae	; 0x32ae <ILI9486_DrawFastHLine>
    3828:	b7 01       	movw	r22, r14
    382a:	6c 0d       	add	r22, r12
    382c:	7d 1d       	adc	r23, r13
    382e:	61 50       	subi	r22, 0x01	; 1
    3830:	71 09       	sbc	r23, r1
    3832:	98 01       	movw	r18, r16
    3834:	a5 01       	movw	r20, r10
    3836:	ce 01       	movw	r24, r28
    3838:	0e 94 57 19 	call	0x32ae	; 0x32ae <ILI9486_DrawFastHLine>
    383c:	98 01       	movw	r18, r16
    383e:	a6 01       	movw	r20, r12
    3840:	b7 01       	movw	r22, r14
    3842:	ce 01       	movw	r24, r28
    3844:	0e 94 31 19 	call	0x3262	; 0x3262 <ILI9486_DrawFastVLine>
    3848:	c5 01       	movw	r24, r10
    384a:	8c 0f       	add	r24, r28
    384c:	9d 1f       	adc	r25, r29
    384e:	98 01       	movw	r18, r16
    3850:	a6 01       	movw	r20, r12
    3852:	b7 01       	movw	r22, r14
    3854:	01 97       	sbiw	r24, 0x01	; 1
    3856:	0e 94 31 19 	call	0x3262	; 0x3262 <ILI9486_DrawFastVLine>
    385a:	df 91       	pop	r29
    385c:	cf 91       	pop	r28
    385e:	1f 91       	pop	r17
    3860:	0f 91       	pop	r16
    3862:	ff 90       	pop	r15
    3864:	ef 90       	pop	r14
    3866:	df 90       	pop	r13
    3868:	cf 90       	pop	r12
    386a:	bf 90       	pop	r11
    386c:	af 90       	pop	r10
    386e:	08 95       	ret

00003870 <ILI9486_fillTriangle>:
    3870:	2f 92       	push	r2
    3872:	3f 92       	push	r3
    3874:	4f 92       	push	r4
    3876:	5f 92       	push	r5
    3878:	6f 92       	push	r6
    387a:	7f 92       	push	r7
    387c:	8f 92       	push	r8
    387e:	9f 92       	push	r9
    3880:	af 92       	push	r10
    3882:	bf 92       	push	r11
    3884:	cf 92       	push	r12
    3886:	df 92       	push	r13
    3888:	ef 92       	push	r14
    388a:	ff 92       	push	r15
    388c:	0f 93       	push	r16
    388e:	1f 93       	push	r17
    3890:	cf 93       	push	r28
    3892:	df 93       	push	r29
    3894:	cd b7       	in	r28, 0x3d	; 61
    3896:	de b7       	in	r29, 0x3e	; 62
    3898:	68 97       	sbiw	r28, 0x18	; 24
    389a:	0f b6       	in	r0, 0x3f	; 63
    389c:	f8 94       	cli
    389e:	de bf       	out	0x3e, r29	; 62
    38a0:	0f be       	out	0x3f, r0	; 63
    38a2:	cd bf       	out	0x3d, r28	; 61
    38a4:	1c 01       	movw	r2, r24
    38a6:	78 8b       	std	Y+16, r23	; 0x10
    38a8:	6f 87       	std	Y+15, r22	; 0x0f
    38aa:	5e 83       	std	Y+6, r21	; 0x06
    38ac:	4d 83       	std	Y+5, r20	; 0x05
    38ae:	3e 87       	std	Y+14, r19	; 0x0e
    38b0:	2d 87       	std	Y+13, r18	; 0x0d
    38b2:	fc 86       	std	Y+12, r15	; 0x0c
    38b4:	eb 86       	std	Y+11, r14	; 0x0b
    38b6:	d8 86       	std	Y+8, r13	; 0x08
    38b8:	cf 82       	std	Y+7, r12	; 0x07
    38ba:	26 17       	cp	r18, r22
    38bc:	37 07       	cpc	r19, r23
    38be:	5c f4       	brge	.+22     	; 0x38d6 <ILI9486_fillTriangle+0x66>
    38c0:	9f 85       	ldd	r25, Y+15	; 0x0f
    38c2:	88 89       	ldd	r24, Y+16	; 0x10
    38c4:	38 8b       	std	Y+16, r19	; 0x10
    38c6:	2f 87       	std	Y+15, r18	; 0x0f
    38c8:	9d 87       	std	Y+13, r25	; 0x0d
    38ca:	8e 87       	std	Y+14, r24	; 0x0e
    38cc:	92 2d       	mov	r25, r2
    38ce:	83 2d       	mov	r24, r3
    38d0:	1a 01       	movw	r2, r20
    38d2:	9d 83       	std	Y+5, r25	; 0x05
    38d4:	8e 83       	std	Y+6, r24	; 0x06
    38d6:	2d 85       	ldd	r18, Y+13	; 0x0d
    38d8:	3e 85       	ldd	r19, Y+14	; 0x0e
    38da:	4b 85       	ldd	r20, Y+11	; 0x0b
    38dc:	5c 85       	ldd	r21, Y+12	; 0x0c
    38de:	42 17       	cp	r20, r18
    38e0:	53 07       	cpc	r21, r19
    38e2:	64 f4       	brge	.+24     	; 0x38fc <ILI9486_fillTriangle+0x8c>
    38e4:	9d 85       	ldd	r25, Y+13	; 0x0d
    38e6:	8e 85       	ldd	r24, Y+14	; 0x0e
    38e8:	5e 87       	std	Y+14, r21	; 0x0e
    38ea:	4d 87       	std	Y+13, r20	; 0x0d
    38ec:	9b 87       	std	Y+11, r25	; 0x0b
    38ee:	8c 87       	std	Y+12, r24	; 0x0c
    38f0:	9d 81       	ldd	r25, Y+5	; 0x05
    38f2:	8e 81       	ldd	r24, Y+6	; 0x06
    38f4:	1e 83       	std	Y+6, r17	; 0x06
    38f6:	0d 83       	std	Y+5, r16	; 0x05
    38f8:	09 2f       	mov	r16, r25
    38fa:	18 2f       	mov	r17, r24
    38fc:	8f 85       	ldd	r24, Y+15	; 0x0f
    38fe:	98 89       	ldd	r25, Y+16	; 0x10
    3900:	ad 85       	ldd	r26, Y+13	; 0x0d
    3902:	be 85       	ldd	r27, Y+14	; 0x0e
    3904:	a8 17       	cp	r26, r24
    3906:	b9 07       	cpc	r27, r25
    3908:	64 f4       	brge	.+24     	; 0x3922 <ILI9486_fillTriangle+0xb2>
    390a:	9f 85       	ldd	r25, Y+15	; 0x0f
    390c:	88 89       	ldd	r24, Y+16	; 0x10
    390e:	b8 8b       	std	Y+16, r27	; 0x10
    3910:	af 87       	std	Y+15, r26	; 0x0f
    3912:	9d 87       	std	Y+13, r25	; 0x0d
    3914:	8e 87       	std	Y+14, r24	; 0x0e
    3916:	92 2d       	mov	r25, r2
    3918:	83 2d       	mov	r24, r3
    391a:	2d 80       	ldd	r2, Y+5	; 0x05
    391c:	3e 80       	ldd	r3, Y+6	; 0x06
    391e:	9d 83       	std	Y+5, r25	; 0x05
    3920:	8e 83       	std	Y+6, r24	; 0x06
    3922:	ef 85       	ldd	r30, Y+15	; 0x0f
    3924:	f8 89       	ldd	r31, Y+16	; 0x10
    3926:	2b 85       	ldd	r18, Y+11	; 0x0b
    3928:	3c 85       	ldd	r19, Y+12	; 0x0c
    392a:	e2 17       	cp	r30, r18
    392c:	f3 07       	cpc	r31, r19
    392e:	59 f5       	brne	.+86     	; 0x3986 <ILI9486_fillTriangle+0x116>
    3930:	4d 81       	ldd	r20, Y+5	; 0x05
    3932:	5e 81       	ldd	r21, Y+6	; 0x06
    3934:	42 15       	cp	r20, r2
    3936:	53 05       	cpc	r21, r3
    3938:	64 f0       	brlt	.+24     	; 0x3952 <ILI9486_fillTriangle+0xe2>
    393a:	24 16       	cp	r2, r20
    393c:	35 06       	cpc	r3, r21
    393e:	1c f0       	brlt	.+6      	; 0x3946 <ILI9486_fillTriangle+0xd6>
    3940:	3e 82       	std	Y+6, r3	; 0x06
    3942:	2d 82       	std	Y+5, r2	; 0x05
    3944:	06 c0       	rjmp	.+12     	; 0x3952 <ILI9486_fillTriangle+0xe2>
    3946:	9d 81       	ldd	r25, Y+5	; 0x05
    3948:	8e 81       	ldd	r24, Y+6	; 0x06
    394a:	3e 82       	std	Y+6, r3	; 0x06
    394c:	2d 82       	std	Y+5, r2	; 0x05
    394e:	29 2e       	mov	r2, r25
    3950:	38 2e       	mov	r3, r24
    3952:	8d 81       	ldd	r24, Y+5	; 0x05
    3954:	9e 81       	ldd	r25, Y+6	; 0x06
    3956:	08 17       	cp	r16, r24
    3958:	19 07       	cpc	r17, r25
    395a:	44 f0       	brlt	.+16     	; 0x396c <ILI9486_fillTriangle+0xfc>
    395c:	20 16       	cp	r2, r16
    395e:	31 06       	cpc	r3, r17
    3960:	14 f0       	brlt	.+4      	; 0x3966 <ILI9486_fillTriangle+0xf6>
    3962:	8c 01       	movw	r16, r24
    3964:	03 c0       	rjmp	.+6      	; 0x396c <ILI9486_fillTriangle+0xfc>
    3966:	18 01       	movw	r2, r16
    3968:	0d 81       	ldd	r16, Y+5	; 0x05
    396a:	1e 81       	ldd	r17, Y+6	; 0x06
    396c:	a1 01       	movw	r20, r2
    396e:	40 1b       	sub	r20, r16
    3970:	51 0b       	sbc	r21, r17
    3972:	4f 5f       	subi	r20, 0xFF	; 255
    3974:	5f 4f       	sbci	r21, 0xFF	; 255
    3976:	2f 81       	ldd	r18, Y+7	; 0x07
    3978:	38 85       	ldd	r19, Y+8	; 0x08
    397a:	6f 85       	ldd	r22, Y+15	; 0x0f
    397c:	78 89       	ldd	r23, Y+16	; 0x10
    397e:	c8 01       	movw	r24, r16
    3980:	0e 94 57 19 	call	0x32ae	; 0x32ae <ILI9486_DrawFastHLine>
    3984:	f4 c0       	rjmp	.+488    	; 0x3b6e <ILI9486_fillTriangle+0x2fe>
    3986:	ad 81       	ldd	r26, Y+5	; 0x05
    3988:	be 81       	ldd	r27, Y+6	; 0x06
    398a:	a2 19       	sub	r26, r2
    398c:	b3 09       	sbc	r27, r3
    398e:	ba 8b       	std	Y+18, r27	; 0x12
    3990:	a9 8b       	std	Y+17, r26	; 0x11
    3992:	4d 84       	ldd	r4, Y+13	; 0x0d
    3994:	5e 84       	ldd	r5, Y+14	; 0x0e
    3996:	ef 85       	ldd	r30, Y+15	; 0x0f
    3998:	f8 89       	ldd	r31, Y+16	; 0x10
    399a:	4e 1a       	sub	r4, r30
    399c:	5f 0a       	sbc	r5, r31
    399e:	98 01       	movw	r18, r16
    39a0:	22 19       	sub	r18, r2
    39a2:	33 09       	sbc	r19, r3
    39a4:	3a 83       	std	Y+2, r19	; 0x02
    39a6:	29 83       	std	Y+1, r18	; 0x01
    39a8:	4b 85       	ldd	r20, Y+11	; 0x0b
    39aa:	5c 85       	ldd	r21, Y+12	; 0x0c
    39ac:	4e 1b       	sub	r20, r30
    39ae:	5f 0b       	sbc	r21, r31
    39b0:	5a 87       	std	Y+10, r21	; 0x0a
    39b2:	49 87       	std	Y+9, r20	; 0x09
    39b4:	c8 01       	movw	r24, r16
    39b6:	ad 81       	ldd	r26, Y+5	; 0x05
    39b8:	be 81       	ldd	r27, Y+6	; 0x06
    39ba:	8a 1b       	sub	r24, r26
    39bc:	9b 0b       	sbc	r25, r27
    39be:	9e 8b       	std	Y+22, r25	; 0x16
    39c0:	8d 8b       	std	Y+21, r24	; 0x15
    39c2:	eb 85       	ldd	r30, Y+11	; 0x0b
    39c4:	fc 85       	ldd	r31, Y+12	; 0x0c
    39c6:	2d 85       	ldd	r18, Y+13	; 0x0d
    39c8:	3e 85       	ldd	r19, Y+14	; 0x0e
    39ca:	e2 1b       	sub	r30, r18
    39cc:	f3 0b       	sbc	r31, r19
    39ce:	fc 8b       	std	Y+20, r31	; 0x14
    39d0:	eb 8b       	std	Y+19, r30	; 0x13
    39d2:	4b 85       	ldd	r20, Y+11	; 0x0b
    39d4:	5c 85       	ldd	r21, Y+12	; 0x0c
    39d6:	24 17       	cp	r18, r20
    39d8:	35 07       	cpc	r19, r21
    39da:	29 f0       	breq	.+10     	; 0x39e6 <ILI9486_fillTriangle+0x176>
    39dc:	39 01       	movw	r6, r18
    39de:	51 e0       	ldi	r21, 0x01	; 1
    39e0:	65 1a       	sub	r6, r21
    39e2:	71 08       	sbc	r7, r1
    39e4:	02 c0       	rjmp	.+4      	; 0x39ea <ILI9486_fillTriangle+0x17a>
    39e6:	6d 84       	ldd	r6, Y+13	; 0x0d
    39e8:	7e 84       	ldd	r7, Y+14	; 0x0e
    39ea:	0f 85       	ldd	r16, Y+15	; 0x0f
    39ec:	18 89       	ldd	r17, Y+16	; 0x10
    39ee:	81 2c       	mov	r8, r1
    39f0:	91 2c       	mov	r9, r1
    39f2:	54 01       	movw	r10, r8
    39f4:	c1 2c       	mov	r12, r1
    39f6:	d1 2c       	mov	r13, r1
    39f8:	76 01       	movw	r14, r12
    39fa:	46 c0       	rjmp	.+140    	; 0x3a88 <ILI9486_fillTriangle+0x218>
    39fc:	c7 01       	movw	r24, r14
    39fe:	b6 01       	movw	r22, r12
    3a00:	92 01       	movw	r18, r4
    3a02:	05 2c       	mov	r0, r5
    3a04:	00 0c       	add	r0, r0
    3a06:	44 0b       	sbc	r20, r20
    3a08:	55 0b       	sbc	r21, r21
    3a0a:	0e 94 27 32 	call	0x644e	; 0x644e <__divmodsi4>
    3a0e:	c1 01       	movw	r24, r2
    3a10:	82 0f       	add	r24, r18
    3a12:	93 1f       	adc	r25, r19
    3a14:	98 8f       	std	Y+24, r25	; 0x18
    3a16:	8f 8b       	std	Y+23, r24	; 0x17
    3a18:	c5 01       	movw	r24, r10
    3a1a:	b4 01       	movw	r22, r8
    3a1c:	a9 85       	ldd	r26, Y+9	; 0x09
    3a1e:	ba 85       	ldd	r27, Y+10	; 0x0a
    3a20:	9d 01       	movw	r18, r26
    3a22:	bb 0f       	add	r27, r27
    3a24:	44 0b       	sbc	r20, r20
    3a26:	55 0b       	sbc	r21, r21
    3a28:	0e 94 27 32 	call	0x644e	; 0x644e <__divmodsi4>
    3a2c:	c1 01       	movw	r24, r2
    3a2e:	82 0f       	add	r24, r18
    3a30:	93 1f       	adc	r25, r19
    3a32:	e9 89       	ldd	r30, Y+17	; 0x11
    3a34:	fa 89       	ldd	r31, Y+18	; 0x12
    3a36:	af 01       	movw	r20, r30
    3a38:	ff 0f       	add	r31, r31
    3a3a:	66 0b       	sbc	r22, r22
    3a3c:	77 0b       	sbc	r23, r23
    3a3e:	c4 0e       	add	r12, r20
    3a40:	d5 1e       	adc	r13, r21
    3a42:	e6 1e       	adc	r14, r22
    3a44:	f7 1e       	adc	r15, r23
    3a46:	29 81       	ldd	r18, Y+1	; 0x01
    3a48:	3a 81       	ldd	r19, Y+2	; 0x02
    3a4a:	a9 01       	movw	r20, r18
    3a4c:	33 0f       	add	r19, r19
    3a4e:	66 0b       	sbc	r22, r22
    3a50:	77 0b       	sbc	r23, r23
    3a52:	84 0e       	add	r8, r20
    3a54:	95 1e       	adc	r9, r21
    3a56:	a6 1e       	adc	r10, r22
    3a58:	b7 1e       	adc	r11, r23
    3a5a:	4f 89       	ldd	r20, Y+23	; 0x17
    3a5c:	58 8d       	ldd	r21, Y+24	; 0x18
    3a5e:	84 17       	cp	r24, r20
    3a60:	95 07       	cpc	r25, r21
    3a62:	2c f0       	brlt	.+10     	; 0x3a6e <ILI9486_fillTriangle+0x1fe>
    3a64:	38 2f       	mov	r19, r24
    3a66:	29 2f       	mov	r18, r25
    3a68:	ca 01       	movw	r24, r20
    3a6a:	3f 8b       	std	Y+23, r19	; 0x17
    3a6c:	28 8f       	std	Y+24, r18	; 0x18
    3a6e:	4f 89       	ldd	r20, Y+23	; 0x17
    3a70:	58 8d       	ldd	r21, Y+24	; 0x18
    3a72:	48 1b       	sub	r20, r24
    3a74:	59 0b       	sbc	r21, r25
    3a76:	4f 5f       	subi	r20, 0xFF	; 255
    3a78:	5f 4f       	sbci	r21, 0xFF	; 255
    3a7a:	2f 81       	ldd	r18, Y+7	; 0x07
    3a7c:	38 85       	ldd	r19, Y+8	; 0x08
    3a7e:	b8 01       	movw	r22, r16
    3a80:	0e 94 57 19 	call	0x32ae	; 0x32ae <ILI9486_DrawFastHLine>
    3a84:	0f 5f       	subi	r16, 0xFF	; 255
    3a86:	1f 4f       	sbci	r17, 0xFF	; 255
    3a88:	60 16       	cp	r6, r16
    3a8a:	71 06       	cpc	r7, r17
    3a8c:	0c f0       	brlt	.+2      	; 0x3a90 <ILI9486_fillTriangle+0x220>
    3a8e:	b6 cf       	rjmp	.-148    	; 0x39fc <ILI9486_fillTriangle+0x18c>
    3a90:	8d 89       	ldd	r24, Y+21	; 0x15
    3a92:	9e 89       	ldd	r25, Y+22	; 0x16
    3a94:	2c 01       	movw	r4, r24
    3a96:	99 0f       	add	r25, r25
    3a98:	66 08       	sbc	r6, r6
    3a9a:	77 08       	sbc	r7, r7
    3a9c:	d8 01       	movw	r26, r16
    3a9e:	ed 85       	ldd	r30, Y+13	; 0x0d
    3aa0:	fe 85       	ldd	r31, Y+14	; 0x0e
    3aa2:	ae 1b       	sub	r26, r30
    3aa4:	bf 0b       	sbc	r27, r31
    3aa6:	a3 01       	movw	r20, r6
    3aa8:	92 01       	movw	r18, r4
    3aaa:	0e 94 57 32 	call	0x64ae	; 0x64ae <__mulshisi3>
    3aae:	4b 01       	movw	r8, r22
    3ab0:	5c 01       	movw	r10, r24
    3ab2:	29 81       	ldd	r18, Y+1	; 0x01
    3ab4:	3a 81       	ldd	r19, Y+2	; 0x02
    3ab6:	03 2e       	mov	r0, r19
    3ab8:	00 0c       	add	r0, r0
    3aba:	44 0b       	sbc	r20, r20
    3abc:	55 0b       	sbc	r21, r21
    3abe:	29 83       	std	Y+1, r18	; 0x01
    3ac0:	3a 83       	std	Y+2, r19	; 0x02
    3ac2:	4b 83       	std	Y+3, r20	; 0x03
    3ac4:	5c 83       	std	Y+4, r21	; 0x04
    3ac6:	d8 01       	movw	r26, r16
    3ac8:	4f 85       	ldd	r20, Y+15	; 0x0f
    3aca:	58 89       	ldd	r21, Y+16	; 0x10
    3acc:	a4 1b       	sub	r26, r20
    3ace:	b5 0b       	sbc	r27, r21
    3ad0:	29 81       	ldd	r18, Y+1	; 0x01
    3ad2:	3a 81       	ldd	r19, Y+2	; 0x02
    3ad4:	4b 81       	ldd	r20, Y+3	; 0x03
    3ad6:	5c 81       	ldd	r21, Y+4	; 0x04
    3ad8:	0e 94 57 32 	call	0x64ae	; 0x64ae <__mulshisi3>
    3adc:	6b 01       	movw	r12, r22
    3ade:	7c 01       	movw	r14, r24
    3ae0:	40 c0       	rjmp	.+128    	; 0x3b62 <ILI9486_fillTriangle+0x2f2>
    3ae2:	c5 01       	movw	r24, r10
    3ae4:	b4 01       	movw	r22, r8
    3ae6:	ab 89       	ldd	r26, Y+19	; 0x13
    3ae8:	bc 89       	ldd	r27, Y+20	; 0x14
    3aea:	9d 01       	movw	r18, r26
    3aec:	bb 0f       	add	r27, r27
    3aee:	44 0b       	sbc	r20, r20
    3af0:	55 0b       	sbc	r21, r21
    3af2:	0e 94 27 32 	call	0x644e	; 0x644e <__divmodsi4>
    3af6:	ed 81       	ldd	r30, Y+5	; 0x05
    3af8:	fe 81       	ldd	r31, Y+6	; 0x06
    3afa:	e2 0f       	add	r30, r18
    3afc:	f3 1f       	adc	r31, r19
    3afe:	fe 87       	std	Y+14, r31	; 0x0e
    3b00:	ed 87       	std	Y+13, r30	; 0x0d
    3b02:	c7 01       	movw	r24, r14
    3b04:	b6 01       	movw	r22, r12
    3b06:	a9 85       	ldd	r26, Y+9	; 0x09
    3b08:	ba 85       	ldd	r27, Y+10	; 0x0a
    3b0a:	9d 01       	movw	r18, r26
    3b0c:	bb 0f       	add	r27, r27
    3b0e:	44 0b       	sbc	r20, r20
    3b10:	55 0b       	sbc	r21, r21
    3b12:	0e 94 27 32 	call	0x644e	; 0x644e <__divmodsi4>
    3b16:	c1 01       	movw	r24, r2
    3b18:	82 0f       	add	r24, r18
    3b1a:	93 1f       	adc	r25, r19
    3b1c:	84 0c       	add	r8, r4
    3b1e:	95 1c       	adc	r9, r5
    3b20:	a6 1c       	adc	r10, r6
    3b22:	b7 1c       	adc	r11, r7
    3b24:	29 81       	ldd	r18, Y+1	; 0x01
    3b26:	3a 81       	ldd	r19, Y+2	; 0x02
    3b28:	4b 81       	ldd	r20, Y+3	; 0x03
    3b2a:	5c 81       	ldd	r21, Y+4	; 0x04
    3b2c:	c2 0e       	add	r12, r18
    3b2e:	d3 1e       	adc	r13, r19
    3b30:	e4 1e       	adc	r14, r20
    3b32:	f5 1e       	adc	r15, r21
    3b34:	4d 85       	ldd	r20, Y+13	; 0x0d
    3b36:	5e 85       	ldd	r21, Y+14	; 0x0e
    3b38:	84 17       	cp	r24, r20
    3b3a:	95 07       	cpc	r25, r21
    3b3c:	2c f0       	brlt	.+10     	; 0x3b48 <ILI9486_fillTriangle+0x2d8>
    3b3e:	38 2f       	mov	r19, r24
    3b40:	29 2f       	mov	r18, r25
    3b42:	ca 01       	movw	r24, r20
    3b44:	3d 87       	std	Y+13, r19	; 0x0d
    3b46:	2e 87       	std	Y+14, r18	; 0x0e
    3b48:	4d 85       	ldd	r20, Y+13	; 0x0d
    3b4a:	5e 85       	ldd	r21, Y+14	; 0x0e
    3b4c:	48 1b       	sub	r20, r24
    3b4e:	59 0b       	sbc	r21, r25
    3b50:	4f 5f       	subi	r20, 0xFF	; 255
    3b52:	5f 4f       	sbci	r21, 0xFF	; 255
    3b54:	2f 81       	ldd	r18, Y+7	; 0x07
    3b56:	38 85       	ldd	r19, Y+8	; 0x08
    3b58:	b8 01       	movw	r22, r16
    3b5a:	0e 94 57 19 	call	0x32ae	; 0x32ae <ILI9486_DrawFastHLine>
    3b5e:	0f 5f       	subi	r16, 0xFF	; 255
    3b60:	1f 4f       	sbci	r17, 0xFF	; 255
    3b62:	8b 85       	ldd	r24, Y+11	; 0x0b
    3b64:	9c 85       	ldd	r25, Y+12	; 0x0c
    3b66:	80 17       	cp	r24, r16
    3b68:	91 07       	cpc	r25, r17
    3b6a:	0c f0       	brlt	.+2      	; 0x3b6e <ILI9486_fillTriangle+0x2fe>
    3b6c:	ba cf       	rjmp	.-140    	; 0x3ae2 <ILI9486_fillTriangle+0x272>
    3b6e:	68 96       	adiw	r28, 0x18	; 24
    3b70:	0f b6       	in	r0, 0x3f	; 63
    3b72:	f8 94       	cli
    3b74:	de bf       	out	0x3e, r29	; 62
    3b76:	0f be       	out	0x3f, r0	; 63
    3b78:	cd bf       	out	0x3d, r28	; 61
    3b7a:	df 91       	pop	r29
    3b7c:	cf 91       	pop	r28
    3b7e:	1f 91       	pop	r17
    3b80:	0f 91       	pop	r16
    3b82:	ff 90       	pop	r15
    3b84:	ef 90       	pop	r14
    3b86:	df 90       	pop	r13
    3b88:	cf 90       	pop	r12
    3b8a:	bf 90       	pop	r11
    3b8c:	af 90       	pop	r10
    3b8e:	9f 90       	pop	r9
    3b90:	8f 90       	pop	r8
    3b92:	7f 90       	pop	r7
    3b94:	6f 90       	pop	r6
    3b96:	5f 90       	pop	r5
    3b98:	4f 90       	pop	r4
    3b9a:	3f 90       	pop	r3
    3b9c:	2f 90       	pop	r2
    3b9e:	08 95       	ret

00003ba0 <ILI9486_SetTextColor>:
    3ba0:	90 93 c6 02 	sts	0x02C6, r25	; 0x8002c6 <POINT_COLOR+0x1>
    3ba4:	80 93 c5 02 	sts	0x02C5, r24	; 0x8002c5 <POINT_COLOR>
    3ba8:	70 93 c4 02 	sts	0x02C4, r23	; 0x8002c4 <BACK_COLOR+0x1>
    3bac:	60 93 c3 02 	sts	0x02C3, r22	; 0x8002c3 <BACK_COLOR>
    3bb0:	08 95       	ret

00003bb2 <ILI9486_Print_Char14x24>:
    3bb2:	8f 92       	push	r8
    3bb4:	9f 92       	push	r9
    3bb6:	bf 92       	push	r11
    3bb8:	cf 92       	push	r12
    3bba:	df 92       	push	r13
    3bbc:	ef 92       	push	r14
    3bbe:	0f 93       	push	r16
    3bc0:	1f 93       	push	r17
    3bc2:	cf 93       	push	r28
    3bc4:	e0 91 52 02 	lds	r30, 0x0252	; 0x800252 <X_SIZE>
    3bc8:	f0 91 53 02 	lds	r31, 0x0253	; 0x800253 <X_SIZE+0x1>
    3bcc:	3e 97       	sbiw	r30, 0x0e	; 14
    3bce:	e8 17       	cp	r30, r24
    3bd0:	f9 07       	cpc	r31, r25
    3bd2:	08 f4       	brcc	.+2      	; 0x3bd6 <ILI9486_Print_Char14x24+0x24>
    3bd4:	8f c0       	rjmp	.+286    	; 0x3cf4 <ILI9486_Print_Char14x24+0x142>
    3bd6:	e0 91 50 02 	lds	r30, 0x0250	; 0x800250 <__data_end>
    3bda:	f0 91 51 02 	lds	r31, 0x0251	; 0x800251 <__data_end+0x1>
    3bde:	78 97       	sbiw	r30, 0x18	; 24
    3be0:	e6 17       	cp	r30, r22
    3be2:	f7 07       	cpc	r31, r23
    3be4:	08 f4       	brcc	.+2      	; 0x3be8 <ILI9486_Print_Char14x24+0x36>
    3be6:	86 c0       	rjmp	.+268    	; 0x3cf4 <ILI9486_Print_Char14x24+0x142>
    3be8:	b2 2e       	mov	r11, r18
    3bea:	c4 2e       	mov	r12, r20
    3bec:	8b 01       	movw	r16, r22
    3bee:	4c 01       	movw	r8, r24
    3bf0:	9b 01       	movw	r18, r22
    3bf2:	29 5e       	subi	r18, 0xE9	; 233
    3bf4:	3f 4f       	sbci	r19, 0xFF	; 255
    3bf6:	ac 01       	movw	r20, r24
    3bf8:	41 5f       	subi	r20, 0xF1	; 241
    3bfa:	5f 4f       	sbci	r21, 0xFF	; 255
    3bfc:	0e 94 0c 18 	call	0x3018	; 0x3018 <ILI9486_SetAddrWindow>
    3c00:	d1 2c       	mov	r13, r1
    3c02:	75 c0       	rjmp	.+234    	; 0x3cee <ILI9486_Print_Char14x24+0x13c>
    3c04:	2c 2d       	mov	r18, r12
    3c06:	30 e0       	ldi	r19, 0x00	; 0
    3c08:	21 54       	subi	r18, 0x41	; 65
    3c0a:	31 09       	sbc	r19, r1
    3c0c:	8a e2       	ldi	r24, 0x2A	; 42
    3c0e:	82 9f       	mul	r24, r18
    3c10:	f0 01       	movw	r30, r0
    3c12:	83 9f       	mul	r24, r19
    3c14:	f0 0d       	add	r31, r0
    3c16:	11 24       	eor	r1, r1
    3c18:	8c 2f       	mov	r24, r28
    3c1a:	90 e0       	ldi	r25, 0x00	; 0
    3c1c:	9c 01       	movw	r18, r24
    3c1e:	22 0f       	add	r18, r18
    3c20:	33 1f       	adc	r19, r19
    3c22:	82 0f       	add	r24, r18
    3c24:	93 1f       	adc	r25, r19
    3c26:	e8 0f       	add	r30, r24
    3c28:	f9 1f       	adc	r31, r25
    3c2a:	2d 2d       	mov	r18, r13
    3c2c:	30 e0       	ldi	r19, 0x00	; 0
    3c2e:	e2 0f       	add	r30, r18
    3c30:	f3 1f       	adc	r31, r19
    3c32:	ee 5d       	subi	r30, 0xDE	; 222
    3c34:	fa 4d       	sbci	r31, 0xDA	; 218
    3c36:	84 91       	lpm	r24, Z
    3c38:	b1 10       	cpse	r11, r1
    3c3a:	2d c0       	rjmp	.+90     	; 0x3c96 <ILI9486_Print_Char14x24+0xe4>
    3c3c:	90 e0       	ldi	r25, 0x00	; 0
    3c3e:	0e 2c       	mov	r0, r14
    3c40:	02 c0       	rjmp	.+4      	; 0x3c46 <ILI9486_Print_Char14x24+0x94>
    3c42:	95 95       	asr	r25
    3c44:	87 95       	ror	r24
    3c46:	0a 94       	dec	r0
    3c48:	e2 f7       	brpl	.-8      	; 0x3c42 <ILI9486_Print_Char14x24+0x90>
    3c4a:	80 ff       	sbrs	r24, 0
    3c4c:	12 c0       	rjmp	.+36     	; 0x3c72 <ILI9486_Print_Char14x24+0xc0>
    3c4e:	85 b3       	in	r24, 0x15	; 21
    3c50:	8f 7b       	andi	r24, 0xBF	; 191
    3c52:	85 bb       	out	0x15, r24	; 21
    3c54:	85 b3       	in	r24, 0x15	; 21
    3c56:	80 62       	ori	r24, 0x20	; 32
    3c58:	85 bb       	out	0x15, r24	; 21
    3c5a:	80 91 c6 02 	lds	r24, 0x02C6	; 0x8002c6 <POINT_COLOR+0x1>
    3c5e:	0e 94 87 15 	call	0x2b0e	; 0x2b0e <ILI9486_Write8>
    3c62:	80 91 c5 02 	lds	r24, 0x02C5	; 0x8002c5 <POINT_COLOR>
    3c66:	0e 94 87 15 	call	0x2b0e	; 0x2b0e <ILI9486_Write8>
    3c6a:	85 b3       	in	r24, 0x15	; 21
    3c6c:	80 64       	ori	r24, 0x40	; 64
    3c6e:	85 bb       	out	0x15, r24	; 21
    3c70:	31 c0       	rjmp	.+98     	; 0x3cd4 <ILI9486_Print_Char14x24+0x122>
    3c72:	85 b3       	in	r24, 0x15	; 21
    3c74:	8f 7b       	andi	r24, 0xBF	; 191
    3c76:	85 bb       	out	0x15, r24	; 21
    3c78:	85 b3       	in	r24, 0x15	; 21
    3c7a:	80 62       	ori	r24, 0x20	; 32
    3c7c:	85 bb       	out	0x15, r24	; 21
    3c7e:	80 91 c4 02 	lds	r24, 0x02C4	; 0x8002c4 <BACK_COLOR+0x1>
    3c82:	0e 94 87 15 	call	0x2b0e	; 0x2b0e <ILI9486_Write8>
    3c86:	80 91 c3 02 	lds	r24, 0x02C3	; 0x8002c3 <BACK_COLOR>
    3c8a:	0e 94 87 15 	call	0x2b0e	; 0x2b0e <ILI9486_Write8>
    3c8e:	85 b3       	in	r24, 0x15	; 21
    3c90:	80 64       	ori	r24, 0x40	; 64
    3c92:	85 bb       	out	0x15, r24	; 21
    3c94:	1f c0       	rjmp	.+62     	; 0x3cd4 <ILI9486_Print_Char14x24+0x122>
    3c96:	4e 2d       	mov	r20, r14
    3c98:	50 e0       	ldi	r21, 0x00	; 0
    3c9a:	90 e0       	ldi	r25, 0x00	; 0
    3c9c:	0e 2c       	mov	r0, r14
    3c9e:	02 c0       	rjmp	.+4      	; 0x3ca4 <ILI9486_Print_Char14x24+0xf2>
    3ca0:	95 95       	asr	r25
    3ca2:	87 95       	ror	r24
    3ca4:	0a 94       	dec	r0
    3ca6:	e2 f7       	brpl	.-8      	; 0x3ca0 <ILI9486_Print_Char14x24+0xee>
    3ca8:	80 ff       	sbrs	r24, 0
    3caa:	14 c0       	rjmp	.+40     	; 0x3cd4 <ILI9486_Print_Char14x24+0x122>
    3cac:	b9 01       	movw	r22, r18
    3cae:	66 0f       	add	r22, r22
    3cb0:	77 1f       	adc	r23, r23
    3cb2:	66 0f       	add	r22, r22
    3cb4:	77 1f       	adc	r23, r23
    3cb6:	66 0f       	add	r22, r22
    3cb8:	77 1f       	adc	r23, r23
    3cba:	64 0f       	add	r22, r20
    3cbc:	75 1f       	adc	r23, r21
    3cbe:	40 91 c5 02 	lds	r20, 0x02C5	; 0x8002c5 <POINT_COLOR>
    3cc2:	50 91 c6 02 	lds	r21, 0x02C6	; 0x8002c6 <POINT_COLOR+0x1>
    3cc6:	60 0f       	add	r22, r16
    3cc8:	71 1f       	adc	r23, r17
    3cca:	c4 01       	movw	r24, r8
    3ccc:	8c 0f       	add	r24, r28
    3cce:	91 1d       	adc	r25, r1
    3cd0:	0e 94 6d 18 	call	0x30da	; 0x30da <ILI9486_drawPixel>
    3cd4:	cf 5f       	subi	r28, 0xFF	; 255
    3cd6:	01 c0       	rjmp	.+2      	; 0x3cda <ILI9486_Print_Char14x24+0x128>
    3cd8:	c0 e0       	ldi	r28, 0x00	; 0
    3cda:	ce 30       	cpi	r28, 0x0E	; 14
    3cdc:	08 f4       	brcc	.+2      	; 0x3ce0 <ILI9486_Print_Char14x24+0x12e>
    3cde:	92 cf       	rjmp	.-220    	; 0x3c04 <ILI9486_Print_Char14x24+0x52>
    3ce0:	e3 94       	inc	r14
    3ce2:	01 c0       	rjmp	.+2      	; 0x3ce6 <ILI9486_Print_Char14x24+0x134>
    3ce4:	e1 2c       	mov	r14, r1
    3ce6:	87 e0       	ldi	r24, 0x07	; 7
    3ce8:	8e 15       	cp	r24, r14
    3cea:	b0 f7       	brcc	.-20     	; 0x3cd8 <ILI9486_Print_Char14x24+0x126>
    3cec:	d3 94       	inc	r13
    3cee:	82 e0       	ldi	r24, 0x02	; 2
    3cf0:	8d 15       	cp	r24, r13
    3cf2:	c0 f7       	brcc	.-16     	; 0x3ce4 <ILI9486_Print_Char14x24+0x132>
    3cf4:	cf 91       	pop	r28
    3cf6:	1f 91       	pop	r17
    3cf8:	0f 91       	pop	r16
    3cfa:	ef 90       	pop	r14
    3cfc:	df 90       	pop	r13
    3cfe:	cf 90       	pop	r12
    3d00:	bf 90       	pop	r11
    3d02:	9f 90       	pop	r9
    3d04:	8f 90       	pop	r8
    3d06:	08 95       	ret

00003d08 <ILI9486_Print_Char18x32>:
    3d08:	8f 92       	push	r8
    3d0a:	9f 92       	push	r9
    3d0c:	bf 92       	push	r11
    3d0e:	cf 92       	push	r12
    3d10:	df 92       	push	r13
    3d12:	ef 92       	push	r14
    3d14:	0f 93       	push	r16
    3d16:	1f 93       	push	r17
    3d18:	cf 93       	push	r28
    3d1a:	e0 91 52 02 	lds	r30, 0x0252	; 0x800252 <X_SIZE>
    3d1e:	f0 91 53 02 	lds	r31, 0x0253	; 0x800253 <X_SIZE+0x1>
    3d22:	72 97       	sbiw	r30, 0x12	; 18
    3d24:	e8 17       	cp	r30, r24
    3d26:	f9 07       	cpc	r31, r25
    3d28:	08 f4       	brcc	.+2      	; 0x3d2c <ILI9486_Print_Char18x32+0x24>
    3d2a:	90 c0       	rjmp	.+288    	; 0x3e4c <ILI9486_Print_Char18x32+0x144>
    3d2c:	e0 91 50 02 	lds	r30, 0x0250	; 0x800250 <__data_end>
    3d30:	f0 91 51 02 	lds	r31, 0x0251	; 0x800251 <__data_end+0x1>
    3d34:	b0 97       	sbiw	r30, 0x20	; 32
    3d36:	e6 17       	cp	r30, r22
    3d38:	f7 07       	cpc	r31, r23
    3d3a:	08 f4       	brcc	.+2      	; 0x3d3e <ILI9486_Print_Char18x32+0x36>
    3d3c:	87 c0       	rjmp	.+270    	; 0x3e4c <ILI9486_Print_Char18x32+0x144>
    3d3e:	b2 2e       	mov	r11, r18
    3d40:	c4 2e       	mov	r12, r20
    3d42:	8b 01       	movw	r16, r22
    3d44:	4c 01       	movw	r8, r24
    3d46:	9b 01       	movw	r18, r22
    3d48:	21 5e       	subi	r18, 0xE1	; 225
    3d4a:	3f 4f       	sbci	r19, 0xFF	; 255
    3d4c:	ac 01       	movw	r20, r24
    3d4e:	4f 5e       	subi	r20, 0xEF	; 239
    3d50:	5f 4f       	sbci	r21, 0xFF	; 255
    3d52:	0e 94 0c 18 	call	0x3018	; 0x3018 <ILI9486_SetAddrWindow>
    3d56:	d1 2c       	mov	r13, r1
    3d58:	76 c0       	rjmp	.+236    	; 0x3e46 <ILI9486_Print_Char18x32+0x13e>
    3d5a:	ec 2d       	mov	r30, r12
    3d5c:	f0 e0       	ldi	r31, 0x00	; 0
    3d5e:	b0 97       	sbiw	r30, 0x20	; 32
    3d60:	ee 0f       	add	r30, r30
    3d62:	ff 1f       	adc	r31, r31
    3d64:	cf 01       	movw	r24, r30
    3d66:	88 0f       	add	r24, r24
    3d68:	99 1f       	adc	r25, r25
    3d6a:	88 0f       	add	r24, r24
    3d6c:	99 1f       	adc	r25, r25
    3d6e:	88 0f       	add	r24, r24
    3d70:	99 1f       	adc	r25, r25
    3d72:	e8 0f       	add	r30, r24
    3d74:	f9 1f       	adc	r31, r25
    3d76:	ec 0f       	add	r30, r28
    3d78:	f1 1d       	adc	r31, r1
    3d7a:	ee 0f       	add	r30, r30
    3d7c:	ff 1f       	adc	r31, r31
    3d7e:	ee 0f       	add	r30, r30
    3d80:	ff 1f       	adc	r31, r31
    3d82:	2d 2d       	mov	r18, r13
    3d84:	30 e0       	ldi	r19, 0x00	; 0
    3d86:	e2 0f       	add	r30, r18
    3d88:	f3 1f       	adc	r31, r19
    3d8a:	ee 5d       	subi	r30, 0xDE	; 222
    3d8c:	f5 4f       	sbci	r31, 0xF5	; 245
    3d8e:	84 91       	lpm	r24, Z
    3d90:	b1 10       	cpse	r11, r1
    3d92:	2d c0       	rjmp	.+90     	; 0x3dee <ILI9486_Print_Char18x32+0xe6>
    3d94:	90 e0       	ldi	r25, 0x00	; 0
    3d96:	0e 2c       	mov	r0, r14
    3d98:	02 c0       	rjmp	.+4      	; 0x3d9e <ILI9486_Print_Char18x32+0x96>
    3d9a:	95 95       	asr	r25
    3d9c:	87 95       	ror	r24
    3d9e:	0a 94       	dec	r0
    3da0:	e2 f7       	brpl	.-8      	; 0x3d9a <ILI9486_Print_Char18x32+0x92>
    3da2:	80 ff       	sbrs	r24, 0
    3da4:	12 c0       	rjmp	.+36     	; 0x3dca <ILI9486_Print_Char18x32+0xc2>
    3da6:	85 b3       	in	r24, 0x15	; 21
    3da8:	8f 7b       	andi	r24, 0xBF	; 191
    3daa:	85 bb       	out	0x15, r24	; 21
    3dac:	85 b3       	in	r24, 0x15	; 21
    3dae:	80 62       	ori	r24, 0x20	; 32
    3db0:	85 bb       	out	0x15, r24	; 21
    3db2:	80 91 c6 02 	lds	r24, 0x02C6	; 0x8002c6 <POINT_COLOR+0x1>
    3db6:	0e 94 87 15 	call	0x2b0e	; 0x2b0e <ILI9486_Write8>
    3dba:	80 91 c5 02 	lds	r24, 0x02C5	; 0x8002c5 <POINT_COLOR>
    3dbe:	0e 94 87 15 	call	0x2b0e	; 0x2b0e <ILI9486_Write8>
    3dc2:	85 b3       	in	r24, 0x15	; 21
    3dc4:	80 64       	ori	r24, 0x40	; 64
    3dc6:	85 bb       	out	0x15, r24	; 21
    3dc8:	31 c0       	rjmp	.+98     	; 0x3e2c <ILI9486_Print_Char18x32+0x124>
    3dca:	85 b3       	in	r24, 0x15	; 21
    3dcc:	8f 7b       	andi	r24, 0xBF	; 191
    3dce:	85 bb       	out	0x15, r24	; 21
    3dd0:	85 b3       	in	r24, 0x15	; 21
    3dd2:	80 62       	ori	r24, 0x20	; 32
    3dd4:	85 bb       	out	0x15, r24	; 21
    3dd6:	80 91 c4 02 	lds	r24, 0x02C4	; 0x8002c4 <BACK_COLOR+0x1>
    3dda:	0e 94 87 15 	call	0x2b0e	; 0x2b0e <ILI9486_Write8>
    3dde:	80 91 c3 02 	lds	r24, 0x02C3	; 0x8002c3 <BACK_COLOR>
    3de2:	0e 94 87 15 	call	0x2b0e	; 0x2b0e <ILI9486_Write8>
    3de6:	85 b3       	in	r24, 0x15	; 21
    3de8:	80 64       	ori	r24, 0x40	; 64
    3dea:	85 bb       	out	0x15, r24	; 21
    3dec:	1f c0       	rjmp	.+62     	; 0x3e2c <ILI9486_Print_Char18x32+0x124>
    3dee:	4e 2d       	mov	r20, r14
    3df0:	50 e0       	ldi	r21, 0x00	; 0
    3df2:	90 e0       	ldi	r25, 0x00	; 0
    3df4:	0e 2c       	mov	r0, r14
    3df6:	02 c0       	rjmp	.+4      	; 0x3dfc <ILI9486_Print_Char18x32+0xf4>
    3df8:	95 95       	asr	r25
    3dfa:	87 95       	ror	r24
    3dfc:	0a 94       	dec	r0
    3dfe:	e2 f7       	brpl	.-8      	; 0x3df8 <ILI9486_Print_Char18x32+0xf0>
    3e00:	80 ff       	sbrs	r24, 0
    3e02:	14 c0       	rjmp	.+40     	; 0x3e2c <ILI9486_Print_Char18x32+0x124>
    3e04:	b9 01       	movw	r22, r18
    3e06:	66 0f       	add	r22, r22
    3e08:	77 1f       	adc	r23, r23
    3e0a:	66 0f       	add	r22, r22
    3e0c:	77 1f       	adc	r23, r23
    3e0e:	66 0f       	add	r22, r22
    3e10:	77 1f       	adc	r23, r23
    3e12:	64 0f       	add	r22, r20
    3e14:	75 1f       	adc	r23, r21
    3e16:	40 91 c5 02 	lds	r20, 0x02C5	; 0x8002c5 <POINT_COLOR>
    3e1a:	50 91 c6 02 	lds	r21, 0x02C6	; 0x8002c6 <POINT_COLOR+0x1>
    3e1e:	60 0f       	add	r22, r16
    3e20:	71 1f       	adc	r23, r17
    3e22:	c4 01       	movw	r24, r8
    3e24:	8c 0f       	add	r24, r28
    3e26:	91 1d       	adc	r25, r1
    3e28:	0e 94 6d 18 	call	0x30da	; 0x30da <ILI9486_drawPixel>
    3e2c:	cf 5f       	subi	r28, 0xFF	; 255
    3e2e:	01 c0       	rjmp	.+2      	; 0x3e32 <ILI9486_Print_Char18x32+0x12a>
    3e30:	c0 e0       	ldi	r28, 0x00	; 0
    3e32:	c2 31       	cpi	r28, 0x12	; 18
    3e34:	08 f4       	brcc	.+2      	; 0x3e38 <ILI9486_Print_Char18x32+0x130>
    3e36:	91 cf       	rjmp	.-222    	; 0x3d5a <ILI9486_Print_Char18x32+0x52>
    3e38:	e3 94       	inc	r14
    3e3a:	01 c0       	rjmp	.+2      	; 0x3e3e <ILI9486_Print_Char18x32+0x136>
    3e3c:	e1 2c       	mov	r14, r1
    3e3e:	87 e0       	ldi	r24, 0x07	; 7
    3e40:	8e 15       	cp	r24, r14
    3e42:	b0 f7       	brcc	.-20     	; 0x3e30 <ILI9486_Print_Char18x32+0x128>
    3e44:	d3 94       	inc	r13
    3e46:	83 e0       	ldi	r24, 0x03	; 3
    3e48:	8d 15       	cp	r24, r13
    3e4a:	c0 f7       	brcc	.-16     	; 0x3e3c <ILI9486_Print_Char18x32+0x134>
    3e4c:	cf 91       	pop	r28
    3e4e:	1f 91       	pop	r17
    3e50:	0f 91       	pop	r16
    3e52:	ef 90       	pop	r14
    3e54:	df 90       	pop	r13
    3e56:	cf 90       	pop	r12
    3e58:	bf 90       	pop	r11
    3e5a:	9f 90       	pop	r9
    3e5c:	8f 90       	pop	r8
    3e5e:	08 95       	ret

00003e60 <ILI9486_Print_Char32x48>:
    3e60:	8f 92       	push	r8
    3e62:	9f 92       	push	r9
    3e64:	bf 92       	push	r11
    3e66:	cf 92       	push	r12
    3e68:	df 92       	push	r13
    3e6a:	ef 92       	push	r14
    3e6c:	0f 93       	push	r16
    3e6e:	1f 93       	push	r17
    3e70:	cf 93       	push	r28
    3e72:	e0 91 52 02 	lds	r30, 0x0252	; 0x800252 <X_SIZE>
    3e76:	f0 91 53 02 	lds	r31, 0x0253	; 0x800253 <X_SIZE+0x1>
    3e7a:	b0 97       	sbiw	r30, 0x20	; 32
    3e7c:	e8 17       	cp	r30, r24
    3e7e:	f9 07       	cpc	r31, r25
    3e80:	08 f4       	brcc	.+2      	; 0x3e84 <ILI9486_Print_Char32x48+0x24>
    3e82:	91 c0       	rjmp	.+290    	; 0x3fa6 <ILI9486_Print_Char32x48+0x146>
    3e84:	e0 91 50 02 	lds	r30, 0x0250	; 0x800250 <__data_end>
    3e88:	f0 91 51 02 	lds	r31, 0x0251	; 0x800251 <__data_end+0x1>
    3e8c:	f0 97       	sbiw	r30, 0x30	; 48
    3e8e:	e6 17       	cp	r30, r22
    3e90:	f7 07       	cpc	r31, r23
    3e92:	08 f4       	brcc	.+2      	; 0x3e96 <ILI9486_Print_Char32x48+0x36>
    3e94:	88 c0       	rjmp	.+272    	; 0x3fa6 <ILI9486_Print_Char32x48+0x146>
    3e96:	b2 2e       	mov	r11, r18
    3e98:	c4 2e       	mov	r12, r20
    3e9a:	8b 01       	movw	r16, r22
    3e9c:	4c 01       	movw	r8, r24
    3e9e:	9b 01       	movw	r18, r22
    3ea0:	21 50       	subi	r18, 0x01	; 1
    3ea2:	31 09       	sbc	r19, r1
    3ea4:	ac 01       	movw	r20, r24
    3ea6:	41 50       	subi	r20, 0x01	; 1
    3ea8:	51 09       	sbc	r21, r1
    3eaa:	0e 94 0c 18 	call	0x3018	; 0x3018 <ILI9486_SetAddrWindow>
    3eae:	d1 2c       	mov	r13, r1
    3eb0:	77 c0       	rjmp	.+238    	; 0x3fa0 <ILI9486_Print_Char32x48+0x140>
    3eb2:	2c 2d       	mov	r18, r12
    3eb4:	30 e0       	ldi	r19, 0x00	; 0
    3eb6:	2d 52       	subi	r18, 0x2D	; 45
    3eb8:	31 09       	sbc	r19, r1
    3eba:	80 ec       	ldi	r24, 0xC0	; 192
    3ebc:	82 9f       	mul	r24, r18
    3ebe:	f0 01       	movw	r30, r0
    3ec0:	83 9f       	mul	r24, r19
    3ec2:	f0 0d       	add	r31, r0
    3ec4:	11 24       	eor	r1, r1
    3ec6:	8c 2f       	mov	r24, r28
    3ec8:	90 e0       	ldi	r25, 0x00	; 0
    3eca:	9c 01       	movw	r18, r24
    3ecc:	22 0f       	add	r18, r18
    3ece:	33 1f       	adc	r19, r19
    3ed0:	82 0f       	add	r24, r18
    3ed2:	93 1f       	adc	r25, r19
    3ed4:	88 0f       	add	r24, r24
    3ed6:	99 1f       	adc	r25, r25
    3ed8:	e8 0f       	add	r30, r24
    3eda:	f9 1f       	adc	r31, r25
    3edc:	2d 2d       	mov	r18, r13
    3ede:	30 e0       	ldi	r19, 0x00	; 0
    3ee0:	e2 0f       	add	r30, r18
    3ee2:	f3 1f       	adc	r31, r19
    3ee4:	ee 59       	subi	r30, 0x9E	; 158
    3ee6:	ff 4f       	sbci	r31, 0xFF	; 255
    3ee8:	84 91       	lpm	r24, Z
    3eea:	b1 10       	cpse	r11, r1
    3eec:	2d c0       	rjmp	.+90     	; 0x3f48 <ILI9486_Print_Char32x48+0xe8>
    3eee:	90 e0       	ldi	r25, 0x00	; 0
    3ef0:	0e 2c       	mov	r0, r14
    3ef2:	02 c0       	rjmp	.+4      	; 0x3ef8 <ILI9486_Print_Char32x48+0x98>
    3ef4:	95 95       	asr	r25
    3ef6:	87 95       	ror	r24
    3ef8:	0a 94       	dec	r0
    3efa:	e2 f7       	brpl	.-8      	; 0x3ef4 <ILI9486_Print_Char32x48+0x94>
    3efc:	80 ff       	sbrs	r24, 0
    3efe:	12 c0       	rjmp	.+36     	; 0x3f24 <ILI9486_Print_Char32x48+0xc4>
    3f00:	85 b3       	in	r24, 0x15	; 21
    3f02:	8f 7b       	andi	r24, 0xBF	; 191
    3f04:	85 bb       	out	0x15, r24	; 21
    3f06:	85 b3       	in	r24, 0x15	; 21
    3f08:	80 62       	ori	r24, 0x20	; 32
    3f0a:	85 bb       	out	0x15, r24	; 21
    3f0c:	80 91 c6 02 	lds	r24, 0x02C6	; 0x8002c6 <POINT_COLOR+0x1>
    3f10:	0e 94 87 15 	call	0x2b0e	; 0x2b0e <ILI9486_Write8>
    3f14:	80 91 c5 02 	lds	r24, 0x02C5	; 0x8002c5 <POINT_COLOR>
    3f18:	0e 94 87 15 	call	0x2b0e	; 0x2b0e <ILI9486_Write8>
    3f1c:	85 b3       	in	r24, 0x15	; 21
    3f1e:	80 64       	ori	r24, 0x40	; 64
    3f20:	85 bb       	out	0x15, r24	; 21
    3f22:	31 c0       	rjmp	.+98     	; 0x3f86 <ILI9486_Print_Char32x48+0x126>
    3f24:	85 b3       	in	r24, 0x15	; 21
    3f26:	8f 7b       	andi	r24, 0xBF	; 191
    3f28:	85 bb       	out	0x15, r24	; 21
    3f2a:	85 b3       	in	r24, 0x15	; 21
    3f2c:	80 62       	ori	r24, 0x20	; 32
    3f2e:	85 bb       	out	0x15, r24	; 21
    3f30:	80 91 c4 02 	lds	r24, 0x02C4	; 0x8002c4 <BACK_COLOR+0x1>
    3f34:	0e 94 87 15 	call	0x2b0e	; 0x2b0e <ILI9486_Write8>
    3f38:	80 91 c3 02 	lds	r24, 0x02C3	; 0x8002c3 <BACK_COLOR>
    3f3c:	0e 94 87 15 	call	0x2b0e	; 0x2b0e <ILI9486_Write8>
    3f40:	85 b3       	in	r24, 0x15	; 21
    3f42:	80 64       	ori	r24, 0x40	; 64
    3f44:	85 bb       	out	0x15, r24	; 21
    3f46:	1f c0       	rjmp	.+62     	; 0x3f86 <ILI9486_Print_Char32x48+0x126>
    3f48:	4e 2d       	mov	r20, r14
    3f4a:	50 e0       	ldi	r21, 0x00	; 0
    3f4c:	90 e0       	ldi	r25, 0x00	; 0
    3f4e:	0e 2c       	mov	r0, r14
    3f50:	02 c0       	rjmp	.+4      	; 0x3f56 <ILI9486_Print_Char32x48+0xf6>
    3f52:	95 95       	asr	r25
    3f54:	87 95       	ror	r24
    3f56:	0a 94       	dec	r0
    3f58:	e2 f7       	brpl	.-8      	; 0x3f52 <ILI9486_Print_Char32x48+0xf2>
    3f5a:	80 ff       	sbrs	r24, 0
    3f5c:	14 c0       	rjmp	.+40     	; 0x3f86 <ILI9486_Print_Char32x48+0x126>
    3f5e:	b9 01       	movw	r22, r18
    3f60:	66 0f       	add	r22, r22
    3f62:	77 1f       	adc	r23, r23
    3f64:	66 0f       	add	r22, r22
    3f66:	77 1f       	adc	r23, r23
    3f68:	66 0f       	add	r22, r22
    3f6a:	77 1f       	adc	r23, r23
    3f6c:	64 0f       	add	r22, r20
    3f6e:	75 1f       	adc	r23, r21
    3f70:	40 91 c5 02 	lds	r20, 0x02C5	; 0x8002c5 <POINT_COLOR>
    3f74:	50 91 c6 02 	lds	r21, 0x02C6	; 0x8002c6 <POINT_COLOR+0x1>
    3f78:	60 0f       	add	r22, r16
    3f7a:	71 1f       	adc	r23, r17
    3f7c:	c4 01       	movw	r24, r8
    3f7e:	8c 0f       	add	r24, r28
    3f80:	91 1d       	adc	r25, r1
    3f82:	0e 94 6d 18 	call	0x30da	; 0x30da <ILI9486_drawPixel>
    3f86:	cf 5f       	subi	r28, 0xFF	; 255
    3f88:	01 c0       	rjmp	.+2      	; 0x3f8c <ILI9486_Print_Char32x48+0x12c>
    3f8a:	c0 e0       	ldi	r28, 0x00	; 0
    3f8c:	c0 32       	cpi	r28, 0x20	; 32
    3f8e:	08 f4       	brcc	.+2      	; 0x3f92 <ILI9486_Print_Char32x48+0x132>
    3f90:	90 cf       	rjmp	.-224    	; 0x3eb2 <ILI9486_Print_Char32x48+0x52>
    3f92:	e3 94       	inc	r14
    3f94:	01 c0       	rjmp	.+2      	; 0x3f98 <ILI9486_Print_Char32x48+0x138>
    3f96:	e1 2c       	mov	r14, r1
    3f98:	87 e0       	ldi	r24, 0x07	; 7
    3f9a:	8e 15       	cp	r24, r14
    3f9c:	b0 f7       	brcc	.-20     	; 0x3f8a <ILI9486_Print_Char32x48+0x12a>
    3f9e:	d3 94       	inc	r13
    3fa0:	85 e0       	ldi	r24, 0x05	; 5
    3fa2:	8d 15       	cp	r24, r13
    3fa4:	c0 f7       	brcc	.-16     	; 0x3f96 <ILI9486_Print_Char32x48+0x136>
    3fa6:	cf 91       	pop	r28
    3fa8:	1f 91       	pop	r17
    3faa:	0f 91       	pop	r16
    3fac:	ef 90       	pop	r14
    3fae:	df 90       	pop	r13
    3fb0:	cf 90       	pop	r12
    3fb2:	bf 90       	pop	r11
    3fb4:	9f 90       	pop	r9
    3fb6:	8f 90       	pop	r8
    3fb8:	08 95       	ret

00003fba <ILI9486_SetCursor>:
    3fba:	70 93 ca 02 	sts	0x02CA, r23	; 0x8002ca <cursor_x+0x1>
    3fbe:	60 93 c9 02 	sts	0x02C9, r22	; 0x8002c9 <cursor_x>
    3fc2:	90 93 c8 02 	sts	0x02C8, r25	; 0x8002c8 <cursor_y+0x1>
    3fc6:	80 93 c7 02 	sts	0x02C7, r24	; 0x8002c7 <cursor_y>
    3fca:	08 95       	ret

00003fcc <ILI9486_Print_String18x32>:
    3fcc:	0f 93       	push	r16
    3fce:	1f 93       	push	r17
    3fd0:	cf 93       	push	r28
    3fd2:	df 93       	push	r29
    3fd4:	ec 01       	movw	r28, r24
    3fd6:	06 2f       	mov	r16, r22
    3fd8:	10 e0       	ldi	r17, 0x00	; 0
    3fda:	5d c0       	rjmp	.+186    	; 0x4096 <ILI9486_Print_String18x32+0xca>
    3fdc:	22 23       	and	r18, r18
    3fde:	09 f4       	brne	.+2      	; 0x3fe2 <ILI9486_Print_String18x32+0x16>
    3fe0:	62 c0       	rjmp	.+196    	; 0x40a6 <ILI9486_Print_String18x32+0xda>
    3fe2:	2a 30       	cpi	r18, 0x0A	; 10
    3fe4:	79 f4       	brne	.+30     	; 0x4004 <ILI9486_Print_String18x32+0x38>
    3fe6:	20 91 c9 02 	lds	r18, 0x02C9	; 0x8002c9 <cursor_x>
    3fea:	30 91 ca 02 	lds	r19, 0x02CA	; 0x8002ca <cursor_x+0x1>
    3fee:	20 5e       	subi	r18, 0xE0	; 224
    3ff0:	3f 4f       	sbci	r19, 0xFF	; 255
    3ff2:	30 93 ca 02 	sts	0x02CA, r19	; 0x8002ca <cursor_x+0x1>
    3ff6:	20 93 c9 02 	sts	0x02C9, r18	; 0x8002c9 <cursor_x>
    3ffa:	10 92 c8 02 	sts	0x02C8, r1	; 0x8002c8 <cursor_y+0x1>
    3ffe:	10 92 c7 02 	sts	0x02C7, r1	; 0x8002c7 <cursor_y>
    4002:	21 96       	adiw	r28, 0x01	; 1
    4004:	20 91 52 02 	lds	r18, 0x0252	; 0x800252 <X_SIZE>
    4008:	30 91 53 02 	lds	r19, 0x0253	; 0x800253 <X_SIZE+0x1>
    400c:	22 51       	subi	r18, 0x12	; 18
    400e:	31 09       	sbc	r19, r1
    4010:	40 91 c7 02 	lds	r20, 0x02C7	; 0x8002c7 <cursor_y>
    4014:	50 91 c8 02 	lds	r21, 0x02C8	; 0x8002c8 <cursor_y+0x1>
    4018:	24 17       	cp	r18, r20
    401a:	35 07       	cpc	r19, r21
    401c:	70 f4       	brcc	.+28     	; 0x403a <ILI9486_Print_String18x32+0x6e>
    401e:	10 92 c8 02 	sts	0x02C8, r1	; 0x8002c8 <cursor_y+0x1>
    4022:	10 92 c7 02 	sts	0x02C7, r1	; 0x8002c7 <cursor_y>
    4026:	20 91 c9 02 	lds	r18, 0x02C9	; 0x8002c9 <cursor_x>
    402a:	30 91 ca 02 	lds	r19, 0x02CA	; 0x8002ca <cursor_x+0x1>
    402e:	20 5e       	subi	r18, 0xE0	; 224
    4030:	3f 4f       	sbci	r19, 0xFF	; 255
    4032:	30 93 ca 02 	sts	0x02CA, r19	; 0x8002ca <cursor_x+0x1>
    4036:	20 93 c9 02 	sts	0x02C9, r18	; 0x8002c9 <cursor_x>
    403a:	20 91 50 02 	lds	r18, 0x0250	; 0x800250 <__data_end>
    403e:	30 91 51 02 	lds	r19, 0x0251	; 0x800251 <__data_end+0x1>
    4042:	20 52       	subi	r18, 0x20	; 32
    4044:	31 09       	sbc	r19, r1
    4046:	40 91 c9 02 	lds	r20, 0x02C9	; 0x8002c9 <cursor_x>
    404a:	50 91 ca 02 	lds	r21, 0x02CA	; 0x8002ca <cursor_x+0x1>
    404e:	24 17       	cp	r18, r20
    4050:	35 07       	cpc	r19, r21
    4052:	40 f4       	brcc	.+16     	; 0x4064 <ILI9486_Print_String18x32+0x98>
    4054:	10 92 c8 02 	sts	0x02C8, r1	; 0x8002c8 <cursor_y+0x1>
    4058:	10 92 c7 02 	sts	0x02C7, r1	; 0x8002c7 <cursor_y>
    405c:	10 92 ca 02 	sts	0x02CA, r1	; 0x8002ca <cursor_x+0x1>
    4060:	10 92 c9 02 	sts	0x02C9, r1	; 0x8002c9 <cursor_x>
    4064:	fe 01       	movw	r30, r28
    4066:	e8 0f       	add	r30, r24
    4068:	f9 1f       	adc	r31, r25
    406a:	60 91 c9 02 	lds	r22, 0x02C9	; 0x8002c9 <cursor_x>
    406e:	70 91 ca 02 	lds	r23, 0x02CA	; 0x8002ca <cursor_x+0x1>
    4072:	20 2f       	mov	r18, r16
    4074:	40 81       	ld	r20, Z
    4076:	80 91 c7 02 	lds	r24, 0x02C7	; 0x8002c7 <cursor_y>
    407a:	90 91 c8 02 	lds	r25, 0x02C8	; 0x8002c8 <cursor_y+0x1>
    407e:	0e 94 84 1e 	call	0x3d08	; 0x3d08 <ILI9486_Print_Char18x32>
    4082:	80 91 c7 02 	lds	r24, 0x02C7	; 0x8002c7 <cursor_y>
    4086:	90 91 c8 02 	lds	r25, 0x02C8	; 0x8002c8 <cursor_y+0x1>
    408a:	42 96       	adiw	r24, 0x12	; 18
    408c:	90 93 c8 02 	sts	0x02C8, r25	; 0x8002c8 <cursor_y+0x1>
    4090:	80 93 c7 02 	sts	0x02C7, r24	; 0x8002c7 <cursor_y>
    4094:	1f 5f       	subi	r17, 0xFF	; 255
    4096:	81 2f       	mov	r24, r17
    4098:	90 e0       	ldi	r25, 0x00	; 0
    409a:	fe 01       	movw	r30, r28
    409c:	e8 0f       	add	r30, r24
    409e:	f9 1f       	adc	r31, r25
    40a0:	20 81       	ld	r18, Z
    40a2:	21 11       	cpse	r18, r1
    40a4:	9b cf       	rjmp	.-202    	; 0x3fdc <ILI9486_Print_String18x32+0x10>
    40a6:	df 91       	pop	r29
    40a8:	cf 91       	pop	r28
    40aa:	1f 91       	pop	r17
    40ac:	0f 91       	pop	r16
    40ae:	08 95       	ret

000040b0 <ILI9486_Print_String32x48>:
void ILI9486_Print_String32x48(uint8_t *string,uint8_t TFT_STRING_MODE)
{
    40b0:	0f 93       	push	r16
    40b2:	1f 93       	push	r17
    40b4:	cf 93       	push	r28
    40b6:	df 93       	push	r29
    40b8:	ec 01       	movw	r28, r24
    40ba:	06 2f       	mov	r16, r22
	uint8_t i=0;
    40bc:	10 e0       	ldi	r17, 0x00	; 0
	uint8_t font_w=30;
	uint8_t font_h=40;

	while(*(string+i)!='\0')
    40be:	5d c0       	rjmp	.+186    	; 0x417a <ILI9486_Print_String32x48+0xca>
	{

		if(*(string+i)==0)
    40c0:	22 23       	and	r18, r18
    40c2:	09 f4       	brne	.+2      	; 0x40c6 <ILI9486_Print_String32x48+0x16>
    40c4:	62 c0       	rjmp	.+196    	; 0x418a <ILI9486_Print_String32x48+0xda>
		{
			return;
		}

		if(*(string+i)=='\n')
    40c6:	2a 30       	cpi	r18, 0x0A	; 10
    40c8:	79 f4       	brne	.+30     	; 0x40e8 <ILI9486_Print_String32x48+0x38>
		{
			cursor_x+=font_h;
    40ca:	20 91 c9 02 	lds	r18, 0x02C9	; 0x8002c9 <cursor_x>
    40ce:	30 91 ca 02 	lds	r19, 0x02CA	; 0x8002ca <cursor_x+0x1>
    40d2:	28 5d       	subi	r18, 0xD8	; 216
    40d4:	3f 4f       	sbci	r19, 0xFF	; 255
    40d6:	30 93 ca 02 	sts	0x02CA, r19	; 0x8002ca <cursor_x+0x1>
    40da:	20 93 c9 02 	sts	0x02C9, r18	; 0x8002c9 <cursor_x>
			cursor_y=0;
    40de:	10 92 c8 02 	sts	0x02C8, r1	; 0x8002c8 <cursor_y+0x1>
    40e2:	10 92 c7 02 	sts	0x02C7, r1	; 0x8002c7 <cursor_y>
			string++;
    40e6:	21 96       	adiw	r28, 0x01	; 1
		}

		if(cursor_y>X_SIZE-font_w)
    40e8:	20 91 52 02 	lds	r18, 0x0252	; 0x800252 <X_SIZE>
    40ec:	30 91 53 02 	lds	r19, 0x0253	; 0x800253 <X_SIZE+0x1>
    40f0:	2e 51       	subi	r18, 0x1E	; 30
    40f2:	31 09       	sbc	r19, r1
    40f4:	40 91 c7 02 	lds	r20, 0x02C7	; 0x8002c7 <cursor_y>
    40f8:	50 91 c8 02 	lds	r21, 0x02C8	; 0x8002c8 <cursor_y+0x1>
    40fc:	24 17       	cp	r18, r20
    40fe:	35 07       	cpc	r19, r21
    4100:	70 f4       	brcc	.+28     	; 0x411e <ILI9486_Print_String32x48+0x6e>
		{
			cursor_y=0;cursor_x+=font_h;
    4102:	10 92 c8 02 	sts	0x02C8, r1	; 0x8002c8 <cursor_y+0x1>
    4106:	10 92 c7 02 	sts	0x02C7, r1	; 0x8002c7 <cursor_y>
    410a:	20 91 c9 02 	lds	r18, 0x02C9	; 0x8002c9 <cursor_x>
    410e:	30 91 ca 02 	lds	r19, 0x02CA	; 0x8002ca <cursor_x+0x1>
    4112:	28 5d       	subi	r18, 0xD8	; 216
    4114:	3f 4f       	sbci	r19, 0xFF	; 255
    4116:	30 93 ca 02 	sts	0x02CA, r19	; 0x8002ca <cursor_x+0x1>
    411a:	20 93 c9 02 	sts	0x02C9, r18	; 0x8002c9 <cursor_x>
		}

		if(cursor_x>Y_SIZE-font_h)
    411e:	20 91 50 02 	lds	r18, 0x0250	; 0x800250 <__data_end>
    4122:	30 91 51 02 	lds	r19, 0x0251	; 0x800251 <__data_end+0x1>
    4126:	28 52       	subi	r18, 0x28	; 40
    4128:	31 09       	sbc	r19, r1
    412a:	40 91 c9 02 	lds	r20, 0x02C9	; 0x8002c9 <cursor_x>
    412e:	50 91 ca 02 	lds	r21, 0x02CA	; 0x8002ca <cursor_x+0x1>
    4132:	24 17       	cp	r18, r20
    4134:	35 07       	cpc	r19, r21
    4136:	40 f4       	brcc	.+16     	; 0x4148 <ILI9486_Print_String32x48+0x98>
		{
			cursor_x=cursor_y=0;
    4138:	10 92 c8 02 	sts	0x02C8, r1	; 0x8002c8 <cursor_y+0x1>
    413c:	10 92 c7 02 	sts	0x02C7, r1	; 0x8002c7 <cursor_y>
    4140:	10 92 ca 02 	sts	0x02CA, r1	; 0x8002ca <cursor_x+0x1>
    4144:	10 92 c9 02 	sts	0x02C9, r1	; 0x8002c9 <cursor_x>
		}

		ILI9486_Print_Char32x48(cursor_y,cursor_x,*(string+i),TFT_STRING_MODE);
    4148:	fe 01       	movw	r30, r28
    414a:	e8 0f       	add	r30, r24
    414c:	f9 1f       	adc	r31, r25
    414e:	60 91 c9 02 	lds	r22, 0x02C9	; 0x8002c9 <cursor_x>
    4152:	70 91 ca 02 	lds	r23, 0x02CA	; 0x8002ca <cursor_x+0x1>
    4156:	20 2f       	mov	r18, r16
    4158:	40 81       	ld	r20, Z
    415a:	80 91 c7 02 	lds	r24, 0x02C7	; 0x8002c7 <cursor_y>
    415e:	90 91 c8 02 	lds	r25, 0x02C8	; 0x8002c8 <cursor_y+0x1>
    4162:	0e 94 30 1f 	call	0x3e60	; 0x3e60 <ILI9486_Print_Char32x48>
		cursor_y+=font_w;
    4166:	80 91 c7 02 	lds	r24, 0x02C7	; 0x8002c7 <cursor_y>
    416a:	90 91 c8 02 	lds	r25, 0x02C8	; 0x8002c8 <cursor_y+0x1>
    416e:	4e 96       	adiw	r24, 0x1e	; 30
    4170:	90 93 c8 02 	sts	0x02C8, r25	; 0x8002c8 <cursor_y+0x1>
    4174:	80 93 c7 02 	sts	0x02C7, r24	; 0x8002c7 <cursor_y>
		i++;
    4178:	1f 5f       	subi	r17, 0xFF	; 255
{
	uint8_t i=0;
	uint8_t font_w=30;
	uint8_t font_h=40;

	while(*(string+i)!='\0')
    417a:	81 2f       	mov	r24, r17
    417c:	90 e0       	ldi	r25, 0x00	; 0
    417e:	fe 01       	movw	r30, r28
    4180:	e8 0f       	add	r30, r24
    4182:	f9 1f       	adc	r31, r25
    4184:	20 81       	ld	r18, Z
    4186:	21 11       	cpse	r18, r1
    4188:	9b cf       	rjmp	.-202    	; 0x40c0 <ILI9486_Print_String32x48+0x10>

		ILI9486_Print_Char32x48(cursor_y,cursor_x,*(string+i),TFT_STRING_MODE);
		cursor_y+=font_w;
		i++;
	}
}
    418a:	df 91       	pop	r29
    418c:	cf 91       	pop	r28
    418e:	1f 91       	pop	r17
    4190:	0f 91       	pop	r16
    4192:	08 95       	ret

00004194 <ILI9486_Print_String14x24>:
void ILI9486_Print_String14x24(uint8_t *string,uint8_t TFT_STRING_MODE)
{
    4194:	0f 93       	push	r16
    4196:	1f 93       	push	r17
    4198:	cf 93       	push	r28
    419a:	df 93       	push	r29
    419c:	ec 01       	movw	r28, r24
    419e:	06 2f       	mov	r16, r22
	uint8_t i=0;
    41a0:	10 e0       	ldi	r17, 0x00	; 0
	uint8_t font_w=14;
	uint8_t font_h=24;

	while(*(string+i)!='\0')
    41a2:	5d c0       	rjmp	.+186    	; 0x425e <ILI9486_Print_String14x24+0xca>
	{

		if(*(string+i)==0)
    41a4:	22 23       	and	r18, r18
    41a6:	09 f4       	brne	.+2      	; 0x41aa <ILI9486_Print_String14x24+0x16>
    41a8:	62 c0       	rjmp	.+196    	; 0x426e <ILI9486_Print_String14x24+0xda>
		{
			return;
		}

		if(*(string+i)=='\n')
    41aa:	2a 30       	cpi	r18, 0x0A	; 10
    41ac:	79 f4       	brne	.+30     	; 0x41cc <ILI9486_Print_String14x24+0x38>
		{
			cursor_x+=font_h;
    41ae:	20 91 c9 02 	lds	r18, 0x02C9	; 0x8002c9 <cursor_x>
    41b2:	30 91 ca 02 	lds	r19, 0x02CA	; 0x8002ca <cursor_x+0x1>
    41b6:	28 5e       	subi	r18, 0xE8	; 232
    41b8:	3f 4f       	sbci	r19, 0xFF	; 255
    41ba:	30 93 ca 02 	sts	0x02CA, r19	; 0x8002ca <cursor_x+0x1>
    41be:	20 93 c9 02 	sts	0x02C9, r18	; 0x8002c9 <cursor_x>
			cursor_y=0;
    41c2:	10 92 c8 02 	sts	0x02C8, r1	; 0x8002c8 <cursor_y+0x1>
    41c6:	10 92 c7 02 	sts	0x02C7, r1	; 0x8002c7 <cursor_y>
			string++;
    41ca:	21 96       	adiw	r28, 0x01	; 1
		}

		if(cursor_y>X_SIZE-font_w)
    41cc:	20 91 52 02 	lds	r18, 0x0252	; 0x800252 <X_SIZE>
    41d0:	30 91 53 02 	lds	r19, 0x0253	; 0x800253 <X_SIZE+0x1>
    41d4:	2e 50       	subi	r18, 0x0E	; 14
    41d6:	31 09       	sbc	r19, r1
    41d8:	40 91 c7 02 	lds	r20, 0x02C7	; 0x8002c7 <cursor_y>
    41dc:	50 91 c8 02 	lds	r21, 0x02C8	; 0x8002c8 <cursor_y+0x1>
    41e0:	24 17       	cp	r18, r20
    41e2:	35 07       	cpc	r19, r21
    41e4:	70 f4       	brcc	.+28     	; 0x4202 <ILI9486_Print_String14x24+0x6e>
		{
			cursor_y=0;cursor_x+=font_h;
    41e6:	10 92 c8 02 	sts	0x02C8, r1	; 0x8002c8 <cursor_y+0x1>
    41ea:	10 92 c7 02 	sts	0x02C7, r1	; 0x8002c7 <cursor_y>
    41ee:	20 91 c9 02 	lds	r18, 0x02C9	; 0x8002c9 <cursor_x>
    41f2:	30 91 ca 02 	lds	r19, 0x02CA	; 0x8002ca <cursor_x+0x1>
    41f6:	28 5e       	subi	r18, 0xE8	; 232
    41f8:	3f 4f       	sbci	r19, 0xFF	; 255
    41fa:	30 93 ca 02 	sts	0x02CA, r19	; 0x8002ca <cursor_x+0x1>
    41fe:	20 93 c9 02 	sts	0x02C9, r18	; 0x8002c9 <cursor_x>
		}

		if(cursor_x>Y_SIZE-font_h)
    4202:	20 91 50 02 	lds	r18, 0x0250	; 0x800250 <__data_end>
    4206:	30 91 51 02 	lds	r19, 0x0251	; 0x800251 <__data_end+0x1>
    420a:	28 51       	subi	r18, 0x18	; 24
    420c:	31 09       	sbc	r19, r1
    420e:	40 91 c9 02 	lds	r20, 0x02C9	; 0x8002c9 <cursor_x>
    4212:	50 91 ca 02 	lds	r21, 0x02CA	; 0x8002ca <cursor_x+0x1>
    4216:	24 17       	cp	r18, r20
    4218:	35 07       	cpc	r19, r21
    421a:	40 f4       	brcc	.+16     	; 0x422c <ILI9486_Print_String14x24+0x98>
		{
			cursor_x=cursor_y=0;
    421c:	10 92 c8 02 	sts	0x02C8, r1	; 0x8002c8 <cursor_y+0x1>
    4220:	10 92 c7 02 	sts	0x02C7, r1	; 0x8002c7 <cursor_y>
    4224:	10 92 ca 02 	sts	0x02CA, r1	; 0x8002ca <cursor_x+0x1>
    4228:	10 92 c9 02 	sts	0x02C9, r1	; 0x8002c9 <cursor_x>
		}

		ILI9486_Print_Char14x24(cursor_y,cursor_x,*(string+i),TFT_STRING_MODE);
    422c:	fe 01       	movw	r30, r28
    422e:	e8 0f       	add	r30, r24
    4230:	f9 1f       	adc	r31, r25
    4232:	60 91 c9 02 	lds	r22, 0x02C9	; 0x8002c9 <cursor_x>
    4236:	70 91 ca 02 	lds	r23, 0x02CA	; 0x8002ca <cursor_x+0x1>
    423a:	20 2f       	mov	r18, r16
    423c:	40 81       	ld	r20, Z
    423e:	80 91 c7 02 	lds	r24, 0x02C7	; 0x8002c7 <cursor_y>
    4242:	90 91 c8 02 	lds	r25, 0x02C8	; 0x8002c8 <cursor_y+0x1>
    4246:	0e 94 d9 1d 	call	0x3bb2	; 0x3bb2 <ILI9486_Print_Char14x24>
		cursor_y+=font_w;
    424a:	80 91 c7 02 	lds	r24, 0x02C7	; 0x8002c7 <cursor_y>
    424e:	90 91 c8 02 	lds	r25, 0x02C8	; 0x8002c8 <cursor_y+0x1>
    4252:	0e 96       	adiw	r24, 0x0e	; 14
    4254:	90 93 c8 02 	sts	0x02C8, r25	; 0x8002c8 <cursor_y+0x1>
    4258:	80 93 c7 02 	sts	0x02C7, r24	; 0x8002c7 <cursor_y>
		i++;
    425c:	1f 5f       	subi	r17, 0xFF	; 255
{
	uint8_t i=0;
	uint8_t font_w=14;
	uint8_t font_h=24;

	while(*(string+i)!='\0')
    425e:	81 2f       	mov	r24, r17
    4260:	90 e0       	ldi	r25, 0x00	; 0
    4262:	fe 01       	movw	r30, r28
    4264:	e8 0f       	add	r30, r24
    4266:	f9 1f       	adc	r31, r25
    4268:	20 81       	ld	r18, Z
    426a:	21 11       	cpse	r18, r1
    426c:	9b cf       	rjmp	.-202    	; 0x41a4 <ILI9486_Print_String14x24+0x10>

		ILI9486_Print_Char14x24(cursor_y,cursor_x,*(string+i),TFT_STRING_MODE);
		cursor_y+=font_w;
		i++;
	}
}
    426e:	df 91       	pop	r29
    4270:	cf 91       	pop	r28
    4272:	1f 91       	pop	r17
    4274:	0f 91       	pop	r16
    4276:	08 95       	ret

00004278 <timer1_ini>:
	TCCR2B |= (1<<CS22)|(1<<CS21);//установим делитель 256.
}*/
//-------------------------------------------------------------
void timer1_ini(void)//период 1мс
{
	TCCR1B |= (1<<WGM12); // устанавливаем режим СТС (сброс по совпадению)
    4278:	8e b5       	in	r24, 0x2e	; 46
    427a:	88 60       	ori	r24, 0x08	; 8
    427c:	8e bd       	out	0x2e, r24	; 46
	TIMSK |= (1<<OCIE1A); //устанавливаем бит разрешения прерывания 1ого счетчика по совпадению с OCR1A(H и L)
    427e:	89 b7       	in	r24, 0x39	; 57
    4280:	80 61       	ori	r24, 0x10	; 16
    4282:	89 bf       	out	0x39, r24	; 57
	OCR1AH = 0b00000111; //записываем в регистр число для сравнения 2000
    4284:	87 e0       	ldi	r24, 0x07	; 7
    4286:	8b bd       	out	0x2b, r24	; 43
	OCR1AL = 0b11010000;
    4288:	80 ed       	ldi	r24, 0xD0	; 208
    428a:	8a bd       	out	0x2a, r24	; 42
	TCCR1B |= (1<<CS11);//установим делитель 8.
    428c:	8e b5       	in	r24, 0x2e	; 46
    428e:	82 60       	ori	r24, 0x02	; 2
    4290:	8e bd       	out	0x2e, r24	; 46
    4292:	08 95       	ret

00004294 <timer0_ini>:
}
//-------------------------------------------------------------
void timer0_ini(void) // период 100мкс
{
	TCCR0 |= (1<<WGM01); // устанавливаем режим СТС (сброс по совпадению)
    4294:	83 b7       	in	r24, 0x33	; 51
    4296:	88 60       	ori	r24, 0x08	; 8
    4298:	83 bf       	out	0x33, r24	; 51
	OCR0 = 0b11001000; //записываем в регистр число для сравнения 200
    429a:	88 ec       	ldi	r24, 0xC8	; 200
    429c:	8c bf       	out	0x3c, r24	; 60
	TCCR0 |= (1<<CS01); //делитель 8
    429e:	83 b7       	in	r24, 0x33	; 51
    42a0:	82 60       	ori	r24, 0x02	; 2
    42a2:	83 bf       	out	0x33, r24	; 51
	TIMSK |= (1<<OCIE0); //устанавливаем бит разрешения прерывания 0-ого счетчика по совпадению с OCR0A
    42a4:	89 b7       	in	r24, 0x39	; 57
    42a6:	82 60       	ori	r24, 0x02	; 2
    42a8:	89 bf       	out	0x39, r24	; 57
    42aa:	08 95       	ret

000042ac <__vector_7>:
		timer2_flag = 0;
	}
}*/
//-------------------------------------------------------------
ISR (TIMER1_COMPA_vect)
{	
    42ac:	1f 92       	push	r1
    42ae:	0f 92       	push	r0
    42b0:	0f b6       	in	r0, 0x3f	; 63
    42b2:	0f 92       	push	r0
    42b4:	11 24       	eor	r1, r1
    42b6:	8f 93       	push	r24
    42b8:	9f 93       	push	r25
    42ba:	af 93       	push	r26
    42bc:	bf 93       	push	r27
	/*if (millis == 300001)
	{
		millis = 0;
	}*/
	millis++;
    42be:	80 91 56 02 	lds	r24, 0x0256	; 0x800256 <millis>
    42c2:	90 91 57 02 	lds	r25, 0x0257	; 0x800257 <millis+0x1>
    42c6:	a0 91 58 02 	lds	r26, 0x0258	; 0x800258 <millis+0x2>
    42ca:	b0 91 59 02 	lds	r27, 0x0259	; 0x800259 <millis+0x3>
    42ce:	01 96       	adiw	r24, 0x01	; 1
    42d0:	a1 1d       	adc	r26, r1
    42d2:	b1 1d       	adc	r27, r1
    42d4:	80 93 56 02 	sts	0x0256, r24	; 0x800256 <millis>
    42d8:	90 93 57 02 	sts	0x0257, r25	; 0x800257 <millis+0x1>
    42dc:	a0 93 58 02 	sts	0x0258, r26	; 0x800258 <millis+0x2>
    42e0:	b0 93 59 02 	sts	0x0259, r27	; 0x800259 <millis+0x3>
}
    42e4:	bf 91       	pop	r27
    42e6:	af 91       	pop	r26
    42e8:	9f 91       	pop	r25
    42ea:	8f 91       	pop	r24
    42ec:	0f 90       	pop	r0
    42ee:	0f be       	out	0x3f, r0	; 63
    42f0:	0f 90       	pop	r0
    42f2:	1f 90       	pop	r1
    42f4:	18 95       	reti

000042f6 <__vector_10>:
//-------------------------------------------------------------
ISR (TIMER0_COMP_vect)
{
    42f6:	1f 92       	push	r1
    42f8:	0f 92       	push	r0
    42fa:	0f b6       	in	r0, 0x3f	; 63
    42fc:	0f 92       	push	r0
    42fe:	11 24       	eor	r1, r1
    4300:	2f 93       	push	r18
    4302:	8f 93       	push	r24
    4304:	9f 93       	push	r25
	  static unsigned char new_state=0;
	  static unsigned char old_state=0;
	  
		  new_state = (PIND&0b00110000)>>6;
    4306:	80 b3       	in	r24, 0x10	; 16
    4308:	10 92 55 02 	sts	0x0255, r1	; 0x800255 <new_state.2580>
		  
		  switch(old_state | new_state)
    430c:	80 91 54 02 	lds	r24, 0x0254	; 0x800254 <old_state.2581>
    4310:	84 30       	cpi	r24, 0x04	; 4
    4312:	d9 f0       	breq	.+54     	; 0x434a <__vector_10+0x54>
    4314:	18 f4       	brcc	.+6      	; 0x431c <__vector_10+0x26>
    4316:	81 30       	cpi	r24, 0x01	; 1
    4318:	29 f0       	breq	.+10     	; 0x4324 <__vector_10+0x2e>
    431a:	29 c0       	rjmp	.+82     	; 0x436e <__vector_10+0x78>
    431c:	8b 30       	cpi	r24, 0x0B	; 11
    431e:	a9 f0       	breq	.+42     	; 0x434a <__vector_10+0x54>
    4320:	8e 30       	cpi	r24, 0x0E	; 14
    4322:	29 f5       	brne	.+74     	; 0x436e <__vector_10+0x78>
		  {
			  case 0x01: case 0x0e:
			  if (change_flag) {add_cnt++;}
    4324:	80 91 5a 02 	lds	r24, 0x025A	; 0x80025a <change_flag>
    4328:	88 23       	and	r24, r24
    432a:	31 f0       	breq	.+12     	; 0x4338 <__vector_10+0x42>
    432c:	80 91 cc 02 	lds	r24, 0x02CC	; 0x8002cc <add_cnt>
    4330:	8f 5f       	subi	r24, 0xFF	; 255
    4332:	80 93 cc 02 	sts	0x02CC, r24	; 0x8002cc <add_cnt>
    4336:	1b c0       	rjmp	.+54     	; 0x436e <__vector_10+0x78>
			  else {cnt++; PORTD |= (1<<LED);}
    4338:	80 91 cd 02 	lds	r24, 0x02CD	; 0x8002cd <cnt>
    433c:	8f 5f       	subi	r24, 0xFF	; 255
    433e:	80 93 cd 02 	sts	0x02CD, r24	; 0x8002cd <cnt>
    4342:	82 b3       	in	r24, 0x12	; 18
    4344:	80 64       	ori	r24, 0x40	; 64
    4346:	82 bb       	out	0x12, r24	; 18
    4348:	12 c0       	rjmp	.+36     	; 0x436e <__vector_10+0x78>
			  break;
			  case 0x04: case 0x0b:
			  if (change_flag) add_cnt--;
    434a:	80 91 5a 02 	lds	r24, 0x025A	; 0x80025a <change_flag>
    434e:	88 23       	and	r24, r24
    4350:	31 f0       	breq	.+12     	; 0x435e <__vector_10+0x68>
    4352:	80 91 cc 02 	lds	r24, 0x02CC	; 0x8002cc <add_cnt>
    4356:	81 50       	subi	r24, 0x01	; 1
    4358:	80 93 cc 02 	sts	0x02CC, r24	; 0x8002cc <add_cnt>
    435c:	08 c0       	rjmp	.+16     	; 0x436e <__vector_10+0x78>
			  else {cnt--; PORTD |= (1<<LED);}
    435e:	80 91 cd 02 	lds	r24, 0x02CD	; 0x8002cd <cnt>
    4362:	81 50       	subi	r24, 0x01	; 1
    4364:	80 93 cd 02 	sts	0x02CD, r24	; 0x8002cd <cnt>
    4368:	82 b3       	in	r24, 0x12	; 18
    436a:	80 64       	ori	r24, 0x40	; 64
    436c:	82 bb       	out	0x12, r24	; 18
			  break;
		  }
		  old_state = new_state<<2;
    436e:	80 91 55 02 	lds	r24, 0x0255	; 0x800255 <new_state.2580>
    4372:	88 0f       	add	r24, r24
    4374:	88 0f       	add	r24, r24
    4376:	80 93 54 02 	sts	0x0254, r24	; 0x800254 <old_state.2581>
		  //ограничение диапазона cnt
		  if (cnt >= 120){cnt = 0;}
    437a:	80 91 cd 02 	lds	r24, 0x02CD	; 0x8002cd <cnt>
    437e:	88 37       	cpi	r24, 0x78	; 120
    4380:	1c f0       	brlt	.+6      	; 0x4388 <__vector_10+0x92>
    4382:	10 92 cd 02 	sts	0x02CD, r1	; 0x8002cd <cnt>
    4386:	05 c0       	rjmp	.+10     	; 0x4392 <__vector_10+0x9c>
		  else if (cnt <= -1){cnt = 119;}
    4388:	88 23       	and	r24, r24
    438a:	1c f4       	brge	.+6      	; 0x4392 <__vector_10+0x9c>
    438c:	87 e7       	ldi	r24, 0x77	; 119
    438e:	80 93 cd 02 	sts	0x02CD, r24	; 0x8002cd <cnt>
		  //ограничение диапазона add_cnt
		  switch(cnt%7)
    4392:	90 91 cd 02 	lds	r25, 0x02CD	; 0x8002cd <cnt>
    4396:	83 e9       	ldi	r24, 0x93	; 147
    4398:	98 02       	muls	r25, r24
    439a:	81 2d       	mov	r24, r1
    439c:	11 24       	eor	r1, r1
    439e:	89 0f       	add	r24, r25
    43a0:	85 95       	asr	r24
    43a2:	85 95       	asr	r24
    43a4:	97 fd       	sbrc	r25, 7
    43a6:	83 95       	inc	r24
    43a8:	28 2f       	mov	r18, r24
    43aa:	22 0f       	add	r18, r18
    43ac:	22 0f       	add	r18, r18
    43ae:	22 0f       	add	r18, r18
    43b0:	28 1b       	sub	r18, r24
    43b2:	92 1b       	sub	r25, r18
    43b4:	92 30       	cpi	r25, 0x02	; 2
    43b6:	41 f1       	breq	.+80     	; 0x4408 <__vector_10+0x112>
    43b8:	2c f4       	brge	.+10     	; 0x43c4 <__vector_10+0xce>
    43ba:	99 23       	and	r25, r25
    43bc:	51 f0       	breq	.+20     	; 0x43d2 <__vector_10+0xdc>
    43be:	91 30       	cpi	r25, 0x01	; 1
    43c0:	b1 f0       	breq	.+44     	; 0x43ee <__vector_10+0xf8>
    43c2:	55 c0       	rjmp	.+170    	; 0x446e <__vector_10+0x178>
    43c4:	94 30       	cpi	r25, 0x04	; 4
    43c6:	d1 f1       	breq	.+116    	; 0x443c <__vector_10+0x146>
    43c8:	64 f1       	brlt	.+88     	; 0x4422 <__vector_10+0x12c>
    43ca:	95 30       	cpi	r25, 0x05	; 5
    43cc:	09 f4       	brne	.+2      	; 0x43d0 <__vector_10+0xda>
    43ce:	43 c0       	rjmp	.+134    	; 0x4456 <__vector_10+0x160>
    43d0:	4e c0       	rjmp	.+156    	; 0x446e <__vector_10+0x178>
		  {
			  case 0:	if (add_cnt >= 24){add_cnt = 0;}
    43d2:	80 91 cc 02 	lds	r24, 0x02CC	; 0x8002cc <add_cnt>
    43d6:	88 31       	cpi	r24, 0x18	; 24
    43d8:	1c f0       	brlt	.+6      	; 0x43e0 <__vector_10+0xea>
    43da:	10 92 cc 02 	sts	0x02CC, r1	; 0x8002cc <add_cnt>
    43de:	47 c0       	rjmp	.+142    	; 0x446e <__vector_10+0x178>
			  else if (add_cnt <= -1){add_cnt = 23;}
    43e0:	88 23       	and	r24, r24
    43e2:	0c f0       	brlt	.+2      	; 0x43e6 <__vector_10+0xf0>
    43e4:	44 c0       	rjmp	.+136    	; 0x446e <__vector_10+0x178>
    43e6:	87 e1       	ldi	r24, 0x17	; 23
    43e8:	80 93 cc 02 	sts	0x02CC, r24	; 0x8002cc <add_cnt>
    43ec:	40 c0       	rjmp	.+128    	; 0x446e <__vector_10+0x178>
			  break;
			  case 1: if (add_cnt >= 60){add_cnt = 0;}
    43ee:	80 91 cc 02 	lds	r24, 0x02CC	; 0x8002cc <add_cnt>
    43f2:	8c 33       	cpi	r24, 0x3C	; 60
    43f4:	1c f0       	brlt	.+6      	; 0x43fc <__vector_10+0x106>
    43f6:	10 92 cc 02 	sts	0x02CC, r1	; 0x8002cc <add_cnt>
    43fa:	39 c0       	rjmp	.+114    	; 0x446e <__vector_10+0x178>
			  else if (add_cnt <= -1){add_cnt = 59;}
    43fc:	88 23       	and	r24, r24
    43fe:	bc f5       	brge	.+110    	; 0x446e <__vector_10+0x178>
    4400:	8b e3       	ldi	r24, 0x3B	; 59
    4402:	80 93 cc 02 	sts	0x02CC, r24	; 0x8002cc <add_cnt>
    4406:	33 c0       	rjmp	.+102    	; 0x446e <__vector_10+0x178>
			  break;
			  case 2: if (add_cnt >= 8){add_cnt = 0;}
    4408:	80 91 cc 02 	lds	r24, 0x02CC	; 0x8002cc <add_cnt>
    440c:	88 30       	cpi	r24, 0x08	; 8
    440e:	1c f0       	brlt	.+6      	; 0x4416 <__vector_10+0x120>
    4410:	10 92 cc 02 	sts	0x02CC, r1	; 0x8002cc <add_cnt>
    4414:	2c c0       	rjmp	.+88     	; 0x446e <__vector_10+0x178>
			  else if (add_cnt <= -1){add_cnt = 7;}
    4416:	88 23       	and	r24, r24
    4418:	54 f5       	brge	.+84     	; 0x446e <__vector_10+0x178>
    441a:	87 e0       	ldi	r24, 0x07	; 7
    441c:	80 93 cc 02 	sts	0x02CC, r24	; 0x8002cc <add_cnt>
    4420:	26 c0       	rjmp	.+76     	; 0x446e <__vector_10+0x178>
			  break;
			  case 3: if (add_cnt >= 32){add_cnt = 0;}
    4422:	80 91 cc 02 	lds	r24, 0x02CC	; 0x8002cc <add_cnt>
    4426:	80 32       	cpi	r24, 0x20	; 32
    4428:	1c f0       	brlt	.+6      	; 0x4430 <__vector_10+0x13a>
    442a:	10 92 cc 02 	sts	0x02CC, r1	; 0x8002cc <add_cnt>
    442e:	1f c0       	rjmp	.+62     	; 0x446e <__vector_10+0x178>
			  else if (add_cnt <= -1){add_cnt = 31;}
    4430:	88 23       	and	r24, r24
    4432:	ec f4       	brge	.+58     	; 0x446e <__vector_10+0x178>
    4434:	8f e1       	ldi	r24, 0x1F	; 31
    4436:	80 93 cc 02 	sts	0x02CC, r24	; 0x8002cc <add_cnt>
    443a:	19 c0       	rjmp	.+50     	; 0x446e <__vector_10+0x178>
			  break;
			  case 4: if (add_cnt >= 13){add_cnt = 0;}
    443c:	80 91 cc 02 	lds	r24, 0x02CC	; 0x8002cc <add_cnt>
    4440:	8d 30       	cpi	r24, 0x0D	; 13
    4442:	1c f0       	brlt	.+6      	; 0x444a <__vector_10+0x154>
    4444:	10 92 cc 02 	sts	0x02CC, r1	; 0x8002cc <add_cnt>
    4448:	12 c0       	rjmp	.+36     	; 0x446e <__vector_10+0x178>
			  else if (add_cnt <= -1){add_cnt = 12;}
    444a:	88 23       	and	r24, r24
    444c:	84 f4       	brge	.+32     	; 0x446e <__vector_10+0x178>
    444e:	8c e0       	ldi	r24, 0x0C	; 12
    4450:	80 93 cc 02 	sts	0x02CC, r24	; 0x8002cc <add_cnt>
    4454:	0c c0       	rjmp	.+24     	; 0x446e <__vector_10+0x178>
			  break;
			  case 5: if (add_cnt >= 100){add_cnt = 0;}
    4456:	80 91 cc 02 	lds	r24, 0x02CC	; 0x8002cc <add_cnt>
    445a:	84 36       	cpi	r24, 0x64	; 100
    445c:	1c f0       	brlt	.+6      	; 0x4464 <__vector_10+0x16e>
    445e:	10 92 cc 02 	sts	0x02CC, r1	; 0x8002cc <add_cnt>
    4462:	05 c0       	rjmp	.+10     	; 0x446e <__vector_10+0x178>
			  else if (add_cnt <= -1){add_cnt = 99;}
    4464:	88 23       	and	r24, r24
    4466:	1c f4       	brge	.+6      	; 0x446e <__vector_10+0x178>
    4468:	83 e6       	ldi	r24, 0x63	; 99
    446a:	80 93 cc 02 	sts	0x02CC, r24	; 0x8002cc <add_cnt>
			  break;
		  }
		  PORTD &= ~(1<<LED);
    446e:	82 b3       	in	r24, 0x12	; 18
    4470:	8f 7b       	andi	r24, 0xBF	; 191
    4472:	82 bb       	out	0x12, r24	; 18
}
    4474:	9f 91       	pop	r25
    4476:	8f 91       	pop	r24
    4478:	2f 91       	pop	r18
    447a:	0f 90       	pop	r0
    447c:	0f be       	out	0x3f, r0	; 63
    447e:	0f 90       	pop	r0
    4480:	1f 90       	pop	r1
    4482:	18 95       	reti

00004484 <enc_interrupt_ini>:
//-------------------------------------------------------------
//прерывания от кнопки энкодера для переключения в окно меню
void enc_interrupt_ini(void)
{
	//включим прерывания INT1 по нисходящему фронту
	MCUCR |= (1<<ISC11);
    4484:	85 b7       	in	r24, 0x35	; 53
    4486:	88 60       	ori	r24, 0x08	; 8
    4488:	85 bf       	out	0x35, r24	; 53
	//разрешим внешние прерывания INT1
	GICR |= (1<<INT1);
    448a:	8b b7       	in	r24, 0x3b	; 59
    448c:	80 68       	ori	r24, 0x80	; 128
    448e:	8b bf       	out	0x3b, r24	; 59
    4490:	08 95       	ret

00004492 <__vector_2>:
	PORTD &= ~(1<<LED);
}*/
//-------------------------------------------------------------
//обработчик внешн.прерываний от кнопки энкодера
ISR(INT1_vect)
{
    4492:	1f 92       	push	r1
    4494:	0f 92       	push	r0
    4496:	0f b6       	in	r0, 0x3f	; 63
    4498:	0f 92       	push	r0
    449a:	11 24       	eor	r1, r1
    449c:	2f 93       	push	r18
    449e:	3f 93       	push	r19
    44a0:	4f 93       	push	r20
    44a2:	5f 93       	push	r21
    44a4:	6f 93       	push	r22
    44a6:	7f 93       	push	r23
    44a8:	8f 93       	push	r24
    44aa:	9f 93       	push	r25
    44ac:	af 93       	push	r26
    44ae:	bf 93       	push	r27
    44b0:	ef 93       	push	r30
    44b2:	ff 93       	push	r31
	//enc_int_flag = 1;
	switch (menu_flag)
    44b4:	80 91 5b 02 	lds	r24, 0x025B	; 0x80025b <menu_flag>
    44b8:	82 30       	cpi	r24, 0x02	; 2
    44ba:	91 f1       	breq	.+100    	; 0x4520 <__vector_2+0x8e>
    44bc:	28 f4       	brcc	.+10     	; 0x44c8 <__vector_2+0x36>
    44be:	88 23       	and	r24, r24
    44c0:	51 f0       	breq	.+20     	; 0x44d6 <__vector_2+0x44>
    44c2:	81 30       	cpi	r24, 0x01	; 1
    44c4:	61 f0       	breq	.+24     	; 0x44de <__vector_2+0x4c>
    44c6:	ea c0       	rjmp	.+468    	; 0x469c <__vector_2+0x20a>
    44c8:	83 30       	cpi	r24, 0x03	; 3
    44ca:	09 f4       	brne	.+2      	; 0x44ce <__vector_2+0x3c>
    44cc:	e0 c0       	rjmp	.+448    	; 0x468e <__vector_2+0x1fc>
    44ce:	84 30       	cpi	r24, 0x04	; 4
    44d0:	09 f4       	brne	.+2      	; 0x44d4 <__vector_2+0x42>
    44d2:	e1 c0       	rjmp	.+450    	; 0x4696 <__vector_2+0x204>
    44d4:	e3 c0       	rjmp	.+454    	; 0x469c <__vector_2+0x20a>
	{
		case 0: menu_flag = 1;
    44d6:	81 e0       	ldi	r24, 0x01	; 1
    44d8:	80 93 5b 02 	sts	0x025B, r24	; 0x80025b <menu_flag>
		//cnt = 0;
		break;
    44dc:	df c0       	rjmp	.+446    	; 0x469c <__vector_2+0x20a>
		case 1:	switch(cnt%4)
    44de:	80 91 cd 02 	lds	r24, 0x02CD	; 0x8002cd <cnt>
    44e2:	83 78       	andi	r24, 0x83	; 131
    44e4:	1c f4       	brge	.+6      	; 0x44ec <__vector_2+0x5a>
    44e6:	81 50       	subi	r24, 0x01	; 1
    44e8:	8c 6f       	ori	r24, 0xFC	; 252
    44ea:	8f 5f       	subi	r24, 0xFF	; 255
    44ec:	81 30       	cpi	r24, 0x01	; 1
    44ee:	61 f0       	breq	.+24     	; 0x4508 <__vector_2+0x76>
    44f0:	1c f4       	brge	.+6      	; 0x44f8 <__vector_2+0x66>
    44f2:	88 23       	and	r24, r24
    44f4:	31 f0       	breq	.+12     	; 0x4502 <__vector_2+0x70>
    44f6:	d2 c0       	rjmp	.+420    	; 0x469c <__vector_2+0x20a>
    44f8:	82 30       	cpi	r24, 0x02	; 2
    44fa:	51 f0       	breq	.+20     	; 0x4510 <__vector_2+0x7e>
    44fc:	83 30       	cpi	r24, 0x03	; 3
    44fe:	61 f0       	breq	.+24     	; 0x4518 <__vector_2+0x86>
    4500:	cd c0       	rjmp	.+410    	; 0x469c <__vector_2+0x20a>
		{
			case 0:	menu_flag = 0;
    4502:	10 92 5b 02 	sts	0x025B, r1	; 0x80025b <menu_flag>
			break;
    4506:	ca c0       	rjmp	.+404    	; 0x469c <__vector_2+0x20a>
			case 1:	menu_flag = 2;
    4508:	82 e0       	ldi	r24, 0x02	; 2
    450a:	80 93 5b 02 	sts	0x025B, r24	; 0x80025b <menu_flag>
			break;
    450e:	c6 c0       	rjmp	.+396    	; 0x469c <__vector_2+0x20a>
			case 2:	menu_flag = 3;
    4510:	83 e0       	ldi	r24, 0x03	; 3
    4512:	80 93 5b 02 	sts	0x025B, r24	; 0x80025b <menu_flag>
			break;
    4516:	c2 c0       	rjmp	.+388    	; 0x469c <__vector_2+0x20a>
			case 3:	menu_flag = 4;
    4518:	84 e0       	ldi	r24, 0x04	; 4
    451a:	80 93 5b 02 	sts	0x025B, r24	; 0x80025b <menu_flag>
			break;
    451e:	be c0       	rjmp	.+380    	; 0x469c <__vector_2+0x20a>
		}
		//cnt = 0;
		break;
		case 2:	switch(cnt%7)
    4520:	90 91 cd 02 	lds	r25, 0x02CD	; 0x8002cd <cnt>
    4524:	83 e9       	ldi	r24, 0x93	; 147
    4526:	98 02       	muls	r25, r24
    4528:	81 2d       	mov	r24, r1
    452a:	11 24       	eor	r1, r1
    452c:	89 0f       	add	r24, r25
    452e:	85 95       	asr	r24
    4530:	85 95       	asr	r24
    4532:	e8 2f       	mov	r30, r24
    4534:	97 fd       	sbrc	r25, 7
    4536:	e3 95       	inc	r30
    4538:	8e 2f       	mov	r24, r30
    453a:	88 0f       	add	r24, r24
    453c:	88 0f       	add	r24, r24
    453e:	88 0f       	add	r24, r24
    4540:	8e 1b       	sub	r24, r30
    4542:	e9 2f       	mov	r30, r25
    4544:	e8 1b       	sub	r30, r24
    4546:	8e 2f       	mov	r24, r30
    4548:	ee 0f       	add	r30, r30
    454a:	99 0b       	sbc	r25, r25
    454c:	aa 0b       	sbc	r26, r26
    454e:	bb 0b       	sbc	r27, r27
    4550:	87 30       	cpi	r24, 0x07	; 7
    4552:	91 05       	cpc	r25, r1
    4554:	08 f0       	brcs	.+2      	; 0x4558 <__vector_2+0xc6>
    4556:	a2 c0       	rjmp	.+324    	; 0x469c <__vector_2+0x20a>
    4558:	fc 01       	movw	r30, r24
    455a:	e6 5d       	subi	r30, 0xD6	; 214
    455c:	ff 4f       	sbci	r31, 0xFF	; 255
    455e:	0c 94 46 32 	jmp	0x648c	; 0x648c <__tablejump2__>
		{
			case 0:	if(!change_flag)
    4562:	80 91 5a 02 	lds	r24, 0x025A	; 0x80025a <change_flag>
    4566:	81 11       	cpse	r24, r1
    4568:	08 c0       	rjmp	.+16     	; 0x457a <__vector_2+0xe8>
			{
				add_cnt = hour;
    456a:	80 91 cf 02 	lds	r24, 0x02CF	; 0x8002cf <hour>
    456e:	80 93 cc 02 	sts	0x02CC, r24	; 0x8002cc <add_cnt>
				change_flag = 1;
    4572:	81 e0       	ldi	r24, 0x01	; 1
    4574:	80 93 5a 02 	sts	0x025A, r24	; 0x80025a <change_flag>
    4578:	91 c0       	rjmp	.+290    	; 0x469c <__vector_2+0x20a>
			}
			else
			{
				hour = add_cnt;
    457a:	80 91 cc 02 	lds	r24, 0x02CC	; 0x8002cc <add_cnt>
    457e:	80 93 cf 02 	sts	0x02CF, r24	; 0x8002cf <hour>
				clock_change_mode = 1;
    4582:	81 e0       	ldi	r24, 0x01	; 1
    4584:	80 93 d0 02 	sts	0x02D0, r24	; 0x8002d0 <clock_change_mode>
				ModifyRTC();
    4588:	0e 94 d5 25 	call	0x4baa	; 0x4baa <ModifyRTC>
				change_flag = 0;
    458c:	10 92 5a 02 	sts	0x025A, r1	; 0x80025a <change_flag>
    4590:	85 c0       	rjmp	.+266    	; 0x469c <__vector_2+0x20a>
			}
			break;
			case 1:	if(!change_flag)
    4592:	80 91 5a 02 	lds	r24, 0x025A	; 0x80025a <change_flag>
    4596:	81 11       	cpse	r24, r1
    4598:	08 c0       	rjmp	.+16     	; 0x45aa <__vector_2+0x118>
			{
				add_cnt = min;
    459a:	80 91 d1 02 	lds	r24, 0x02D1	; 0x8002d1 <min>
    459e:	80 93 cc 02 	sts	0x02CC, r24	; 0x8002cc <add_cnt>
				change_flag = 1;
    45a2:	81 e0       	ldi	r24, 0x01	; 1
    45a4:	80 93 5a 02 	sts	0x025A, r24	; 0x80025a <change_flag>
    45a8:	79 c0       	rjmp	.+242    	; 0x469c <__vector_2+0x20a>
			}
			else
			{
				min = add_cnt;
    45aa:	80 91 cc 02 	lds	r24, 0x02CC	; 0x8002cc <add_cnt>
    45ae:	80 93 d1 02 	sts	0x02D1, r24	; 0x8002d1 <min>
				clock_change_mode = 2;
    45b2:	82 e0       	ldi	r24, 0x02	; 2
    45b4:	80 93 d0 02 	sts	0x02D0, r24	; 0x8002d0 <clock_change_mode>
				ModifyRTC();
    45b8:	0e 94 d5 25 	call	0x4baa	; 0x4baa <ModifyRTC>
				change_flag = 0;
    45bc:	10 92 5a 02 	sts	0x025A, r1	; 0x80025a <change_flag>
    45c0:	6d c0       	rjmp	.+218    	; 0x469c <__vector_2+0x20a>
			}
			break;
			case 2:	if(!change_flag)
    45c2:	80 91 5a 02 	lds	r24, 0x025A	; 0x80025a <change_flag>
    45c6:	81 11       	cpse	r24, r1
    45c8:	08 c0       	rjmp	.+16     	; 0x45da <__vector_2+0x148>
			{
				add_cnt = day;
    45ca:	80 91 d4 02 	lds	r24, 0x02D4	; 0x8002d4 <day>
    45ce:	80 93 cc 02 	sts	0x02CC, r24	; 0x8002cc <add_cnt>
				change_flag = 1;
    45d2:	81 e0       	ldi	r24, 0x01	; 1
    45d4:	80 93 5a 02 	sts	0x025A, r24	; 0x80025a <change_flag>
    45d8:	61 c0       	rjmp	.+194    	; 0x469c <__vector_2+0x20a>
			}
			else
			{
				day = add_cnt;
    45da:	80 91 cc 02 	lds	r24, 0x02CC	; 0x8002cc <add_cnt>
    45de:	80 93 d4 02 	sts	0x02D4, r24	; 0x8002d4 <day>
				clock_change_mode = 6;
    45e2:	86 e0       	ldi	r24, 0x06	; 6
    45e4:	80 93 d0 02 	sts	0x02D0, r24	; 0x8002d0 <clock_change_mode>
				ModifyRTC();
    45e8:	0e 94 d5 25 	call	0x4baa	; 0x4baa <ModifyRTC>
				change_flag = 0;
    45ec:	10 92 5a 02 	sts	0x025A, r1	; 0x80025a <change_flag>
    45f0:	55 c0       	rjmp	.+170    	; 0x469c <__vector_2+0x20a>
			}
			break;
			case 3:	if(!change_flag)
    45f2:	80 91 5a 02 	lds	r24, 0x025A	; 0x80025a <change_flag>
    45f6:	81 11       	cpse	r24, r1
    45f8:	08 c0       	rjmp	.+16     	; 0x460a <__vector_2+0x178>
			{
				add_cnt = date;
    45fa:	80 91 d6 02 	lds	r24, 0x02D6	; 0x8002d6 <date>
    45fe:	80 93 cc 02 	sts	0x02CC, r24	; 0x8002cc <add_cnt>
				change_flag = 1;
    4602:	81 e0       	ldi	r24, 0x01	; 1
    4604:	80 93 5a 02 	sts	0x025A, r24	; 0x80025a <change_flag>
    4608:	49 c0       	rjmp	.+146    	; 0x469c <__vector_2+0x20a>
			}
			else
			{
				date = add_cnt;
    460a:	80 91 cc 02 	lds	r24, 0x02CC	; 0x8002cc <add_cnt>
    460e:	80 93 d6 02 	sts	0x02D6, r24	; 0x8002d6 <date>
				clock_change_mode = 3;
    4612:	83 e0       	ldi	r24, 0x03	; 3
    4614:	80 93 d0 02 	sts	0x02D0, r24	; 0x8002d0 <clock_change_mode>
				ModifyRTC();
    4618:	0e 94 d5 25 	call	0x4baa	; 0x4baa <ModifyRTC>
				change_flag = 0;
    461c:	10 92 5a 02 	sts	0x025A, r1	; 0x80025a <change_flag>
    4620:	3d c0       	rjmp	.+122    	; 0x469c <__vector_2+0x20a>
			}
			break;
			case 4:	if(!change_flag)
    4622:	80 91 5a 02 	lds	r24, 0x025A	; 0x80025a <change_flag>
    4626:	81 11       	cpse	r24, r1
    4628:	08 c0       	rjmp	.+16     	; 0x463a <__vector_2+0x1a8>
			{
				add_cnt = month;
    462a:	80 91 ce 02 	lds	r24, 0x02CE	; 0x8002ce <month>
    462e:	80 93 cc 02 	sts	0x02CC, r24	; 0x8002cc <add_cnt>
				change_flag = 1;
    4632:	81 e0       	ldi	r24, 0x01	; 1
    4634:	80 93 5a 02 	sts	0x025A, r24	; 0x80025a <change_flag>
    4638:	31 c0       	rjmp	.+98     	; 0x469c <__vector_2+0x20a>
			}
			else
			{
				month = add_cnt;
    463a:	80 91 cc 02 	lds	r24, 0x02CC	; 0x8002cc <add_cnt>
    463e:	80 93 ce 02 	sts	0x02CE, r24	; 0x8002ce <month>
				clock_change_mode = 4;
    4642:	84 e0       	ldi	r24, 0x04	; 4
    4644:	80 93 d0 02 	sts	0x02D0, r24	; 0x8002d0 <clock_change_mode>
				ModifyRTC();
    4648:	0e 94 d5 25 	call	0x4baa	; 0x4baa <ModifyRTC>
				change_flag = 0;
    464c:	10 92 5a 02 	sts	0x025A, r1	; 0x80025a <change_flag>
    4650:	25 c0       	rjmp	.+74     	; 0x469c <__vector_2+0x20a>
			}
			break;
			case 5:	if(!change_flag)
    4652:	80 91 5a 02 	lds	r24, 0x025A	; 0x80025a <change_flag>
    4656:	81 11       	cpse	r24, r1
    4658:	08 c0       	rjmp	.+16     	; 0x466a <__vector_2+0x1d8>
			{
				add_cnt = year;
    465a:	80 91 d2 02 	lds	r24, 0x02D2	; 0x8002d2 <year>
    465e:	80 93 cc 02 	sts	0x02CC, r24	; 0x8002cc <add_cnt>
				change_flag = 1;
    4662:	81 e0       	ldi	r24, 0x01	; 1
    4664:	80 93 5a 02 	sts	0x025A, r24	; 0x80025a <change_flag>
    4668:	19 c0       	rjmp	.+50     	; 0x469c <__vector_2+0x20a>
			}
			else
			{
				year = add_cnt;
    466a:	80 91 cc 02 	lds	r24, 0x02CC	; 0x8002cc <add_cnt>
    466e:	80 93 d2 02 	sts	0x02D2, r24	; 0x8002d2 <year>
				clock_change_mode = 5;
    4672:	85 e0       	ldi	r24, 0x05	; 5
    4674:	80 93 d0 02 	sts	0x02D0, r24	; 0x8002d0 <clock_change_mode>
				ModifyRTC();
    4678:	0e 94 d5 25 	call	0x4baa	; 0x4baa <ModifyRTC>
				change_flag = 0;
    467c:	10 92 5a 02 	sts	0x025A, r1	; 0x80025a <change_flag>
    4680:	0d c0       	rjmp	.+26     	; 0x469c <__vector_2+0x20a>
			}
			break;
			case 6:	clock_change_mode = 0;
    4682:	10 92 d0 02 	sts	0x02D0, r1	; 0x8002d0 <clock_change_mode>
			menu_flag = 1;
    4686:	81 e0       	ldi	r24, 0x01	; 1
    4688:	80 93 5b 02 	sts	0x025B, r24	; 0x80025b <menu_flag>
			//cnt = 1;
			break;
    468c:	07 c0       	rjmp	.+14     	; 0x469c <__vector_2+0x20a>
		}
		break;
		case 3: menu_flag = 1;
    468e:	81 e0       	ldi	r24, 0x01	; 1
    4690:	80 93 5b 02 	sts	0x025B, r24	; 0x80025b <menu_flag>
		//cnt = 0;
		break;
    4694:	03 c0       	rjmp	.+6      	; 0x469c <__vector_2+0x20a>
		case 4: menu_flag = 1;
    4696:	81 e0       	ldi	r24, 0x01	; 1
    4698:	80 93 5b 02 	sts	0x025B, r24	; 0x80025b <menu_flag>
		//cnt = 0;
		break;
	}
}
    469c:	ff 91       	pop	r31
    469e:	ef 91       	pop	r30
    46a0:	bf 91       	pop	r27
    46a2:	af 91       	pop	r26
    46a4:	9f 91       	pop	r25
    46a6:	8f 91       	pop	r24
    46a8:	7f 91       	pop	r23
    46aa:	6f 91       	pop	r22
    46ac:	5f 91       	pop	r21
    46ae:	4f 91       	pop	r20
    46b0:	3f 91       	pop	r19
    46b2:	2f 91       	pop	r18
    46b4:	0f 90       	pop	r0
    46b6:	0f be       	out	0x3f, r0	; 63
    46b8:	0f 90       	pop	r0
    46ba:	1f 90       	pop	r1
    46bc:	18 95       	reti

000046be <SPI_init>:
//-------------------------------------------------------------
void SPI_init(void) //инициализация SPI
{
	DDRB |= ((1<<SS)|(1<<MOSI)|(1<<CE)|(1<<SCK)); //ножки SPI на выход
    46be:	87 b3       	in	r24, 0x17	; 23
    46c0:	88 6b       	ori	r24, 0xB8	; 184
    46c2:	87 bb       	out	0x17, r24	; 23
	PORTB &= ~((1<<SS)|(1<<MOSI)|(1<<SCK)); //низкий уровень
    46c4:	88 b3       	in	r24, 0x18	; 24
    46c6:	8f 74       	andi	r24, 0x4F	; 79
    46c8:	88 bb       	out	0x18, r24	; 24
	HIGH_CSN;
    46ca:	88 b3       	in	r24, 0x18	; 24
    46cc:	80 61       	ori	r24, 0x10	; 16
    46ce:	88 bb       	out	0x18, r24	; 24
	SPCR = ((1<<SPE)|(1<<MSTR));//включим шину, объявим ведущим
    46d0:	80 e5       	ldi	r24, 0x50	; 80
    46d2:	8d b9       	out	0x0d, r24	; 13
    46d4:	08 95       	ret

000046d6 <port_init>:
}
//-------------------------------------------------------------
void port_init(void)
{
	//инициализация ножки IRQ для внеш прерывания
	DDRD &= ~(1<<IRQ);
    46d6:	81 b3       	in	r24, 0x11	; 17
    46d8:	8b 7f       	andi	r24, 0xFB	; 251
    46da:	81 bb       	out	0x11, r24	; 17
	PORTD |= (1<<IRQ);
    46dc:	82 b3       	in	r24, 0x12	; 18
    46de:	84 60       	ori	r24, 0x04	; 4
    46e0:	82 bb       	out	0x12, r24	; 18
	//инициализация портов для светодиода
	DDRD |= (1 << LED);//led
    46e2:	81 b3       	in	r24, 0x11	; 17
    46e4:	80 64       	ori	r24, 0x40	; 64
    46e6:	81 bb       	out	0x11, r24	; 17
	PORTD &= ~ (1 << LED);
    46e8:	82 b3       	in	r24, 0x12	; 18
    46ea:	8f 7b       	andi	r24, 0xBF	; 191
    46ec:	82 bb       	out	0x12, r24	; 18
	
	//инициализация портов для ILI9486
	DATA_PORT=0x00;
    46ee:	1b ba       	out	0x1b, r1	; 27
	DATA_DDR=0xFF;//Шина данных на выход
    46f0:	8f ef       	ldi	r24, 0xFF	; 255
    46f2:	8a bb       	out	0x1a, r24	; 26
	COMMAND_DDR |= ((1<<LCD_CS)|(1<<LCD_CD)|(1<<LCD_WR)|(1<<LCD_RD)|(1<<LCD_RESET));//Командные лапки также все на выход
    46f4:	84 b3       	in	r24, 0x14	; 20
    46f6:	88 6f       	ori	r24, 0xF8	; 248
    46f8:	84 bb       	out	0x14, r24	; 20
	COMMAND_PORT &= ~((1<<LCD_CS)|(1<<LCD_CD)|(1<<LCD_WR)|(1<<LCD_RD)|(1<<LCD_RESET));
    46fa:	85 b3       	in	r24, 0x15	; 21
    46fc:	87 70       	andi	r24, 0x07	; 7
    46fe:	85 bb       	out	0x15, r24	; 21
	PORTD &= ~(1<<E);
	DDRD |= (1<<RW);
	PORTD &= ~(1<<RW);*/
	
	//Инициализация для энкодера
	DDRD &= ~(1<<SW_ENC);
    4700:	81 b3       	in	r24, 0x11	; 17
    4702:	87 7f       	andi	r24, 0xF7	; 247
    4704:	81 bb       	out	0x11, r24	; 17
	DDRD &= ~((1<<DT_ENC)||(1<<CLK_ENC));
    4706:	81 b3       	in	r24, 0x11	; 17
    4708:	8e 7f       	andi	r24, 0xFE	; 254
    470a:	81 bb       	out	0x11, r24	; 17
	PORTD |= (1 << SW_ENC);
    470c:	82 b3       	in	r24, 0x12	; 18
    470e:	88 60       	ori	r24, 0x08	; 8
    4710:	82 bb       	out	0x12, r24	; 18
	PORTD &= ~((1 << DT_ENC)|(1 << CLK_ENC));
    4712:	82 b3       	in	r24, 0x12	; 18
    4714:	8f 7c       	andi	r24, 0xCF	; 207
    4716:	82 bb       	out	0x12, r24	; 18
    4718:	08 95       	ret

0000471a <spi_send_recv>:
	 DDRC|=(1<<MOSI_SD)|(1<<SCK_SD);*/
} 
//-------------------------------------------------------------
uint8_t spi_send_recv(uint8_t data) // Передаёт и принимает 1 байт по SPI, возвращает полученное значение
{
	SPDR = data;
    471a:	8f b9       	out	0x0f, r24	; 15
	while (!(SPSR & (1 << SPIF)));
    471c:	77 9b       	sbis	0x0e, 7	; 14
    471e:	fe cf       	rjmp	.-4      	; 0x471c <spi_send_recv+0x2>
	return SPDR;
    4720:	8f b1       	in	r24, 0x0f	; 15
}
    4722:	08 95       	ret

00004724 <main>:
{	
	uint8_t rx_count = 0;
	int32_t time1 = 0;
	int32_t time2 = 0;
	//настрока WDT
	WDTCR &= ~(1<<WDE);
    4724:	81 b5       	in	r24, 0x21	; 33
    4726:	87 7f       	andi	r24, 0xF7	; 247
    4728:	81 bd       	out	0x21, r24	; 33
__attribute__ ((__always_inline__))
void wdt_enable (const uint8_t value)
{
	if (_SFR_IO_REG_P (_WD_CONTROL_REG))
	{
		__asm__ __volatile__ (
    472a:	9f e0       	ldi	r25, 0x0F	; 15
    472c:	88 e1       	ldi	r24, 0x18	; 24
    472e:	0f b6       	in	r0, 0x3f	; 63
    4730:	f8 94       	cli
    4732:	a8 95       	wdr
    4734:	81 bd       	out	0x21, r24	; 33
    4736:	0f be       	out	0x3f, r0	; 63
    4738:	91 bd       	out	0x21, r25	; 33
	//включаем Watchdog на 2 с
	wdt_enable(WDTO_2S);
	port_init();
    473a:	0e 94 6b 23 	call	0x46d6	; 0x46d6 <port_init>
	PORTD |= (1<<LED);
    473e:	82 b3       	in	r24, 0x12	; 18
    4740:	80 64       	ori	r24, 0x40	; 64
    4742:	82 bb       	out	0x12, r24	; 18
	//Инициализация интерфейсов
	SPI_init();
    4744:	0e 94 5f 23 	call	0x46be	; 0x46be <SPI_init>
	I2C_Init();
    4748:	0e 94 a5 26 	call	0x4d4a	; 0x4d4a <I2C_Init>
	USART_Init(8);    //Инициализация модуля USART скорость 115200	
    474c:	88 e0       	ldi	r24, 0x08	; 8
    474e:	90 e0       	ldi	r25, 0x00	; 0
    4750:	0e 94 b8 26 	call	0x4d70	; 0x4d70 <USART_Init>
	ILI9486_ini();
    4754:	0e 94 44 16 	call	0x2c88	; 0x2c88 <ILI9486_ini>
	//LCD_12864_ini();
	//очистка дисплея

	//Вывод приветствия
	Print_Hello_World();
    4758:	0e 94 c4 26 	call	0x4d88	; 0x4d88 <Print_Hello_World>
	wdt_reset();
    475c:	a8 95       	wdr
	//Инициализация оборудования
	NRF24_ini();
    475e:	0e 94 76 25 	call	0x4aec	; 0x4aec <NRF24_ini>
	//RTC_init();
	//dht22_init();
	//BMP180_Calibration();
	wdt_reset();
    4762:	a8 95       	wdr
    4764:	2f ef       	ldi	r18, 0xFF	; 255
    4766:	8d e3       	ldi	r24, 0x3D	; 61
    4768:	99 e4       	ldi	r25, 0x49	; 73
    476a:	21 50       	subi	r18, 0x01	; 1
    476c:	80 40       	sbci	r24, 0x00	; 0
    476e:	90 40       	sbci	r25, 0x00	; 0
    4770:	e1 f7       	brne	.-8      	; 0x476a <main+0x46>
    4772:	00 c0       	rjmp	.+0      	; 0x4774 <main+0x50>
    4774:	00 00       	nop
	_delay_ms(1500);
	// Установка времени для DS3231(делается 1 разv)
	//RTC_write_time(13, 30, 0);
	//RTC_write_date(2, 28, 6, 22);
	//Вывод окна загрузки
	wdt_reset();
    4776:	a8 95       	wdr
	Print_Download();
    4778:	0e 94 f6 26 	call	0x4dec	; 0x4dec <Print_Download>
	wdt_reset();
    477c:	a8 95       	wdr
	PORTD &= ~(1<<LED);
    477e:	82 b3       	in	r24, 0x12	; 18
    4780:	8f 7b       	andi	r24, 0xBF	; 191
    4782:	82 bb       	out	0x12, r24	; 18
	//Инициализация таймеров и прерываний
	//timer2_ini();
	timer1_ini();
    4784:	0e 94 3c 21 	call	0x4278	; 0x4278 <timer1_ini>
	timer0_ini();
    4788:	0e 94 4a 21 	call	0x4294	; 0x4294 <timer0_ini>
	// настраиваем параметры прерывания
	MCUCR |= (1<<ISC01) | (0<<ISC00);
    478c:	85 b7       	in	r24, 0x35	; 53
    478e:	82 60       	ori	r24, 0x02	; 2
    4790:	85 bf       	out	0x35, r24	; 53
	GICR |= (1<<INT0);
    4792:	8b b7       	in	r24, 0x3b	; 59
    4794:	80 64       	ori	r24, 0x40	; 64
    4796:	8b bf       	out	0x3b, r24	; 59
	enc_interrupt_ini();
    4798:	0e 94 42 22 	call	0x4484	; 0x4484 <enc_interrupt_ini>
	// и разрешаем его глобально
	sei();
    479c:	78 94       	sei
	//Начальная конфигурация
	strcpy(temp_street_to_DB,"NULL");
    479e:	85 e0       	ldi	r24, 0x05	; 5
    47a0:	e3 e6       	ldi	r30, 0x63	; 99
    47a2:	f0 e0       	ldi	r31, 0x00	; 0
    47a4:	a1 e9       	ldi	r26, 0x91	; 145
    47a6:	b2 e0       	ldi	r27, 0x02	; 2
    47a8:	01 90       	ld	r0, Z+
    47aa:	0d 92       	st	X+, r0
    47ac:	8a 95       	dec	r24
    47ae:	e1 f7       	brne	.-8      	; 0x47a8 <main+0x84>
	strcpy(hum_street_to_DB,"NULL");
    47b0:	85 e0       	ldi	r24, 0x05	; 5
    47b2:	e3 e6       	ldi	r30, 0x63	; 99
    47b4:	f0 e0       	ldi	r31, 0x00	; 0
    47b6:	ac e8       	ldi	r26, 0x8C	; 140
    47b8:	b2 e0       	ldi	r27, 0x02	; 2
    47ba:	01 90       	ld	r0, Z+
    47bc:	0d 92       	st	X+, r0
    47be:	8a 95       	dec	r24
    47c0:	e1 f7       	brne	.-8      	; 0x47ba <main+0x96>
	strcpy(WIND_speed_to_DB,"NULL");
    47c2:	85 e0       	ldi	r24, 0x05	; 5
    47c4:	e3 e6       	ldi	r30, 0x63	; 99
    47c6:	f0 e0       	ldi	r31, 0x00	; 0
    47c8:	a7 e8       	ldi	r26, 0x87	; 135
    47ca:	b2 e0       	ldi	r27, 0x02	; 2
    47cc:	01 90       	ld	r0, Z+
    47ce:	0d 92       	st	X+, r0
    47d0:	8a 95       	dec	r24
    47d2:	e1 f7       	brne	.-8      	; 0x47cc <main+0xa8>
	strcpy(wind_direction_to_DB,"NULL");
    47d4:	85 e0       	ldi	r24, 0x05	; 5
    47d6:	e3 e6       	ldi	r30, 0x63	; 99
    47d8:	f0 e0       	ldi	r31, 0x00	; 0
    47da:	a1 e8       	ldi	r26, 0x81	; 129
    47dc:	b2 e0       	ldi	r27, 0x02	; 2
    47de:	01 90       	ld	r0, Z+
    47e0:	0d 92       	st	X+, r0
    47e2:	8a 95       	dec	r24
    47e4:	e1 f7       	brne	.-8      	; 0x47de <main+0xba>
	strcpy(Vbat_to_DB,"NULL");
    47e6:	85 e0       	ldi	r24, 0x05	; 5
    47e8:	e3 e6       	ldi	r30, 0x63	; 99
    47ea:	f0 e0       	ldi	r31, 0x00	; 0
    47ec:	ac e7       	ldi	r26, 0x7C	; 124
    47ee:	b2 e0       	ldi	r27, 0x02	; 2
    47f0:	01 90       	ld	r0, Z+
    47f2:	0d 92       	st	X+, r0
    47f4:	8a 95       	dec	r24
    47f6:	e1 f7       	brne	.-8      	; 0x47f0 <main+0xcc>
	strcpy(Rain_to_DB,"NULL");
    47f8:	85 e0       	ldi	r24, 0x05	; 5
    47fa:	e3 e6       	ldi	r30, 0x63	; 99
    47fc:	f0 e0       	ldi	r31, 0x00	; 0
    47fe:	a6 e7       	ldi	r26, 0x76	; 118
    4800:	b2 e0       	ldi	r27, 0x02	; 2
    4802:	01 90       	ld	r0, Z+
    4804:	0d 92       	st	X+, r0
    4806:	8a 95       	dec	r24
    4808:	e1 f7       	brne	.-8      	; 0x4802 <main+0xde>
	temp_street[0] = '0';
    480a:	ed eb       	ldi	r30, 0xBD	; 189
    480c:	f2 e0       	ldi	r31, 0x02	; 2
    480e:	80 e3       	ldi	r24, 0x30	; 48
    4810:	80 83       	st	Z, r24
	temp_street[1] = '0';
    4812:	81 83       	std	Z+1, r24	; 0x01
	temp_street[2] = '.';
    4814:	9e e2       	ldi	r25, 0x2E	; 46
    4816:	92 83       	std	Z+2, r25	; 0x02
	temp_street[3] = '0';
    4818:	83 83       	std	Z+3, r24	; 0x03
	hum_street[0] = '0';
    481a:	e8 eb       	ldi	r30, 0xB8	; 184
    481c:	f2 e0       	ldi	r31, 0x02	; 2
    481e:	80 83       	st	Z, r24
	hum_street[1] = '0';
    4820:	81 83       	std	Z+1, r24	; 0x01
	Vbat[0] = '0';
    4822:	e3 ea       	ldi	r30, 0xA3	; 163
    4824:	f2 e0       	ldi	r31, 0x02	; 2
    4826:	80 83       	st	Z, r24
	Vbat[1] = '.';
    4828:	91 83       	std	Z+1, r25	; 0x01
	Vbat[2] = '0';
    482a:	82 83       	std	Z+2, r24	; 0x02
	Vbat[3] = '0';
    482c:	83 83       	std	Z+3, r24	; 0x03
	temp_home[0] = '0';
    482e:	e2 eb       	ldi	r30, 0xB2	; 178
    4830:	f2 e0       	ldi	r31, 0x02	; 2
    4832:	80 83       	st	Z, r24
	temp_home[1] = '0';
    4834:	81 83       	std	Z+1, r24	; 0x01
	temp_home[2] = '.';
    4836:	92 83       	std	Z+2, r25	; 0x02
	temp_home[3] = '0';
    4838:	83 83       	std	Z+3, r24	; 0x03
	hum_home[0] = '0';
    483a:	ed ea       	ldi	r30, 0xAD	; 173
    483c:	f2 e0       	ldi	r31, 0x02	; 2
    483e:	80 83       	st	Z, r24
	hum_home[1] = '0';
    4840:	81 83       	std	Z+1, r24	; 0x01
	sprintf(WIND_speed,"0.00");
    4842:	95 e0       	ldi	r25, 0x05	; 5
    4844:	ea e7       	ldi	r30, 0x7A	; 122
    4846:	f0 e0       	ldi	r31, 0x00	; 0
    4848:	a8 ea       	ldi	r26, 0xA8	; 168
    484a:	b2 e0       	ldi	r27, 0x02	; 2
    484c:	01 90       	ld	r0, Z+
    484e:	0d 92       	st	X+, r0
    4850:	9a 95       	dec	r25
    4852:	e1 f7       	brne	.-8      	; 0x484c <main+0x128>
	/*WIND_speed[0] = '0';
	WIND_speed[1] = '.';
	WIND_speed[2] = '0';
	WIND_speed[3] = '0';*/
	Press_home[0] = '0';
    4854:	80 93 97 02 	sts	0x0297, r24	; 0x800297 <Press_home>
	wind_direction[0] = '-';
    4858:	8d e2       	ldi	r24, 0x2D	; 45
    485a:	80 93 e9 02 	sts	0x02E9, r24	; 0x8002e9 <wind_direction>
	Rain[0] = '-';
    485e:	80 93 9d 02 	sts	0x029D, r24	; 0x80029d <Rain>
	//Фиксация времени начала работы
	//Clock ();
	sprintf(start_time,"%s:%s:%s,%s/%s/%s", T_Param.hours, T_Param.minutes, T_Param.seconds, T_Param.mounthday, T_Param.Mounth, T_Param.Year);	
    4862:	88 e0       	ldi	r24, 0x08	; 8
    4864:	93 e0       	ldi	r25, 0x03	; 3
    4866:	9f 93       	push	r25
    4868:	8f 93       	push	r24
    486a:	84 e0       	ldi	r24, 0x04	; 4
    486c:	93 e0       	ldi	r25, 0x03	; 3
    486e:	9f 93       	push	r25
    4870:	8f 93       	push	r24
    4872:	80 e0       	ldi	r24, 0x00	; 0
    4874:	93 e0       	ldi	r25, 0x03	; 3
    4876:	9f 93       	push	r25
    4878:	8f 93       	push	r24
    487a:	88 ef       	ldi	r24, 0xF8	; 248
    487c:	92 e0       	ldi	r25, 0x02	; 2
    487e:	9f 93       	push	r25
    4880:	8f 93       	push	r24
    4882:	84 ef       	ldi	r24, 0xF4	; 244
    4884:	92 e0       	ldi	r25, 0x02	; 2
    4886:	9f 93       	push	r25
    4888:	8f 93       	push	r24
    488a:	80 ef       	ldi	r24, 0xF0	; 240
    488c:	92 e0       	ldi	r25, 0x02	; 2
    488e:	9f 93       	push	r25
    4890:	8f 93       	push	r24
    4892:	88 e6       	ldi	r24, 0x68	; 104
    4894:	90 e0       	ldi	r25, 0x00	; 0
    4896:	9f 93       	push	r25
    4898:	8f 93       	push	r24
    489a:	8c e5       	ldi	r24, 0x5C	; 92
    489c:	92 e0       	ldi	r25, 0x02	; 2
    489e:	9f 93       	push	r25
    48a0:	8f 93       	push	r24
    48a2:	0e 94 77 32 	call	0x64ee	; 0x64ee <sprintf>
	
	sprintf_HOME_Weath_Param();
    48a6:	0e 94 c6 31 	call	0x638c	; 0x638c <sprintf_HOME_Weath_Param>
	Print_Static_Home_Page();
    48aa:	0e 94 33 2c 	call	0x5866	; 0x5866 <Print_Static_Home_Page>
    48ae:	8d b7       	in	r24, 0x3d	; 61
    48b0:	9e b7       	in	r25, 0x3e	; 62
    48b2:	40 96       	adiw	r24, 0x10	; 16
    48b4:	0f b6       	in	r0, 0x3f	; 63
    48b6:	f8 94       	cli
    48b8:	9e bf       	out	0x3e, r25	; 62
    48ba:	0f be       	out	0x3f, r0	; 63
    48bc:	8d bf       	out	0x3d, r24	; 61
    while (1) 
    {
		//прием данных от передатчика
		if (rx_flag == 1)
    48be:	80 91 70 02 	lds	r24, 0x0270	; 0x800270 <rx_flag>
    48c2:	81 30       	cpi	r24, 0x01	; 1
    48c4:	09 f4       	brne	.+2      	; 0x48c8 <main+0x1a4>
    48c6:	ff cf       	rjmp	.-2      	; 0x48c6 <main+0x1a2>
			_delay_ms(1000);
		}
		else
		{
			//отправка данных в БД
			 if(millis >= 300000)
    48c8:	60 91 56 02 	lds	r22, 0x0256	; 0x800256 <millis>
    48cc:	70 91 57 02 	lds	r23, 0x0257	; 0x800257 <millis+0x1>
    48d0:	80 91 58 02 	lds	r24, 0x0258	; 0x800258 <millis+0x2>
    48d4:	90 91 59 02 	lds	r25, 0x0259	; 0x800259 <millis+0x3>
    48d8:	60 3e       	cpi	r22, 0xE0	; 224
    48da:	23 e9       	ldi	r18, 0x93	; 147
    48dc:	72 07       	cpc	r23, r18
    48de:	24 e0       	ldi	r18, 0x04	; 4
    48e0:	82 07       	cpc	r24, r18
    48e2:	91 05       	cpc	r25, r1
    48e4:	84 f4       	brge	.+32     	; 0x4906 <main+0x1e2>
				USART_Transmit(DATA_TO_UART);
				memset(DATA_TO_UART, 0, sizeof(char) * strlen(DATA_TO_UART));//очистка массива
				millis = 0;*/
			}
			//обновление домашних показаний
			else if ((millis % 6000) == 0)
    48e6:	20 e7       	ldi	r18, 0x70	; 112
    48e8:	37 e1       	ldi	r19, 0x17	; 23
    48ea:	40 e0       	ldi	r20, 0x00	; 0
    48ec:	50 e0       	ldi	r21, 0x00	; 0
    48ee:	0e 94 27 32 	call	0x644e	; 0x644e <__divmodsi4>
    48f2:	67 2b       	or	r22, r23
    48f4:	68 2b       	or	r22, r24
    48f6:	69 2b       	or	r22, r25
    48f8:	31 f4       	brne	.+12     	; 0x4906 <main+0x1e2>
			{
				sprintf_HOME_Weath_Param();
    48fa:	0e 94 c6 31 	call	0x638c	; 0x638c <sprintf_HOME_Weath_Param>
				Update_Home_Page();
    48fe:	0e 94 46 27 	call	0x4e8c	; 0x4e8c <Update_Home_Page>
				Print_Home_Page();
    4902:	0e 94 e3 2f 	call	0x5fc6	; 0x5fc6 <Print_Home_Page>
					case 4:	Print_Page_Dop_Info();
					break;*/
				}
			}
		}
		wdt_reset();
    4906:	a8 95       	wdr
    }
    4908:	da cf       	rjmp	.-76     	; 0x48be <main+0x19a>

0000490a <NRF24_FlushRX>:
//-------------------------------------------------------------
void nRF_command(uint8_t command)
{
	LOW_CSN;
	spi_send_recv(command);
	HIGH_CSN;
    490a:	88 b3       	in	r24, 0x18	; 24
    490c:	8f 7e       	andi	r24, 0xEF	; 239
    490e:	88 bb       	out	0x18, r24	; 24
    4910:	82 ee       	ldi	r24, 0xE2	; 226
    4912:	0e 94 8d 23 	call	0x471a	; 0x471a <spi_send_recv>
    4916:	85 e0       	ldi	r24, 0x05	; 5
    4918:	8a 95       	dec	r24
    491a:	f1 f7       	brne	.-4      	; 0x4918 <NRF24_FlushRX+0xe>
    491c:	00 00       	nop
    491e:	88 b3       	in	r24, 0x18	; 24
    4920:	80 61       	ori	r24, 0x10	; 16
    4922:	88 bb       	out	0x18, r24	; 24
    4924:	08 95       	ret

00004926 <NRF24_FlushTX>:
    4926:	88 b3       	in	r24, 0x18	; 24
    4928:	8f 7e       	andi	r24, 0xEF	; 239
    492a:	88 bb       	out	0x18, r24	; 24
    492c:	81 ee       	ldi	r24, 0xE1	; 225
    492e:	0e 94 8d 23 	call	0x471a	; 0x471a <spi_send_recv>
    4932:	85 e0       	ldi	r24, 0x05	; 5
    4934:	8a 95       	dec	r24
    4936:	f1 f7       	brne	.-4      	; 0x4934 <NRF24_FlushTX+0xe>
    4938:	00 00       	nop
    493a:	88 b3       	in	r24, 0x18	; 24
    493c:	80 61       	ori	r24, 0x10	; 16
    493e:	88 bb       	out	0x18, r24	; 24
    4940:	08 95       	ret

00004942 <NRF24_ToggleFeatures>:
    4942:	88 b3       	in	r24, 0x18	; 24
    4944:	8f 7e       	andi	r24, 0xEF	; 239
    4946:	88 bb       	out	0x18, r24	; 24
    4948:	80 e5       	ldi	r24, 0x50	; 80
    494a:	0e 94 8d 23 	call	0x471a	; 0x471a <spi_send_recv>
    494e:	85 e0       	ldi	r24, 0x05	; 5
    4950:	8a 95       	dec	r24
    4952:	f1 f7       	brne	.-4      	; 0x4950 <NRF24_ToggleFeatures+0xe>
    4954:	00 00       	nop
    4956:	83 e7       	ldi	r24, 0x73	; 115
    4958:	0e 94 8d 23 	call	0x471a	; 0x471a <spi_send_recv>
    495c:	88 b3       	in	r24, 0x18	; 24
    495e:	80 61       	ori	r24, 0x10	; 16
    4960:	88 bb       	out	0x18, r24	; 24
    4962:	08 95       	ret

00004964 <NRF24_Read_Buf>:
    4964:	ef 92       	push	r14
    4966:	ff 92       	push	r15
    4968:	0f 93       	push	r16
    496a:	1f 93       	push	r17
    496c:	cf 93       	push	r28
    496e:	df 93       	push	r29
    4970:	8b 01       	movw	r16, r22
    4972:	c4 2f       	mov	r28, r20
    4974:	98 b3       	in	r25, 0x18	; 24
    4976:	9f 7e       	andi	r25, 0xEF	; 239
    4978:	98 bb       	out	0x18, r25	; 24
    497a:	0e 94 8d 23 	call	0x471a	; 0x471a <spi_send_recv>
    497e:	0b c0       	rjmp	.+22     	; 0x4996 <NRF24_Read_Buf+0x32>
    4980:	78 01       	movw	r14, r16
    4982:	8f ef       	ldi	r24, 0xFF	; 255
    4984:	e8 1a       	sub	r14, r24
    4986:	f8 0a       	sbc	r15, r24
    4988:	8f ef       	ldi	r24, 0xFF	; 255
    498a:	0e 94 8d 23 	call	0x471a	; 0x471a <spi_send_recv>
    498e:	f8 01       	movw	r30, r16
    4990:	80 83       	st	Z, r24
    4992:	cd 2f       	mov	r28, r29
    4994:	87 01       	movw	r16, r14
    4996:	df ef       	ldi	r29, 0xFF	; 255
    4998:	dc 0f       	add	r29, r28
    499a:	c1 11       	cpse	r28, r1
    499c:	f1 cf       	rjmp	.-30     	; 0x4980 <NRF24_Read_Buf+0x1c>
    499e:	88 b3       	in	r24, 0x18	; 24
    49a0:	80 61       	ori	r24, 0x10	; 16
    49a2:	88 bb       	out	0x18, r24	; 24
    49a4:	df 91       	pop	r29
    49a6:	cf 91       	pop	r28
    49a8:	1f 91       	pop	r17
    49aa:	0f 91       	pop	r16
    49ac:	ff 90       	pop	r15
    49ae:	ef 90       	pop	r14
    49b0:	08 95       	ret

000049b2 <NRF24_Write_Buf>:
    49b2:	ef 92       	push	r14
    49b4:	ff 92       	push	r15
    49b6:	0f 93       	push	r16
    49b8:	1f 93       	push	r17
    49ba:	cf 93       	push	r28
    49bc:	df 93       	push	r29
    49be:	8b 01       	movw	r16, r22
    49c0:	c4 2f       	mov	r28, r20
    49c2:	98 b3       	in	r25, 0x18	; 24
    49c4:	9f 7e       	andi	r25, 0xEF	; 239
    49c6:	98 bb       	out	0x18, r25	; 24
    49c8:	80 62       	ori	r24, 0x20	; 32
    49ca:	0e 94 8d 23 	call	0x471a	; 0x471a <spi_send_recv>
    49ce:	85 e0       	ldi	r24, 0x05	; 5
    49d0:	8a 95       	dec	r24
    49d2:	f1 f7       	brne	.-4      	; 0x49d0 <NRF24_Write_Buf+0x1e>
    49d4:	00 00       	nop
    49d6:	0a c0       	rjmp	.+20     	; 0x49ec <NRF24_Write_Buf+0x3a>
    49d8:	78 01       	movw	r14, r16
    49da:	ef ef       	ldi	r30, 0xFF	; 255
    49dc:	ee 1a       	sub	r14, r30
    49de:	fe 0a       	sbc	r15, r30
    49e0:	f8 01       	movw	r30, r16
    49e2:	80 81       	ld	r24, Z
    49e4:	0e 94 8d 23 	call	0x471a	; 0x471a <spi_send_recv>
    49e8:	cd 2f       	mov	r28, r29
    49ea:	87 01       	movw	r16, r14
    49ec:	df ef       	ldi	r29, 0xFF	; 255
    49ee:	dc 0f       	add	r29, r28
    49f0:	c1 11       	cpse	r28, r1
    49f2:	f2 cf       	rjmp	.-28     	; 0x49d8 <NRF24_Write_Buf+0x26>
    49f4:	88 b3       	in	r24, 0x18	; 24
    49f6:	80 61       	ori	r24, 0x10	; 16
    49f8:	88 bb       	out	0x18, r24	; 24
    49fa:	df 91       	pop	r29
    49fc:	cf 91       	pop	r28
    49fe:	1f 91       	pop	r17
    4a00:	0f 91       	pop	r16
    4a02:	ff 90       	pop	r15
    4a04:	ef 90       	pop	r14
    4a06:	08 95       	ret

00004a08 <nRF_write_register>:
}
//-------------------------------------------------------------
void nRF_write_register(uint8_t reg, uint8_t data_out)
{
    4a08:	cf 93       	push	r28
    4a0a:	c6 2f       	mov	r28, r22
	reg |= W_REGISTER;
	LOW_CSN;
    4a0c:	98 b3       	in	r25, 0x18	; 24
    4a0e:	9f 7e       	andi	r25, 0xEF	; 239
    4a10:	98 bb       	out	0x18, r25	; 24
	spi_send_recv(reg);
    4a12:	80 62       	ori	r24, 0x20	; 32
    4a14:	0e 94 8d 23 	call	0x471a	; 0x471a <spi_send_recv>
	spi_send_recv(data_out);
    4a18:	8c 2f       	mov	r24, r28
    4a1a:	0e 94 8d 23 	call	0x471a	; 0x471a <spi_send_recv>
	HIGH_CSN;
    4a1e:	88 b3       	in	r24, 0x18	; 24
    4a20:	80 61       	ori	r24, 0x10	; 16
    4a22:	88 bb       	out	0x18, r24	; 24
}
    4a24:	cf 91       	pop	r28
    4a26:	08 95       	ret

00004a28 <nRF_read_register>:
//-------------------------------------------------------------
uint8_t nRF_read_register(uint8_t reg)
{
    4a28:	cf 93       	push	r28
    4a2a:	c8 2f       	mov	r28, r24
	uint8_t data_in;
	LOW_CSN;
    4a2c:	88 b3       	in	r24, 0x18	; 24
    4a2e:	8f 7e       	andi	r24, 0xEF	; 239
    4a30:	88 bb       	out	0x18, r24	; 24
	data_in = spi_send_recv(reg);
    4a32:	8c 2f       	mov	r24, r28
    4a34:	0e 94 8d 23 	call	0x471a	; 0x471a <spi_send_recv>
	if(reg != STATUS)
    4a38:	c7 30       	cpi	r28, 0x07	; 7
    4a3a:	19 f0       	breq	.+6      	; 0x4a42 <nRF_read_register+0x1a>
	{
		data_in = spi_send_recv(NOP);
    4a3c:	8f ef       	ldi	r24, 0xFF	; 255
    4a3e:	0e 94 8d 23 	call	0x471a	; 0x471a <spi_send_recv>
	}
	HIGH_CSN;
    4a42:	98 b3       	in	r25, 0x18	; 24
    4a44:	90 61       	ori	r25, 0x10	; 16
    4a46:	98 bb       	out	0x18, r25	; 24
	return data_in;
}
    4a48:	cf 91       	pop	r28
    4a4a:	08 95       	ret

00004a4c <__vector_1>:
		rx_flag = 0;
	}
}
//-------------------------------------------------------------
ISR(INT0_vect)
{
    4a4c:	1f 92       	push	r1
    4a4e:	0f 92       	push	r0
    4a50:	0f b6       	in	r0, 0x3f	; 63
    4a52:	0f 92       	push	r0
    4a54:	11 24       	eor	r1, r1
    4a56:	2f 93       	push	r18
    4a58:	3f 93       	push	r19
    4a5a:	4f 93       	push	r20
    4a5c:	5f 93       	push	r21
    4a5e:	6f 93       	push	r22
    4a60:	7f 93       	push	r23
    4a62:	8f 93       	push	r24
    4a64:	9f 93       	push	r25
    4a66:	af 93       	push	r26
    4a68:	bf 93       	push	r27
    4a6a:	ef 93       	push	r30
    4a6c:	ff 93       	push	r31
	uint8_t status=0x01;
	status = nRF_read_register(STATUS);
    4a6e:	87 e0       	ldi	r24, 0x07	; 7
    4a70:	0e 94 14 25 	call	0x4a28	; 0x4a28 <nRF_read_register>
	if(status & 0x40)
    4a74:	86 ff       	sbrs	r24, 6
    4a76:	0a c0       	rjmp	.+20     	; 0x4a8c <__vector_1+0x40>
	{
		NRF24_Read_Buf(R_RX_PAYLOAD,RX_BUF,TX_PLOAD_WIDTH);
    4a78:	45 e0       	ldi	r20, 0x05	; 5
    4a7a:	61 e7       	ldi	r22, 0x71	; 113
    4a7c:	72 e0       	ldi	r23, 0x02	; 2
    4a7e:	81 e6       	ldi	r24, 0x61	; 97
    4a80:	0e 94 b2 24 	call	0x4964	; 0x4964 <NRF24_Read_Buf>
		nRF_write_register(STATUS, 0x40);
    4a84:	60 e4       	ldi	r22, 0x40	; 64
    4a86:	87 e0       	ldi	r24, 0x07	; 7
    4a88:	0e 94 04 25 	call	0x4a08	; 0x4a08 <nRF_write_register>
	}
	 if(receive_counter == 6)
    4a8c:	80 91 d8 02 	lds	r24, 0x02D8	; 0x8002d8 <receive_counter>
    4a90:	86 30       	cpi	r24, 0x06	; 6
    4a92:	11 f4       	brne	.+4      	; 0x4a98 <__vector_1+0x4c>
	 {
		 receive_counter = 0;
    4a94:	10 92 d8 02 	sts	0x02D8, r1	; 0x8002d8 <receive_counter>
	 }
	 rx_flag = 1;
    4a98:	81 e0       	ldi	r24, 0x01	; 1
    4a9a:	80 93 70 02 	sts	0x0270, r24	; 0x800270 <rx_flag>
}
    4a9e:	ff 91       	pop	r31
    4aa0:	ef 91       	pop	r30
    4aa2:	bf 91       	pop	r27
    4aa4:	af 91       	pop	r26
    4aa6:	9f 91       	pop	r25
    4aa8:	8f 91       	pop	r24
    4aaa:	7f 91       	pop	r23
    4aac:	6f 91       	pop	r22
    4aae:	5f 91       	pop	r21
    4ab0:	4f 91       	pop	r20
    4ab2:	3f 91       	pop	r19
    4ab4:	2f 91       	pop	r18
    4ab6:	0f 90       	pop	r0
    4ab8:	0f be       	out	0x3f, r0	; 63
    4aba:	0f 90       	pop	r0
    4abc:	1f 90       	pop	r1
    4abe:	18 95       	reti

00004ac0 <NRF24L01_RX_Mode>:
}
//-------------------------------------------------------------
void NRF24L01_RX_Mode(void) // включение режима приема
{
	uint8_t regval = 0x00;
	regval = nRF_read_register(CONFIG);
    4ac0:	80 e0       	ldi	r24, 0x00	; 0
    4ac2:	0e 94 14 25 	call	0x4a28	; 0x4a28 <nRF_read_register>
	//разбудим модуль и переведём его в режим приёмника, включив биты PWR_UP и PRIM_RX
	regval |= (1<<PWR_UP)|(1<<PRIM_RX);
    4ac6:	68 2f       	mov	r22, r24
    4ac8:	63 60       	ori	r22, 0x03	; 3
	nRF_write_register(CONFIG,regval);
    4aca:	80 e0       	ldi	r24, 0x00	; 0
    4acc:	0e 94 04 25 	call	0x4a08	; 0x4a08 <nRF_write_register>
	HIGH_CE;
    4ad0:	88 b3       	in	r24, 0x18	; 24
    4ad2:	88 60       	ori	r24, 0x08	; 8
    4ad4:	88 bb       	out	0x18, r24	; 24
	#else
		//round up by default
		__ticks_dc = (uint32_t)(ceil(fabs(__tmp)));
	#endif

	__builtin_avr_delay_cycles(__ticks_dc);
    4ad6:	87 e5       	ldi	r24, 0x57	; 87
    4ad8:	92 e0       	ldi	r25, 0x02	; 2
    4ada:	01 97       	sbiw	r24, 0x01	; 1
    4adc:	f1 f7       	brne	.-4      	; 0x4ada <NRF24L01_RX_Mode+0x1a>
    4ade:	00 c0       	rjmp	.+0      	; 0x4ae0 <NRF24L01_RX_Mode+0x20>
    4ae0:	00 00       	nop
	_delay_us(150); //Задержка минимум 130 мкс
	// Flush buffers
	NRF24_FlushRX();
    4ae2:	0e 94 85 24 	call	0x490a	; 0x490a <NRF24_FlushRX>
	NRF24_FlushTX();
    4ae6:	0e 94 93 24 	call	0x4926	; 0x4926 <NRF24_FlushTX>
    4aea:	08 95       	ret

00004aec <NRF24_ini>:
uint8_t street_temp_fraction;//дробная часть уличн темп

//-------------------------------------------------------------
void NRF24_ini(void)
{
	LOW_CE;
    4aec:	88 b3       	in	r24, 0x18	; 24
    4aee:	87 7f       	andi	r24, 0xF7	; 247
    4af0:	88 bb       	out	0x18, r24	; 24
	#else
		//round up by default
		__ticks_dc = (uint32_t)(ceil(fabs(__tmp)));
	#endif

	__builtin_avr_delay_cycles(__ticks_dc);
    4af2:	8f e1       	ldi	r24, 0x1F	; 31
    4af4:	9e e4       	ldi	r25, 0x4E	; 78
    4af6:	01 97       	sbiw	r24, 0x01	; 1
    4af8:	f1 f7       	brne	.-4      	; 0x4af6 <NRF24_ini+0xa>
    4afa:	00 c0       	rjmp	.+0      	; 0x4afc <NRF24_ini+0x10>
    4afc:	00 00       	nop
	_delay_ms(5);
	nRF_write_register(CONFIG, 0x0a); // Set PWR_UP bit, enable CRC(1 byte) &Prim_RX:0 (Transmitter)
    4afe:	6a e0       	ldi	r22, 0x0A	; 10
    4b00:	80 e0       	ldi	r24, 0x00	; 0
    4b02:	0e 94 04 25 	call	0x4a08	; 0x4a08 <nRF_write_register>
    4b06:	8f e1       	ldi	r24, 0x1F	; 31
    4b08:	9e e4       	ldi	r25, 0x4E	; 78
    4b0a:	01 97       	sbiw	r24, 0x01	; 1
    4b0c:	f1 f7       	brne	.-4      	; 0x4b0a <NRF24_ini+0x1e>
    4b0e:	00 c0       	rjmp	.+0      	; 0x4b10 <NRF24_ini+0x24>
    4b10:	00 00       	nop
	_delay_ms(5);
	nRF_write_register(EN_AA, 0x02); // Enable Pipe1
    4b12:	62 e0       	ldi	r22, 0x02	; 2
    4b14:	81 e0       	ldi	r24, 0x01	; 1
    4b16:	0e 94 04 25 	call	0x4a08	; 0x4a08 <nRF_write_register>
	nRF_write_register(EN_RXADDR, 0x02); // Enable Pipe1
    4b1a:	62 e0       	ldi	r22, 0x02	; 2
    4b1c:	82 e0       	ldi	r24, 0x02	; 2
    4b1e:	0e 94 04 25 	call	0x4a08	; 0x4a08 <nRF_write_register>
	nRF_write_register(SETUP_AW, 0x01); // Setup address width=3 bytes
    4b22:	61 e0       	ldi	r22, 0x01	; 1
    4b24:	83 e0       	ldi	r24, 0x03	; 3
    4b26:	0e 94 04 25 	call	0x4a08	; 0x4a08 <nRF_write_register>
	nRF_write_register(SETUP_RETR, 0x5F); // // 1500us, 15 retrans
    4b2a:	6f e5       	ldi	r22, 0x5F	; 95
    4b2c:	84 e0       	ldi	r24, 0x04	; 4
    4b2e:	0e 94 04 25 	call	0x4a08	; 0x4a08 <nRF_write_register>
	NRF24_ToggleFeatures();
    4b32:	0e 94 a1 24 	call	0x4942	; 0x4942 <NRF24_ToggleFeatures>
	nRF_write_register(FEATURE, 0);
    4b36:	60 e0       	ldi	r22, 0x00	; 0
    4b38:	8d e1       	ldi	r24, 0x1D	; 29
    4b3a:	0e 94 04 25 	call	0x4a08	; 0x4a08 <nRF_write_register>
	nRF_write_register(DYNPD, 0);
    4b3e:	60 e0       	ldi	r22, 0x00	; 0
    4b40:	8c e1       	ldi	r24, 0x1C	; 28
    4b42:	0e 94 04 25 	call	0x4a08	; 0x4a08 <nRF_write_register>
	nRF_write_register(STATUS, 0x70);//Reset flags for IRQ
    4b46:	60 e7       	ldi	r22, 0x70	; 112
    4b48:	87 e0       	ldi	r24, 0x07	; 7
    4b4a:	0e 94 04 25 	call	0x4a08	; 0x4a08 <nRF_write_register>
	nRF_write_register(RF_CH, 76); // частота 2476 MHz
    4b4e:	6c e4       	ldi	r22, 0x4C	; 76
    4b50:	85 e0       	ldi	r24, 0x05	; 5
    4b52:	0e 94 04 25 	call	0x4a08	; 0x4a08 <nRF_write_register>
	nRF_write_register(RF_SETUP, 0x06); //TX_PWR:0dBm, Datarate:1Mbps
    4b56:	66 e0       	ldi	r22, 0x06	; 6
    4b58:	86 e0       	ldi	r24, 0x06	; 6
    4b5a:	0e 94 04 25 	call	0x4a08	; 0x4a08 <nRF_write_register>
	NRF24_Write_Buf(TX_ADDR, TX_ADDRESS, TX_ADR_WIDTH);
    4b5e:	43 e0       	ldi	r20, 0x03	; 3
    4b60:	60 e6       	ldi	r22, 0x60	; 96
    4b62:	70 e0       	ldi	r23, 0x00	; 0
    4b64:	80 e1       	ldi	r24, 0x10	; 16
    4b66:	0e 94 d9 24 	call	0x49b2	; 0x49b2 <NRF24_Write_Buf>
	NRF24_Write_Buf(RX_ADDR_P1, TX_ADDRESS, TX_ADR_WIDTH);
    4b6a:	43 e0       	ldi	r20, 0x03	; 3
    4b6c:	60 e6       	ldi	r22, 0x60	; 96
    4b6e:	70 e0       	ldi	r23, 0x00	; 0
    4b70:	8b e0       	ldi	r24, 0x0B	; 11
    4b72:	0e 94 d9 24 	call	0x49b2	; 0x49b2 <NRF24_Write_Buf>
	nRF_write_register(RX_PW_P1, TX_PLOAD_WIDTH); //Number of bytes in RX payload in data pipe 1
    4b76:	65 e0       	ldi	r22, 0x05	; 5
    4b78:	82 e1       	ldi	r24, 0x12	; 18
    4b7a:	0e 94 04 25 	call	0x4a08	; 0x4a08 <nRF_write_register>
	//пока уходим в режим приёмника
	NRF24L01_RX_Mode();
    4b7e:	0e 94 60 25 	call	0x4ac0	; 0x4ac0 <NRF24L01_RX_Mode>
    4b82:	08 95       	ret

00004b84 <RTC_ConvertFromBinDec>:
	I2C_SendByte(RTC_ConvertFromBinDec(wday));       // 0x03 день недели (воскресенье - 1, пн 2, вт 3, ср 4, чт 5, пт 6, сб 7)
	I2C_SendByte(RTC_ConvertFromBinDec(day));        // 0x04 день месяц
	I2C_SendByte(RTC_ConvertFromBinDec(month));      // 0x05 месяц
	I2C_SendByte(RTC_ConvertFromBinDec(year));       // 0x06 год
	I2C_StopCondition();                // остановка i2c
}
    4b84:	9d ec       	ldi	r25, 0xCD	; 205
    4b86:	89 9f       	mul	r24, r25
    4b88:	91 2d       	mov	r25, r1
    4b8a:	11 24       	eor	r1, r1
    4b8c:	96 95       	lsr	r25
    4b8e:	96 95       	lsr	r25
    4b90:	96 95       	lsr	r25
    4b92:	20 e1       	ldi	r18, 0x10	; 16
    4b94:	92 9f       	mul	r25, r18
    4b96:	a0 01       	movw	r20, r0
    4b98:	11 24       	eor	r1, r1
    4b9a:	99 0f       	add	r25, r25
    4b9c:	29 2f       	mov	r18, r25
    4b9e:	22 0f       	add	r18, r18
    4ba0:	22 0f       	add	r18, r18
    4ba2:	92 0f       	add	r25, r18
    4ba4:	89 1b       	sub	r24, r25
    4ba6:	84 2b       	or	r24, r20
    4ba8:	08 95       	ret

00004baa <ModifyRTC>:
	t2=t2*5;
}
*/
void ModifyRTC(void)
{
	I2C_StartCondition();
    4baa:	0e 94 a8 26 	call	0x4d50	; 0x4d50 <I2C_StartCondition>
	I2C_SendByte(0b11010000);
    4bae:	80 ed       	ldi	r24, 0xD0	; 208
    4bb0:	0e 94 b1 26 	call	0x4d62	; 0x4d62 <I2C_SendByte>
	switch(clock_change_mode)
    4bb4:	80 91 d0 02 	lds	r24, 0x02D0	; 0x8002d0 <clock_change_mode>
    4bb8:	83 30       	cpi	r24, 0x03	; 3
    4bba:	99 f1       	breq	.+102    	; 0x4c22 <ModifyRTC+0x78>
    4bbc:	28 f4       	brcc	.+10     	; 0x4bc8 <ModifyRTC+0x1e>
    4bbe:	81 30       	cpi	r24, 0x01	; 1
    4bc0:	61 f0       	breq	.+24     	; 0x4bda <ModifyRTC+0x30>
    4bc2:	82 30       	cpi	r24, 0x02	; 2
    4bc4:	e1 f0       	breq	.+56     	; 0x4bfe <ModifyRTC+0x54>
    4bc6:	be c0       	rjmp	.+380    	; 0x4d44 <ModifyRTC+0x19a>
    4bc8:	85 30       	cpi	r24, 0x05	; 5
    4bca:	09 f4       	brne	.+2      	; 0x4bce <ModifyRTC+0x24>
    4bcc:	98 c0       	rjmp	.+304    	; 0x4cfe <ModifyRTC+0x154>
    4bce:	08 f4       	brcc	.+2      	; 0x4bd2 <ModifyRTC+0x28>
    4bd0:	84 c0       	rjmp	.+264    	; 0x4cda <ModifyRTC+0x130>
    4bd2:	86 30       	cpi	r24, 0x06	; 6
    4bd4:	09 f4       	brne	.+2      	; 0x4bd8 <ModifyRTC+0x2e>
    4bd6:	a5 c0       	rjmp	.+330    	; 0x4d22 <ModifyRTC+0x178>
    4bd8:	b5 c0       	rjmp	.+362    	; 0x4d44 <ModifyRTC+0x19a>
	{
		case MODE_CHANGE_HOURS: //часы
		{
			I2C_SendByte(2);//Переходим на 0x02 — байт часов
    4bda:	82 e0       	ldi	r24, 0x02	; 2
    4bdc:	0e 94 b1 26 	call	0x4d62	; 0x4d62 <I2C_SendByte>
			if (hour <= 23) I2C_SendByte(RTC_ConvertFromBinDec( hour ));
    4be0:	80 91 cf 02 	lds	r24, 0x02CF	; 0x8002cf <hour>
    4be4:	88 31       	cpi	r24, 0x18	; 24
    4be6:	28 f4       	brcc	.+10     	; 0x4bf2 <ModifyRTC+0x48>
    4be8:	0e 94 c2 25 	call	0x4b84	; 0x4b84 <RTC_ConvertFromBinDec>
    4bec:	0e 94 b1 26 	call	0x4d62	; 0x4d62 <I2C_SendByte>
    4bf0:	a9 c0       	rjmp	.+338    	; 0x4d44 <ModifyRTC+0x19a>
			else I2C_SendByte(RTC_ConvertFromBinDec(0));
    4bf2:	80 e0       	ldi	r24, 0x00	; 0
    4bf4:	0e 94 c2 25 	call	0x4b84	; 0x4b84 <RTC_ConvertFromBinDec>
    4bf8:	0e 94 b1 26 	call	0x4d62	; 0x4d62 <I2C_SendByte>
    4bfc:	a3 c0       	rjmp	.+326    	; 0x4d44 <ModifyRTC+0x19a>
			break;
		}
		case MODE_CHANGE_MINUTES: // минуты
		{
			I2C_SendByte(1);//Переходим на 0x01 — байт минут
    4bfe:	81 e0       	ldi	r24, 0x01	; 1
    4c00:	0e 94 b1 26 	call	0x4d62	; 0x4d62 <I2C_SendByte>
			if(min<59) I2C_SendByte(RTC_ConvertFromBinDec(min));
    4c04:	80 91 d1 02 	lds	r24, 0x02D1	; 0x8002d1 <min>
    4c08:	8b 33       	cpi	r24, 0x3B	; 59
    4c0a:	28 f4       	brcc	.+10     	; 0x4c16 <ModifyRTC+0x6c>
    4c0c:	0e 94 c2 25 	call	0x4b84	; 0x4b84 <RTC_ConvertFromBinDec>
    4c10:	0e 94 b1 26 	call	0x4d62	; 0x4d62 <I2C_SendByte>
    4c14:	97 c0       	rjmp	.+302    	; 0x4d44 <ModifyRTC+0x19a>
			else I2C_SendByte(RTC_ConvertFromBinDec(0));
    4c16:	80 e0       	ldi	r24, 0x00	; 0
    4c18:	0e 94 c2 25 	call	0x4b84	; 0x4b84 <RTC_ConvertFromBinDec>
    4c1c:	0e 94 b1 26 	call	0x4d62	; 0x4d62 <I2C_SendByte>
    4c20:	91 c0       	rjmp	.+290    	; 0x4d44 <ModifyRTC+0x19a>
			break;
		}
		case MODE_CHANGE_DATE: // дата
		{
			I2C_SendByte(4);//Переходим на 0x04 — байт даты
    4c22:	84 e0       	ldi	r24, 0x04	; 4
    4c24:	0e 94 b1 26 	call	0x4d62	; 0x4d62 <I2C_SendByte>
			if (month==2) //февраль
    4c28:	80 91 ce 02 	lds	r24, 0x02CE	; 0x8002ce <month>
    4c2c:	82 30       	cpi	r24, 0x02	; 2
    4c2e:	11 f5       	brne	.+68     	; 0x4c74 <ModifyRTC+0xca>
			{
				if(year%4==0) //високосный год
    4c30:	80 91 d2 02 	lds	r24, 0x02D2	; 0x8002d2 <year>
    4c34:	83 70       	andi	r24, 0x03	; 3
    4c36:	79 f4       	brne	.+30     	; 0x4c56 <ModifyRTC+0xac>
				{
					if(date<29) I2C_SendByte(RTC_ConvertFromBinDec(date));
    4c38:	80 91 d6 02 	lds	r24, 0x02D6	; 0x8002d6 <date>
    4c3c:	8d 31       	cpi	r24, 0x1D	; 29
    4c3e:	28 f4       	brcc	.+10     	; 0x4c4a <ModifyRTC+0xa0>
    4c40:	0e 94 c2 25 	call	0x4b84	; 0x4b84 <RTC_ConvertFromBinDec>
    4c44:	0e 94 b1 26 	call	0x4d62	; 0x4d62 <I2C_SendByte>
    4c48:	7d c0       	rjmp	.+250    	; 0x4d44 <ModifyRTC+0x19a>
					else I2C_SendByte(RTC_ConvertFromBinDec(1));
    4c4a:	81 e0       	ldi	r24, 0x01	; 1
    4c4c:	0e 94 c2 25 	call	0x4b84	; 0x4b84 <RTC_ConvertFromBinDec>
    4c50:	0e 94 b1 26 	call	0x4d62	; 0x4d62 <I2C_SendByte>
    4c54:	77 c0       	rjmp	.+238    	; 0x4d44 <ModifyRTC+0x19a>
				}
				else
				{
					if(date<28) I2C_SendByte(RTC_ConvertFromBinDec(date));
    4c56:	80 91 d6 02 	lds	r24, 0x02D6	; 0x8002d6 <date>
    4c5a:	8c 31       	cpi	r24, 0x1C	; 28
    4c5c:	28 f4       	brcc	.+10     	; 0x4c68 <ModifyRTC+0xbe>
    4c5e:	0e 94 c2 25 	call	0x4b84	; 0x4b84 <RTC_ConvertFromBinDec>
    4c62:	0e 94 b1 26 	call	0x4d62	; 0x4d62 <I2C_SendByte>
    4c66:	6e c0       	rjmp	.+220    	; 0x4d44 <ModifyRTC+0x19a>
					else I2C_SendByte(RTC_ConvertFromBinDec(1));
    4c68:	81 e0       	ldi	r24, 0x01	; 1
    4c6a:	0e 94 c2 25 	call	0x4b84	; 0x4b84 <RTC_ConvertFromBinDec>
    4c6e:	0e 94 b1 26 	call	0x4d62	; 0x4d62 <I2C_SendByte>
    4c72:	68 c0       	rjmp	.+208    	; 0x4d44 <ModifyRTC+0x19a>
				}
			}
			else if ((month==4)|(month==6)|(month==9)|(month==11))
    4c74:	21 e0       	ldi	r18, 0x01	; 1
    4c76:	84 30       	cpi	r24, 0x04	; 4
    4c78:	09 f0       	breq	.+2      	; 0x4c7c <ModifyRTC+0xd2>
    4c7a:	20 e0       	ldi	r18, 0x00	; 0
    4c7c:	91 e0       	ldi	r25, 0x01	; 1
    4c7e:	86 30       	cpi	r24, 0x06	; 6
    4c80:	09 f0       	breq	.+2      	; 0x4c84 <ModifyRTC+0xda>
    4c82:	90 e0       	ldi	r25, 0x00	; 0
    4c84:	29 2b       	or	r18, r25
    4c86:	91 e0       	ldi	r25, 0x01	; 1
    4c88:	89 30       	cpi	r24, 0x09	; 9
    4c8a:	09 f0       	breq	.+2      	; 0x4c8e <ModifyRTC+0xe4>
    4c8c:	90 e0       	ldi	r25, 0x00	; 0
    4c8e:	31 e0       	ldi	r19, 0x01	; 1
    4c90:	8b 30       	cpi	r24, 0x0B	; 11
    4c92:	09 f0       	breq	.+2      	; 0x4c96 <ModifyRTC+0xec>
    4c94:	30 e0       	ldi	r19, 0x00	; 0
    4c96:	92 2b       	or	r25, r18
    4c98:	11 f4       	brne	.+4      	; 0x4c9e <ModifyRTC+0xf4>
    4c9a:	33 23       	and	r19, r19
    4c9c:	79 f0       	breq	.+30     	; 0x4cbc <ModifyRTC+0x112>
			{
				if(date<30) I2C_SendByte(RTC_ConvertFromBinDec(date));
    4c9e:	80 91 d6 02 	lds	r24, 0x02D6	; 0x8002d6 <date>
    4ca2:	8e 31       	cpi	r24, 0x1E	; 30
    4ca4:	28 f4       	brcc	.+10     	; 0x4cb0 <ModifyRTC+0x106>
    4ca6:	0e 94 c2 25 	call	0x4b84	; 0x4b84 <RTC_ConvertFromBinDec>
    4caa:	0e 94 b1 26 	call	0x4d62	; 0x4d62 <I2C_SendByte>
    4cae:	4a c0       	rjmp	.+148    	; 0x4d44 <ModifyRTC+0x19a>
				else I2C_SendByte(RTC_ConvertFromBinDec(1));
    4cb0:	81 e0       	ldi	r24, 0x01	; 1
    4cb2:	0e 94 c2 25 	call	0x4b84	; 0x4b84 <RTC_ConvertFromBinDec>
    4cb6:	0e 94 b1 26 	call	0x4d62	; 0x4d62 <I2C_SendByte>
    4cba:	44 c0       	rjmp	.+136    	; 0x4d44 <ModifyRTC+0x19a>
			}
			else
			{
				if(date<31) I2C_SendByte(RTC_ConvertFromBinDec(date));
    4cbc:	80 91 d6 02 	lds	r24, 0x02D6	; 0x8002d6 <date>
    4cc0:	8f 31       	cpi	r24, 0x1F	; 31
    4cc2:	28 f4       	brcc	.+10     	; 0x4cce <ModifyRTC+0x124>
    4cc4:	0e 94 c2 25 	call	0x4b84	; 0x4b84 <RTC_ConvertFromBinDec>
    4cc8:	0e 94 b1 26 	call	0x4d62	; 0x4d62 <I2C_SendByte>
    4ccc:	3b c0       	rjmp	.+118    	; 0x4d44 <ModifyRTC+0x19a>
				else I2C_SendByte(RTC_ConvertFromBinDec(1));
    4cce:	81 e0       	ldi	r24, 0x01	; 1
    4cd0:	0e 94 c2 25 	call	0x4b84	; 0x4b84 <RTC_ConvertFromBinDec>
    4cd4:	0e 94 b1 26 	call	0x4d62	; 0x4d62 <I2C_SendByte>
    4cd8:	35 c0       	rjmp	.+106    	; 0x4d44 <ModifyRTC+0x19a>
			}
			break;
		}
		case MODE_CHANGE_MONTH: // месяц
		{
			I2C_SendByte(5);//Переходим на 0x05 — байт месяца
    4cda:	85 e0       	ldi	r24, 0x05	; 5
    4cdc:	0e 94 b1 26 	call	0x4d62	; 0x4d62 <I2C_SendByte>
			if(month<12) I2C_SendByte(RTC_ConvertFromBinDec(month));
    4ce0:	80 91 ce 02 	lds	r24, 0x02CE	; 0x8002ce <month>
    4ce4:	8c 30       	cpi	r24, 0x0C	; 12
    4ce6:	28 f4       	brcc	.+10     	; 0x4cf2 <ModifyRTC+0x148>
    4ce8:	0e 94 c2 25 	call	0x4b84	; 0x4b84 <RTC_ConvertFromBinDec>
    4cec:	0e 94 b1 26 	call	0x4d62	; 0x4d62 <I2C_SendByte>
    4cf0:	29 c0       	rjmp	.+82     	; 0x4d44 <ModifyRTC+0x19a>
			else I2C_SendByte(RTC_ConvertFromBinDec(1));
    4cf2:	81 e0       	ldi	r24, 0x01	; 1
    4cf4:	0e 94 c2 25 	call	0x4b84	; 0x4b84 <RTC_ConvertFromBinDec>
    4cf8:	0e 94 b1 26 	call	0x4d62	; 0x4d62 <I2C_SendByte>
    4cfc:	23 c0       	rjmp	.+70     	; 0x4d44 <ModifyRTC+0x19a>
			break;
		}
		case MODE_CHANGE_YEAR: // год
		{
			I2C_SendByte(6);//Переходим на 0x06 — байт года
    4cfe:	86 e0       	ldi	r24, 0x06	; 6
    4d00:	0e 94 b1 26 	call	0x4d62	; 0x4d62 <I2C_SendByte>
			if(year<99) I2C_SendByte(RTC_ConvertFromBinDec(year));
    4d04:	80 91 d2 02 	lds	r24, 0x02D2	; 0x8002d2 <year>
    4d08:	83 36       	cpi	r24, 0x63	; 99
    4d0a:	28 f4       	brcc	.+10     	; 0x4d16 <ModifyRTC+0x16c>
    4d0c:	0e 94 c2 25 	call	0x4b84	; 0x4b84 <RTC_ConvertFromBinDec>
    4d10:	0e 94 b1 26 	call	0x4d62	; 0x4d62 <I2C_SendByte>
    4d14:	17 c0       	rjmp	.+46     	; 0x4d44 <ModifyRTC+0x19a>
			else I2C_SendByte(RTC_ConvertFromBinDec(1));
    4d16:	81 e0       	ldi	r24, 0x01	; 1
    4d18:	0e 94 c2 25 	call	0x4b84	; 0x4b84 <RTC_ConvertFromBinDec>
    4d1c:	0e 94 b1 26 	call	0x4d62	; 0x4d62 <I2C_SendByte>
    4d20:	11 c0       	rjmp	.+34     	; 0x4d44 <ModifyRTC+0x19a>
			break;
		}
		case MODE_CHANGE_WEAKDAY: // день недели
		{
			I2C_SendByte(3);//Переходим на 0x03 — байт дня недели
    4d22:	83 e0       	ldi	r24, 0x03	; 3
    4d24:	0e 94 b1 26 	call	0x4d62	; 0x4d62 <I2C_SendByte>
			if(day<7) I2C_SendByte(RTC_ConvertFromBinDec(day));
    4d28:	80 91 d4 02 	lds	r24, 0x02D4	; 0x8002d4 <day>
    4d2c:	87 30       	cpi	r24, 0x07	; 7
    4d2e:	28 f4       	brcc	.+10     	; 0x4d3a <ModifyRTC+0x190>
    4d30:	0e 94 c2 25 	call	0x4b84	; 0x4b84 <RTC_ConvertFromBinDec>
    4d34:	0e 94 b1 26 	call	0x4d62	; 0x4d62 <I2C_SendByte>
    4d38:	05 c0       	rjmp	.+10     	; 0x4d44 <ModifyRTC+0x19a>
			else I2C_SendByte(RTC_ConvertFromBinDec(1));
    4d3a:	81 e0       	ldi	r24, 0x01	; 1
    4d3c:	0e 94 c2 25 	call	0x4b84	; 0x4b84 <RTC_ConvertFromBinDec>
    4d40:	0e 94 b1 26 	call	0x4d62	; 0x4d62 <I2C_SendByte>
			if(alarmmin<59) EEPROM_write(3,alarmmin+1);
			else EEPROM_write(3,0);
			break;
		}*/
	}
	I2C_StopCondition();
    4d44:	0e 94 ae 26 	call	0x4d5c	; 0x4d5c <I2C_StopCondition>
    4d48:	08 95       	ret

00004d4a <I2C_Init>:
 */ 
#include "TWI.h"

void I2C_Init(void)
{
	TWBR=0x20; //скорость передачи (при 8 мГц получается 100 кГц)
    4d4a:	80 e2       	ldi	r24, 0x20	; 32
    4d4c:	80 b9       	out	0x00, r24	; 0
    4d4e:	08 95       	ret

00004d50 <I2C_StartCondition>:
}
void I2C_StartCondition(void)
{
	TWCR = (1<<TWINT)|(1<<TWSTA)|(1<<TWEN);
    4d50:	84 ea       	ldi	r24, 0xA4	; 164
    4d52:	86 bf       	out	0x36, r24	; 54
	while(!(TWCR&(1<<TWINT)));//подождем пока установится TWIN
    4d54:	06 b6       	in	r0, 0x36	; 54
    4d56:	07 fe       	sbrs	r0, 7
    4d58:	fd cf       	rjmp	.-6      	; 0x4d54 <I2C_StartCondition+0x4>
}
    4d5a:	08 95       	ret

00004d5c <I2C_StopCondition>:
void I2C_StopCondition(void)
{
	TWCR = (1<<TWINT)|(1<<TWSTO)|(1<<TWEN);
    4d5c:	84 e9       	ldi	r24, 0x94	; 148
    4d5e:	86 bf       	out	0x36, r24	; 54
    4d60:	08 95       	ret

00004d62 <I2C_SendByte>:
}
void I2C_SendByte(unsigned char c)
{
	TWDR = c;//запишем байт в регистр данных
    4d62:	83 b9       	out	0x03, r24	; 3
	TWCR = (1<<TWINT)|(1<<TWEN);//включим передачу байта
    4d64:	84 e8       	ldi	r24, 0x84	; 132
    4d66:	86 bf       	out	0x36, r24	; 54
	while (!(TWCR & (1<<TWINT)));//подождем пока установится TWIN
    4d68:	06 b6       	in	r0, 0x36	; 54
    4d6a:	07 fe       	sbrs	r0, 7
    4d6c:	fd cf       	rjmp	.-6      	; 0x4d68 <I2C_SendByte+0x6>
}
    4d6e:	08 95       	ret

00004d70 <USART_Init>:

extern uint8_t rx_flag;

void USART_Init( unsigned int speed)//Инициализация модуля USART
{	
  UBRRH = (unsigned char)(speed>>8);
    4d70:	90 bd       	out	0x20, r25	; 32
  UBRRL = (unsigned char)speed;
    4d72:	89 b9       	out	0x09, r24	; 9
  UCSRB |= (1<<RXEN)|( 1<<TXEN); //Включаем прием и передачу по USART
    4d74:	8a b1       	in	r24, 0x0a	; 10
    4d76:	88 61       	ori	r24, 0x18	; 24
    4d78:	8a b9       	out	0x0a, r24	; 10
  //UCSR0B |= (1<<RXCIE0); //Разрешаем прерывание при приеме
  UCSRA |= (1<<U2X); // Для 8 мгц, удвоение скорости
    4d7a:	8b b1       	in	r24, 0x0b	; 11
    4d7c:	82 60       	ori	r24, 0x02	; 2
    4d7e:	8b b9       	out	0x0b, r24	; 11
  UCSRC |= (1<<URSEL)|(1<<USBS)|(1<<UCSZ1)|(1<<UCSZ0);// Обращаемся именно к регистру UCSRC (URSEL=1),
    4d80:	80 b5       	in	r24, 0x20	; 32
    4d82:	8e 68       	ori	r24, 0x8E	; 142
    4d84:	80 bd       	out	0x20, r24	; 32
    4d86:	08 95       	ret

00004d88 <Print_Hello_World>:
		n = 0;
	}
	speed = 2*314*RADIUS*n/4; //период 2 сек+2 магнита
	
	return speed;
}
    4d88:	80 e0       	ldi	r24, 0x00	; 0
    4d8a:	90 e0       	ldi	r25, 0x00	; 0
    4d8c:	0e 94 7c 18 	call	0x30f8	; 0x30f8 <ILI9486_FillScreen>
    4d90:	81 e0       	ldi	r24, 0x01	; 1
    4d92:	0e 94 ef 15 	call	0x2bde	; 0x2bde <ILI9486_SetRotation>
    4d96:	60 e0       	ldi	r22, 0x00	; 0
    4d98:	70 e0       	ldi	r23, 0x00	; 0
    4d9a:	8f ef       	ldi	r24, 0xFF	; 255
    4d9c:	9f ef       	ldi	r25, 0xFF	; 255
    4d9e:	0e 94 d0 1d 	call	0x3ba0	; 0x3ba0 <ILI9486_SetTextColor>
    4da2:	60 e5       	ldi	r22, 0x50	; 80
    4da4:	70 e0       	ldi	r23, 0x00	; 0
    4da6:	8e e6       	ldi	r24, 0x6E	; 110
    4da8:	90 e0       	ldi	r25, 0x00	; 0
    4daa:	0e 94 dd 1f 	call	0x3fba	; 0x3fba <ILI9486_SetCursor>
    4dae:	61 e0       	ldi	r22, 0x01	; 1
    4db0:	8f e7       	ldi	r24, 0x7F	; 127
    4db2:	90 e0       	ldi	r25, 0x00	; 0
    4db4:	0e 94 e6 1f 	call	0x3fcc	; 0x3fcc <ILI9486_Print_String18x32>
    4db8:	a8 95       	wdr
    4dba:	66 e9       	ldi	r22, 0x96	; 150
    4dbc:	70 e0       	ldi	r23, 0x00	; 0
    4dbe:	82 e3       	ldi	r24, 0x32	; 50
    4dc0:	90 e0       	ldi	r25, 0x00	; 0
    4dc2:	0e 94 dd 1f 	call	0x3fba	; 0x3fba <ILI9486_SetCursor>
    4dc6:	61 e0       	ldi	r22, 0x01	; 1
    4dc8:	80 e9       	ldi	r24, 0x90	; 144
    4dca:	90 e0       	ldi	r25, 0x00	; 0
    4dcc:	0e 94 e6 1f 	call	0x3fcc	; 0x3fcc <ILI9486_Print_String18x32>
    4dd0:	a8 95       	wdr
    4dd2:	6c ed       	ldi	r22, 0xDC	; 220
    4dd4:	70 e0       	ldi	r23, 0x00	; 0
    4dd6:	84 e6       	ldi	r24, 0x64	; 100
    4dd8:	90 e0       	ldi	r25, 0x00	; 0
    4dda:	0e 94 dd 1f 	call	0x3fba	; 0x3fba <ILI9486_SetCursor>
    4dde:	61 e0       	ldi	r22, 0x01	; 1
    4de0:	86 ea       	ldi	r24, 0xA6	; 166
    4de2:	90 e0       	ldi	r25, 0x00	; 0
    4de4:	0e 94 e6 1f 	call	0x3fcc	; 0x3fcc <ILI9486_Print_String18x32>
    4de8:	a8 95       	wdr
    4dea:	08 95       	ret

00004dec <Print_Download>:
    4dec:	0f 93       	push	r16
    4dee:	1f 93       	push	r17
    4df0:	cf 93       	push	r28
    4df2:	df 93       	push	r29
    4df4:	80 e0       	ldi	r24, 0x00	; 0
    4df6:	90 e0       	ldi	r25, 0x00	; 0
    4df8:	0e 94 7c 18 	call	0x30f8	; 0x30f8 <ILI9486_FillScreen>
    4dfc:	81 e0       	ldi	r24, 0x01	; 1
    4dfe:	0e 94 ef 15 	call	0x2bde	; 0x2bde <ILI9486_SetRotation>
    4e02:	60 e5       	ldi	r22, 0x50	; 80
    4e04:	70 e0       	ldi	r23, 0x00	; 0
    4e06:	8e e6       	ldi	r24, 0x6E	; 110
    4e08:	90 e0       	ldi	r25, 0x00	; 0
    4e0a:	0e 94 dd 1f 	call	0x3fba	; 0x3fba <ILI9486_SetCursor>
    4e0e:	61 e0       	ldi	r22, 0x01	; 1
    4e10:	87 eb       	ldi	r24, 0xB7	; 183
    4e12:	90 e0       	ldi	r25, 0x00	; 0
    4e14:	0e 94 e6 1f 	call	0x3fcc	; 0x3fcc <ILI9486_Print_String18x32>
    4e18:	a8 95       	wdr
    4e1a:	68 e7       	ldi	r22, 0x78	; 120
    4e1c:	70 e0       	ldi	r23, 0x00	; 0
    4e1e:	8a e0       	ldi	r24, 0x0A	; 10
    4e20:	90 e0       	ldi	r25, 0x00	; 0
    4e22:	0e 94 dd 1f 	call	0x3fba	; 0x3fba <ILI9486_SetCursor>
    4e26:	61 e0       	ldi	r22, 0x01	; 1
    4e28:	88 ec       	ldi	r24, 0xC8	; 200
    4e2a:	90 e0       	ldi	r25, 0x00	; 0
    4e2c:	0e 94 e6 1f 	call	0x3fcc	; 0x3fcc <ILI9486_Print_String18x32>
    4e30:	a8 95       	wdr
    4e32:	0f ef       	ldi	r16, 0xFF	; 255
    4e34:	1f ef       	ldi	r17, 0xFF	; 255
    4e36:	22 e3       	ldi	r18, 0x32	; 50
    4e38:	30 e0       	ldi	r19, 0x00	; 0
    4e3a:	4f e7       	ldi	r20, 0x7F	; 127
    4e3c:	51 e0       	ldi	r21, 0x01	; 1
    4e3e:	68 ec       	ldi	r22, 0xC8	; 200
    4e40:	70 e0       	ldi	r23, 0x00	; 0
    4e42:	82 e3       	ldi	r24, 0x32	; 50
    4e44:	90 e0       	ldi	r25, 0x00	; 0
    4e46:	0e 94 03 1c 	call	0x3806	; 0x3806 <ILI9486_DrawRect>
    4e4a:	c6 e3       	ldi	r28, 0x36	; 54
    4e4c:	d0 e0       	ldi	r29, 0x00	; 0
    4e4e:	15 c0       	rjmp	.+42     	; 0x4e7a <Print_Download+0x8e>
    4e50:	0f ef       	ldi	r16, 0xFF	; 255
    4e52:	1f ef       	ldi	r17, 0xFF	; 255
    4e54:	25 ef       	ldi	r18, 0xF5	; 245
    4e56:	30 e0       	ldi	r19, 0x00	; 0
    4e58:	ae 01       	movw	r20, r28
    4e5a:	6c ec       	ldi	r22, 0xCC	; 204
    4e5c:	70 e0       	ldi	r23, 0x00	; 0
    4e5e:	ce 01       	movw	r24, r28
    4e60:	0e 94 25 1a 	call	0x344a	; 0x344a <ILI9486_Draw_Line>
    4e64:	2f ef       	ldi	r18, 0xFF	; 255
    4e66:	89 ef       	ldi	r24, 0xF9	; 249
    4e68:	90 e0       	ldi	r25, 0x00	; 0
    4e6a:	21 50       	subi	r18, 0x01	; 1
    4e6c:	80 40       	sbci	r24, 0x00	; 0
    4e6e:	90 40       	sbci	r25, 0x00	; 0
    4e70:	e1 f7       	brne	.-8      	; 0x4e6a <Print_Download+0x7e>
    4e72:	00 c0       	rjmp	.+0      	; 0x4e74 <Print_Download+0x88>
    4e74:	00 00       	nop
    4e76:	a8 95       	wdr
    4e78:	21 96       	adiw	r28, 0x01	; 1
    4e7a:	cd 3a       	cpi	r28, 0xAD	; 173
    4e7c:	21 e0       	ldi	r18, 0x01	; 1
    4e7e:	d2 07       	cpc	r29, r18
    4e80:	38 f3       	brcs	.-50     	; 0x4e50 <Print_Download+0x64>
    4e82:	df 91       	pop	r29
    4e84:	cf 91       	pop	r28
    4e86:	1f 91       	pop	r17
    4e88:	0f 91       	pop	r16
    4e8a:	08 95       	ret

00004e8c <Update_Home_Page>:
    4e8c:	0f 93       	push	r16
    4e8e:	1f 93       	push	r17
    4e90:	00 e0       	ldi	r16, 0x00	; 0
    4e92:	10 e0       	ldi	r17, 0x00	; 0
    4e94:	2c e3       	ldi	r18, 0x3C	; 60
    4e96:	30 e0       	ldi	r19, 0x00	; 0
    4e98:	4a e8       	ldi	r20, 0x8A	; 138
    4e9a:	50 e0       	ldi	r21, 0x00	; 0
    4e9c:	6a ef       	ldi	r22, 0xFA	; 250
    4e9e:	70 e0       	ldi	r23, 0x00	; 0
    4ea0:	83 e0       	ldi	r24, 0x03	; 3
    4ea2:	90 e0       	ldi	r25, 0x00	; 0
    4ea4:	0e 94 cf 18 	call	0x319e	; 0x319e <ILI9486_fillRect>
    4ea8:	2c e3       	ldi	r18, 0x3C	; 60
    4eaa:	30 e0       	ldi	r19, 0x00	; 0
    4eac:	4a e8       	ldi	r20, 0x8A	; 138
    4eae:	50 e0       	ldi	r21, 0x00	; 0
    4eb0:	6a ef       	ldi	r22, 0xFA	; 250
    4eb2:	70 e0       	ldi	r23, 0x00	; 0
    4eb4:	8d e3       	ldi	r24, 0x3D	; 61
    4eb6:	91 e0       	ldi	r25, 0x01	; 1
    4eb8:	0e 94 cf 18 	call	0x319e	; 0x319e <ILI9486_fillRect>
    4ebc:	1f 91       	pop	r17
    4ebe:	0f 91       	pop	r16
    4ec0:	08 95       	ret

00004ec2 <Print_Boards_Main>:
    4ec2:	2f 92       	push	r2
    4ec4:	3f 92       	push	r3
    4ec6:	4f 92       	push	r4
    4ec8:	5f 92       	push	r5
    4eca:	6f 92       	push	r6
    4ecc:	7f 92       	push	r7
    4ece:	8f 92       	push	r8
    4ed0:	9f 92       	push	r9
    4ed2:	af 92       	push	r10
    4ed4:	bf 92       	push	r11
    4ed6:	cf 92       	push	r12
    4ed8:	df 92       	push	r13
    4eda:	ef 92       	push	r14
    4edc:	ff 92       	push	r15
    4ede:	0f 93       	push	r16
    4ee0:	1f 93       	push	r17
    4ee2:	cf 93       	push	r28
    4ee4:	df 93       	push	r29
    4ee6:	0f ef       	ldi	r16, 0xFF	; 255
    4ee8:	1f ef       	ldi	r17, 0xFF	; 255
    4eea:	21 e0       	ldi	r18, 0x01	; 1
    4eec:	30 e0       	ldi	r19, 0x00	; 0
    4eee:	40 ed       	ldi	r20, 0xD0	; 208
    4ef0:	51 e0       	ldi	r21, 0x01	; 1
    4ef2:	61 e0       	ldi	r22, 0x01	; 1
    4ef4:	70 e0       	ldi	r23, 0x00	; 0
    4ef6:	8f e0       	ldi	r24, 0x0F	; 15
    4ef8:	90 e0       	ldi	r25, 0x00	; 0
    4efa:	0e 94 25 1a 	call	0x344a	; 0x344a <ILI9486_Draw_Line>
    4efe:	0f 2e       	mov	r0, r31
    4f00:	fe e0       	ldi	r31, 0x0E	; 14
    4f02:	cf 2e       	mov	r12, r31
    4f04:	d1 2c       	mov	r13, r1
    4f06:	f0 2d       	mov	r31, r0
    4f08:	e1 2c       	mov	r14, r1
    4f0a:	f1 2c       	mov	r15, r1
    4f0c:	0f 2e       	mov	r0, r31
    4f0e:	f4 ee       	ldi	r31, 0xE4	; 228
    4f10:	8f 2e       	mov	r8, r31
    4f12:	99 24       	eor	r9, r9
    4f14:	9a 94       	dec	r9
    4f16:	f0 2d       	mov	r31, r0
    4f18:	aa 24       	eor	r10, r10
    4f1a:	a3 94       	inc	r10
    4f1c:	b1 2c       	mov	r11, r1
    4f1e:	03 ef       	ldi	r16, 0xF3	; 243
    4f20:	1f ef       	ldi	r17, 0xFF	; 255
    4f22:	25 c0       	rjmp	.+74     	; 0x4f6e <Print_Boards_Main+0xac>
    4f24:	11 23       	and	r17, r17
    4f26:	44 f0       	brlt	.+16     	; 0x4f38 <Print_Boards_Main+0x76>
    4f28:	21 e0       	ldi	r18, 0x01	; 1
    4f2a:	c2 1a       	sub	r12, r18
    4f2c:	d1 08       	sbc	r13, r1
    4f2e:	82 e0       	ldi	r24, 0x02	; 2
    4f30:	88 0e       	add	r8, r24
    4f32:	91 1c       	adc	r9, r1
    4f34:	08 0d       	add	r16, r8
    4f36:	19 1d       	adc	r17, r9
    4f38:	2f ef       	ldi	r18, 0xFF	; 255
    4f3a:	e2 1a       	sub	r14, r18
    4f3c:	f2 0a       	sbc	r15, r18
    4f3e:	82 e0       	ldi	r24, 0x02	; 2
    4f40:	a8 0e       	add	r10, r24
    4f42:	b1 1c       	adc	r11, r1
    4f44:	0a 0d       	add	r16, r10
    4f46:	1b 1d       	adc	r17, r11
    4f48:	cf e0       	ldi	r28, 0x0F	; 15
    4f4a:	d0 e0       	ldi	r29, 0x00	; 0
    4f4c:	3e 01       	movw	r6, r28
    4f4e:	6c 18       	sub	r6, r12
    4f50:	7d 08       	sbc	r7, r13
    4f52:	ce 19       	sub	r28, r14
    4f54:	df 09       	sbc	r29, r15
    4f56:	4f ef       	ldi	r20, 0xFF	; 255
    4f58:	5f ef       	ldi	r21, 0xFF	; 255
    4f5a:	b3 01       	movw	r22, r6
    4f5c:	ce 01       	movw	r24, r28
    4f5e:	0e 94 6d 18 	call	0x30da	; 0x30da <ILI9486_drawPixel>
    4f62:	4f ef       	ldi	r20, 0xFF	; 255
    4f64:	5f ef       	ldi	r21, 0xFF	; 255
    4f66:	be 01       	movw	r22, r28
    4f68:	c3 01       	movw	r24, r6
    4f6a:	0e 94 6d 18 	call	0x30da	; 0x30da <ILI9486_drawPixel>
    4f6e:	ec 14       	cp	r14, r12
    4f70:	fd 04       	cpc	r15, r13
    4f72:	c4 f2       	brlt	.-80     	; 0x4f24 <Print_Boards_Main+0x62>
    4f74:	0f ef       	ldi	r16, 0xFF	; 255
    4f76:	1f ef       	ldi	r17, 0xFF	; 255
    4f78:	20 e3       	ldi	r18, 0x30	; 48
    4f7a:	31 e0       	ldi	r19, 0x01	; 1
    4f7c:	4e ed       	ldi	r20, 0xDE	; 222
    4f7e:	51 e0       	ldi	r21, 0x01	; 1
    4f80:	6f e0       	ldi	r22, 0x0F	; 15
    4f82:	70 e0       	ldi	r23, 0x00	; 0
    4f84:	8e ed       	ldi	r24, 0xDE	; 222
    4f86:	91 e0       	ldi	r25, 0x01	; 1
    4f88:	0e 94 25 1a 	call	0x344a	; 0x344a <ILI9486_Draw_Line>
    4f8c:	0e e0       	ldi	r16, 0x0E	; 14
    4f8e:	10 e0       	ldi	r17, 0x00	; 0
    4f90:	80 e0       	ldi	r24, 0x00	; 0
    4f92:	90 e0       	ldi	r25, 0x00	; 0
    4f94:	0f 2e       	mov	r0, r31
    4f96:	f4 ee       	ldi	r31, 0xE4	; 228
    4f98:	8f 2e       	mov	r8, r31
    4f9a:	99 24       	eor	r9, r9
    4f9c:	9a 94       	dec	r9
    4f9e:	f0 2d       	mov	r31, r0
    4fa0:	cc 24       	eor	r12, r12
    4fa2:	c3 94       	inc	r12
    4fa4:	d1 2c       	mov	r13, r1
    4fa6:	0f 2e       	mov	r0, r31
    4fa8:	f3 ef       	ldi	r31, 0xF3	; 243
    4faa:	ef 2e       	mov	r14, r31
    4fac:	ff 24       	eor	r15, r15
    4fae:	fa 94       	dec	r15
    4fb0:	f0 2d       	mov	r31, r0
    4fb2:	28 c0       	rjmp	.+80     	; 0x5004 <Print_Boards_Main+0x142>
    4fb4:	ff 20       	and	r15, r15
    4fb6:	3c f0       	brlt	.+14     	; 0x4fc6 <Print_Boards_Main+0x104>
    4fb8:	01 50       	subi	r16, 0x01	; 1
    4fba:	11 09       	sbc	r17, r1
    4fbc:	22 e0       	ldi	r18, 0x02	; 2
    4fbe:	82 0e       	add	r8, r18
    4fc0:	91 1c       	adc	r9, r1
    4fc2:	e8 0c       	add	r14, r8
    4fc4:	f9 1c       	adc	r15, r9
    4fc6:	5c 01       	movw	r10, r24
    4fc8:	2f ef       	ldi	r18, 0xFF	; 255
    4fca:	a2 1a       	sub	r10, r18
    4fcc:	b2 0a       	sbc	r11, r18
    4fce:	22 e0       	ldi	r18, 0x02	; 2
    4fd0:	c2 0e       	add	r12, r18
    4fd2:	d1 1c       	adc	r13, r1
    4fd4:	ec 0c       	add	r14, r12
    4fd6:	fd 1c       	adc	r15, r13
    4fd8:	cf e0       	ldi	r28, 0x0F	; 15
    4fda:	d0 e0       	ldi	r29, 0x00	; 0
    4fdc:	be 01       	movw	r22, r28
    4fde:	60 1b       	sub	r22, r16
    4fe0:	71 0b       	sbc	r23, r17
    4fe2:	4f ef       	ldi	r20, 0xFF	; 255
    4fe4:	5f ef       	ldi	r21, 0xFF	; 255
    4fe6:	8f 52       	subi	r24, 0x2F	; 47
    4fe8:	9e 4f       	sbci	r25, 0xFE	; 254
    4fea:	0e 94 6d 18 	call	0x30da	; 0x30da <ILI9486_drawPixel>
    4fee:	be 01       	movw	r22, r28
    4ff0:	6a 19       	sub	r22, r10
    4ff2:	7b 09       	sbc	r23, r11
    4ff4:	4f ef       	ldi	r20, 0xFF	; 255
    4ff6:	5f ef       	ldi	r21, 0xFF	; 255
    4ff8:	c8 01       	movw	r24, r16
    4ffa:	80 53       	subi	r24, 0x30	; 48
    4ffc:	9e 4f       	sbci	r25, 0xFE	; 254
    4ffe:	0e 94 6d 18 	call	0x30da	; 0x30da <ILI9486_drawPixel>
    5002:	c5 01       	movw	r24, r10
    5004:	80 17       	cp	r24, r16
    5006:	91 07       	cpc	r25, r17
    5008:	ac f2       	brlt	.-86     	; 0x4fb4 <Print_Boards_Main+0xf2>
    500a:	0f ef       	ldi	r16, 0xFF	; 255
    500c:	1f ef       	ldi	r17, 0xFF	; 255
    500e:	20 e3       	ldi	r18, 0x30	; 48
    5010:	31 e0       	ldi	r19, 0x01	; 1
    5012:	41 e0       	ldi	r20, 0x01	; 1
    5014:	50 e0       	ldi	r21, 0x00	; 0
    5016:	6f e0       	ldi	r22, 0x0F	; 15
    5018:	70 e0       	ldi	r23, 0x00	; 0
    501a:	81 e0       	ldi	r24, 0x01	; 1
    501c:	90 e0       	ldi	r25, 0x00	; 0
    501e:	0e 94 25 1a 	call	0x344a	; 0x344a <ILI9486_Draw_Line>
    5022:	0e e0       	ldi	r16, 0x0E	; 14
    5024:	10 e0       	ldi	r17, 0x00	; 0
    5026:	c0 e0       	ldi	r28, 0x00	; 0
    5028:	d0 e0       	ldi	r29, 0x00	; 0
    502a:	0f 2e       	mov	r0, r31
    502c:	f4 ee       	ldi	r31, 0xE4	; 228
    502e:	8f 2e       	mov	r8, r31
    5030:	99 24       	eor	r9, r9
    5032:	9a 94       	dec	r9
    5034:	f0 2d       	mov	r31, r0
    5036:	cc 24       	eor	r12, r12
    5038:	c3 94       	inc	r12
    503a:	d1 2c       	mov	r13, r1
    503c:	0f 2e       	mov	r0, r31
    503e:	f3 ef       	ldi	r31, 0xF3	; 243
    5040:	ef 2e       	mov	r14, r31
    5042:	ff 24       	eor	r15, r15
    5044:	fa 94       	dec	r15
    5046:	f0 2d       	mov	r31, r0
    5048:	2c c0       	rjmp	.+88     	; 0x50a2 <Print_Boards_Main+0x1e0>
    504a:	ff 20       	and	r15, r15
    504c:	3c f0       	brlt	.+14     	; 0x505c <Print_Boards_Main+0x19a>
    504e:	01 50       	subi	r16, 0x01	; 1
    5050:	11 09       	sbc	r17, r1
    5052:	82 e0       	ldi	r24, 0x02	; 2
    5054:	88 0e       	add	r8, r24
    5056:	91 1c       	adc	r9, r1
    5058:	e8 0c       	add	r14, r8
    505a:	f9 1c       	adc	r15, r9
    505c:	3e 01       	movw	r6, r28
    505e:	2f ef       	ldi	r18, 0xFF	; 255
    5060:	62 1a       	sub	r6, r18
    5062:	72 0a       	sbc	r7, r18
    5064:	82 e0       	ldi	r24, 0x02	; 2
    5066:	c8 0e       	add	r12, r24
    5068:	d1 1c       	adc	r13, r1
    506a:	ec 0c       	add	r14, r12
    506c:	fd 1c       	adc	r15, r13
    506e:	0f 2e       	mov	r0, r31
    5070:	ff e0       	ldi	r31, 0x0F	; 15
    5072:	af 2e       	mov	r10, r31
    5074:	b1 2c       	mov	r11, r1
    5076:	f0 2d       	mov	r31, r0
    5078:	4f ef       	ldi	r20, 0xFF	; 255
    507a:	5f ef       	ldi	r21, 0xFF	; 255
    507c:	b8 01       	movw	r22, r16
    507e:	60 5d       	subi	r22, 0xD0	; 208
    5080:	7e 4f       	sbci	r23, 0xFE	; 254
    5082:	c5 01       	movw	r24, r10
    5084:	86 19       	sub	r24, r6
    5086:	97 09       	sbc	r25, r7
    5088:	0e 94 6d 18 	call	0x30da	; 0x30da <ILI9486_drawPixel>
    508c:	be 01       	movw	r22, r28
    508e:	6f 5c       	subi	r22, 0xCF	; 207
    5090:	7e 4f       	sbci	r23, 0xFE	; 254
    5092:	4f ef       	ldi	r20, 0xFF	; 255
    5094:	5f ef       	ldi	r21, 0xFF	; 255
    5096:	c5 01       	movw	r24, r10
    5098:	80 1b       	sub	r24, r16
    509a:	91 0b       	sbc	r25, r17
    509c:	0e 94 6d 18 	call	0x30da	; 0x30da <ILI9486_drawPixel>
    50a0:	e3 01       	movw	r28, r6
    50a2:	c0 17       	cp	r28, r16
    50a4:	d1 07       	cpc	r29, r17
    50a6:	8c f2       	brlt	.-94     	; 0x504a <Print_Boards_Main+0x188>
    50a8:	0f ef       	ldi	r16, 0xFF	; 255
    50aa:	1f ef       	ldi	r17, 0xFF	; 255
    50ac:	2e e3       	ldi	r18, 0x3E	; 62
    50ae:	31 e0       	ldi	r19, 0x01	; 1
    50b0:	40 ed       	ldi	r20, 0xD0	; 208
    50b2:	51 e0       	ldi	r21, 0x01	; 1
    50b4:	6e e3       	ldi	r22, 0x3E	; 62
    50b6:	71 e0       	ldi	r23, 0x01	; 1
    50b8:	8f e0       	ldi	r24, 0x0F	; 15
    50ba:	90 e0       	ldi	r25, 0x00	; 0
    50bc:	0e 94 25 1a 	call	0x344a	; 0x344a <ILI9486_Draw_Line>
    50c0:	0e e0       	ldi	r16, 0x0E	; 14
    50c2:	10 e0       	ldi	r17, 0x00	; 0
    50c4:	c0 e0       	ldi	r28, 0x00	; 0
    50c6:	d0 e0       	ldi	r29, 0x00	; 0
    50c8:	0f 2e       	mov	r0, r31
    50ca:	f4 ee       	ldi	r31, 0xE4	; 228
    50cc:	8f 2e       	mov	r8, r31
    50ce:	99 24       	eor	r9, r9
    50d0:	9a 94       	dec	r9
    50d2:	f0 2d       	mov	r31, r0
    50d4:	cc 24       	eor	r12, r12
    50d6:	c3 94       	inc	r12
    50d8:	d1 2c       	mov	r13, r1
    50da:	0f 2e       	mov	r0, r31
    50dc:	f3 ef       	ldi	r31, 0xF3	; 243
    50de:	ef 2e       	mov	r14, r31
    50e0:	ff 24       	eor	r15, r15
    50e2:	fa 94       	dec	r15
    50e4:	f0 2d       	mov	r31, r0
    50e6:	27 c0       	rjmp	.+78     	; 0x5136 <Print_Boards_Main+0x274>
    50e8:	ff 20       	and	r15, r15
    50ea:	3c f0       	brlt	.+14     	; 0x50fa <Print_Boards_Main+0x238>
    50ec:	01 50       	subi	r16, 0x01	; 1
    50ee:	11 09       	sbc	r17, r1
    50f0:	22 e0       	ldi	r18, 0x02	; 2
    50f2:	82 0e       	add	r8, r18
    50f4:	91 1c       	adc	r9, r1
    50f6:	e8 0c       	add	r14, r8
    50f8:	f9 1c       	adc	r15, r9
    50fa:	5e 01       	movw	r10, r28
    50fc:	8f ef       	ldi	r24, 0xFF	; 255
    50fe:	a8 1a       	sub	r10, r24
    5100:	b8 0a       	sbc	r11, r24
    5102:	22 e0       	ldi	r18, 0x02	; 2
    5104:	c2 0e       	add	r12, r18
    5106:	d1 1c       	adc	r13, r1
    5108:	ec 0c       	add	r14, r12
    510a:	fd 1c       	adc	r15, r13
    510c:	4f ef       	ldi	r20, 0xFF	; 255
    510e:	5f ef       	ldi	r21, 0xFF	; 255
    5110:	b8 01       	movw	r22, r16
    5112:	60 5d       	subi	r22, 0xD0	; 208
    5114:	7e 4f       	sbci	r23, 0xFE	; 254
    5116:	ce 01       	movw	r24, r28
    5118:	8f 52       	subi	r24, 0x2F	; 47
    511a:	9e 4f       	sbci	r25, 0xFE	; 254
    511c:	0e 94 6d 18 	call	0x30da	; 0x30da <ILI9486_drawPixel>
    5120:	be 01       	movw	r22, r28
    5122:	6f 5c       	subi	r22, 0xCF	; 207
    5124:	7e 4f       	sbci	r23, 0xFE	; 254
    5126:	4f ef       	ldi	r20, 0xFF	; 255
    5128:	5f ef       	ldi	r21, 0xFF	; 255
    512a:	c8 01       	movw	r24, r16
    512c:	80 53       	subi	r24, 0x30	; 48
    512e:	9e 4f       	sbci	r25, 0xFE	; 254
    5130:	0e 94 6d 18 	call	0x30da	; 0x30da <ILI9486_drawPixel>
    5134:	e5 01       	movw	r28, r10
    5136:	c0 17       	cp	r28, r16
    5138:	d1 07       	cpc	r29, r17
    513a:	b4 f2       	brlt	.-84     	; 0x50e8 <Print_Boards_Main+0x226>
    513c:	0f ef       	ldi	r16, 0xFF	; 255
    513e:	1f ef       	ldi	r17, 0xFF	; 255
    5140:	2c ed       	ldi	r18, 0xDC	; 220
    5142:	30 e0       	ldi	r19, 0x00	; 0
    5144:	44 ea       	ldi	r20, 0xA4	; 164
    5146:	50 e0       	ldi	r21, 0x00	; 0
    5148:	6e e3       	ldi	r22, 0x3E	; 62
    514a:	71 e0       	ldi	r23, 0x01	; 1
    514c:	84 ea       	ldi	r24, 0xA4	; 164
    514e:	90 e0       	ldi	r25, 0x00	; 0
    5150:	0e 94 25 1a 	call	0x344a	; 0x344a <ILI9486_Draw_Line>
    5154:	21 ee       	ldi	r18, 0xE1	; 225
    5156:	30 e0       	ldi	r19, 0x00	; 0
    5158:	48 ea       	ldi	r20, 0xA8	; 168
    515a:	50 e0       	ldi	r21, 0x00	; 0
    515c:	6e e3       	ldi	r22, 0x3E	; 62
    515e:	71 e0       	ldi	r23, 0x01	; 1
    5160:	88 ea       	ldi	r24, 0xA8	; 168
    5162:	90 e0       	ldi	r25, 0x00	; 0
    5164:	0e 94 25 1a 	call	0x344a	; 0x344a <ILI9486_Draw_Line>
    5168:	2c ed       	ldi	r18, 0xDC	; 220
    516a:	30 e0       	ldi	r19, 0x00	; 0
    516c:	45 e5       	ldi	r20, 0x55	; 85
    516e:	51 e0       	ldi	r21, 0x01	; 1
    5170:	6c ed       	ldi	r22, 0xDC	; 220
    5172:	70 e0       	ldi	r23, 0x00	; 0
    5174:	8b e3       	ldi	r24, 0x3B	; 59
    5176:	91 e0       	ldi	r25, 0x01	; 1
    5178:	0e 94 25 1a 	call	0x344a	; 0x344a <ILI9486_Draw_Line>
    517c:	2c ed       	ldi	r18, 0xDC	; 220
    517e:	30 e0       	ldi	r19, 0x00	; 0
    5180:	4a e3       	ldi	r20, 0x3A	; 58
    5182:	51 e0       	ldi	r21, 0x01	; 1
    5184:	6e e3       	ldi	r22, 0x3E	; 62
    5186:	71 e0       	ldi	r23, 0x01	; 1
    5188:	8a e3       	ldi	r24, 0x3A	; 58
    518a:	91 e0       	ldi	r25, 0x01	; 1
    518c:	0e 94 25 1a 	call	0x344a	; 0x344a <ILI9486_Draw_Line>
    5190:	21 ee       	ldi	r18, 0xE1	; 225
    5192:	30 e0       	ldi	r19, 0x00	; 0
    5194:	46 e3       	ldi	r20, 0x36	; 54
    5196:	51 e0       	ldi	r21, 0x01	; 1
    5198:	6e e3       	ldi	r22, 0x3E	; 62
    519a:	71 e0       	ldi	r23, 0x01	; 1
    519c:	86 e3       	ldi	r24, 0x36	; 54
    519e:	91 e0       	ldi	r25, 0x01	; 1
    51a0:	0e 94 25 1a 	call	0x344a	; 0x344a <ILI9486_Draw_Line>
    51a4:	2c ed       	ldi	r18, 0xDC	; 220
    51a6:	30 e0       	ldi	r19, 0x00	; 0
    51a8:	4e ed       	ldi	r20, 0xDE	; 222
    51aa:	51 e0       	ldi	r21, 0x01	; 1
    51ac:	6c ed       	ldi	r22, 0xDC	; 220
    51ae:	70 e0       	ldi	r23, 0x00	; 0
    51b0:	85 ec       	ldi	r24, 0xC5	; 197
    51b2:	91 e0       	ldi	r25, 0x01	; 1
    51b4:	0e 94 25 1a 	call	0x344a	; 0x344a <ILI9486_Draw_Line>
    51b8:	26 ee       	ldi	r18, 0xE6	; 230
    51ba:	30 e0       	ldi	r19, 0x00	; 0
    51bc:	4b eb       	ldi	r20, 0xBB	; 187
    51be:	51 e0       	ldi	r21, 0x01	; 1
    51c0:	66 ee       	ldi	r22, 0xE6	; 230
    51c2:	70 e0       	ldi	r23, 0x00	; 0
    51c4:	80 e6       	ldi	r24, 0x60	; 96
    51c6:	91 e0       	ldi	r25, 0x01	; 1
    51c8:	0e 94 25 1a 	call	0x344a	; 0x344a <ILI9486_Draw_Line>
    51cc:	2e ec       	ldi	r18, 0xCE	; 206
    51ce:	30 e0       	ldi	r19, 0x00	; 0
    51d0:	4b eb       	ldi	r20, 0xBB	; 187
    51d2:	51 e0       	ldi	r21, 0x01	; 1
    51d4:	6e ec       	ldi	r22, 0xCE	; 206
    51d6:	70 e0       	ldi	r23, 0x00	; 0
    51d8:	80 e6       	ldi	r24, 0x60	; 96
    51da:	91 e0       	ldi	r25, 0x01	; 1
    51dc:	0e 94 25 1a 	call	0x344a	; 0x344a <ILI9486_Draw_Line>
    51e0:	4f ef       	ldi	r20, 0xFF	; 255
    51e2:	5f ef       	ldi	r21, 0xFF	; 255
    51e4:	6a ed       	ldi	r22, 0xDA	; 218
    51e6:	70 e0       	ldi	r23, 0x00	; 0
    51e8:	86 e5       	ldi	r24, 0x56	; 86
    51ea:	91 e0       	ldi	r25, 0x01	; 1
    51ec:	0e 94 6d 18 	call	0x30da	; 0x30da <ILI9486_drawPixel>
    51f0:	0c e0       	ldi	r16, 0x0C	; 12
    51f2:	10 e0       	ldi	r17, 0x00	; 0
    51f4:	c0 e0       	ldi	r28, 0x00	; 0
    51f6:	d0 e0       	ldi	r29, 0x00	; 0
    51f8:	0f 2e       	mov	r0, r31
    51fa:	f8 ee       	ldi	r31, 0xE8	; 232
    51fc:	8f 2e       	mov	r8, r31
    51fe:	99 24       	eor	r9, r9
    5200:	9a 94       	dec	r9
    5202:	f0 2d       	mov	r31, r0
    5204:	aa 24       	eor	r10, r10
    5206:	a3 94       	inc	r10
    5208:	b1 2c       	mov	r11, r1
    520a:	0f 2e       	mov	r0, r31
    520c:	f5 ef       	ldi	r31, 0xF5	; 245
    520e:	ef 2e       	mov	r14, r31
    5210:	ff 24       	eor	r15, r15
    5212:	fa 94       	dec	r15
    5214:	f0 2d       	mov	r31, r0
    5216:	43 c0       	rjmp	.+134    	; 0x529e <Print_Boards_Main+0x3dc>
    5218:	ff 20       	and	r15, r15
    521a:	3c f0       	brlt	.+14     	; 0x522a <Print_Boards_Main+0x368>
    521c:	01 50       	subi	r16, 0x01	; 1
    521e:	11 09       	sbc	r17, r1
    5220:	82 e0       	ldi	r24, 0x02	; 2
    5222:	88 0e       	add	r8, r24
    5224:	91 1c       	adc	r9, r1
    5226:	e8 0c       	add	r14, r8
    5228:	f9 1c       	adc	r15, r9
    522a:	6e 01       	movw	r12, r28
    522c:	2f ef       	ldi	r18, 0xFF	; 255
    522e:	c2 1a       	sub	r12, r18
    5230:	d2 0a       	sbc	r13, r18
    5232:	82 e0       	ldi	r24, 0x02	; 2
    5234:	a8 0e       	add	r10, r24
    5236:	b1 1c       	adc	r11, r1
    5238:	ea 0c       	add	r14, r10
    523a:	fb 1c       	adc	r15, r11
    523c:	0f 2e       	mov	r0, r31
    523e:	f2 e6       	ldi	r31, 0x62	; 98
    5240:	4f 2e       	mov	r4, r31
    5242:	55 24       	eor	r5, r5
    5244:	53 94       	inc	r5
    5246:	f0 2d       	mov	r31, r0
    5248:	32 01       	movw	r6, r4
    524a:	6c 18       	sub	r6, r12
    524c:	7d 08       	sbc	r7, r13
    524e:	4f ef       	ldi	r20, 0xFF	; 255
    5250:	5f ef       	ldi	r21, 0xFF	; 255
    5252:	b8 01       	movw	r22, r16
    5254:	66 52       	subi	r22, 0x26	; 38
    5256:	7f 4f       	sbci	r23, 0xFF	; 255
    5258:	c3 01       	movw	r24, r6
    525a:	0e 94 6d 18 	call	0x30da	; 0x30da <ILI9486_drawPixel>
    525e:	0f 2e       	mov	r0, r31
    5260:	fa ed       	ldi	r31, 0xDA	; 218
    5262:	2f 2e       	mov	r2, r31
    5264:	31 2c       	mov	r3, r1
    5266:	f0 2d       	mov	r31, r0
    5268:	b1 01       	movw	r22, r2
    526a:	60 1b       	sub	r22, r16
    526c:	71 0b       	sbc	r23, r17
    526e:	4f ef       	ldi	r20, 0xFF	; 255
    5270:	5f ef       	ldi	r21, 0xFF	; 255
    5272:	c3 01       	movw	r24, r6
    5274:	0e 94 6d 18 	call	0x30da	; 0x30da <ILI9486_drawPixel>
    5278:	be 01       	movw	r22, r28
    527a:	65 52       	subi	r22, 0x25	; 37
    527c:	7f 4f       	sbci	r23, 0xFF	; 255
    527e:	40 1a       	sub	r4, r16
    5280:	51 0a       	sbc	r5, r17
    5282:	4f ef       	ldi	r20, 0xFF	; 255
    5284:	5f ef       	ldi	r21, 0xFF	; 255
    5286:	c2 01       	movw	r24, r4
    5288:	0e 94 6d 18 	call	0x30da	; 0x30da <ILI9486_drawPixel>
    528c:	b1 01       	movw	r22, r2
    528e:	6c 19       	sub	r22, r12
    5290:	7d 09       	sbc	r23, r13
    5292:	4f ef       	ldi	r20, 0xFF	; 255
    5294:	5f ef       	ldi	r21, 0xFF	; 255
    5296:	c2 01       	movw	r24, r4
    5298:	0e 94 6d 18 	call	0x30da	; 0x30da <ILI9486_drawPixel>
    529c:	e6 01       	movw	r28, r12
    529e:	c0 17       	cp	r28, r16
    52a0:	d1 07       	cpc	r29, r17
    52a2:	0c f4       	brge	.+2      	; 0x52a6 <Print_Boards_Main+0x3e4>
    52a4:	b9 cf       	rjmp	.-142    	; 0x5218 <Print_Boards_Main+0x356>
    52a6:	4f ef       	ldi	r20, 0xFF	; 255
    52a8:	5f ef       	ldi	r21, 0xFF	; 255
    52aa:	6a ed       	ldi	r22, 0xDA	; 218
    52ac:	70 e0       	ldi	r23, 0x00	; 0
    52ae:	85 ec       	ldi	r24, 0xC5	; 197
    52b0:	91 e0       	ldi	r25, 0x01	; 1
    52b2:	0e 94 6d 18 	call	0x30da	; 0x30da <ILI9486_drawPixel>
    52b6:	0c e0       	ldi	r16, 0x0C	; 12
    52b8:	10 e0       	ldi	r17, 0x00	; 0
    52ba:	c0 e0       	ldi	r28, 0x00	; 0
    52bc:	d0 e0       	ldi	r29, 0x00	; 0
    52be:	0f 2e       	mov	r0, r31
    52c0:	f8 ee       	ldi	r31, 0xE8	; 232
    52c2:	8f 2e       	mov	r8, r31
    52c4:	99 24       	eor	r9, r9
    52c6:	9a 94       	dec	r9
    52c8:	f0 2d       	mov	r31, r0
    52ca:	cc 24       	eor	r12, r12
    52cc:	c3 94       	inc	r12
    52ce:	d1 2c       	mov	r13, r1
    52d0:	0f 2e       	mov	r0, r31
    52d2:	f5 ef       	ldi	r31, 0xF5	; 245
    52d4:	ef 2e       	mov	r14, r31
    52d6:	ff 24       	eor	r15, r15
    52d8:	fa 94       	dec	r15
    52da:	f0 2d       	mov	r31, r0
    52dc:	40 c0       	rjmp	.+128    	; 0x535e <Print_Boards_Main+0x49c>
    52de:	ff 20       	and	r15, r15
    52e0:	3c f0       	brlt	.+14     	; 0x52f0 <Print_Boards_Main+0x42e>
    52e2:	01 50       	subi	r16, 0x01	; 1
    52e4:	11 09       	sbc	r17, r1
    52e6:	22 e0       	ldi	r18, 0x02	; 2
    52e8:	82 0e       	add	r8, r18
    52ea:	91 1c       	adc	r9, r1
    52ec:	e8 0c       	add	r14, r8
    52ee:	f9 1c       	adc	r15, r9
    52f0:	2e 01       	movw	r4, r28
    52f2:	8f ef       	ldi	r24, 0xFF	; 255
    52f4:	48 1a       	sub	r4, r24
    52f6:	58 0a       	sbc	r5, r24
    52f8:	22 e0       	ldi	r18, 0x02	; 2
    52fa:	c2 0e       	add	r12, r18
    52fc:	d1 1c       	adc	r13, r1
    52fe:	ec 0c       	add	r14, r12
    5300:	fd 1c       	adc	r15, r13
    5302:	5e 01       	movw	r10, r28
    5304:	86 e4       	ldi	r24, 0x46	; 70
    5306:	a8 1a       	sub	r10, r24
    5308:	8e ef       	ldi	r24, 0xFE	; 254
    530a:	b8 0a       	sbc	r11, r24
    530c:	4f ef       	ldi	r20, 0xFF	; 255
    530e:	5f ef       	ldi	r21, 0xFF	; 255
    5310:	b8 01       	movw	r22, r16
    5312:	66 52       	subi	r22, 0x26	; 38
    5314:	7f 4f       	sbci	r23, 0xFF	; 255
    5316:	c5 01       	movw	r24, r10
    5318:	0e 94 6d 18 	call	0x30da	; 0x30da <ILI9486_drawPixel>
    531c:	0f 2e       	mov	r0, r31
    531e:	fa ed       	ldi	r31, 0xDA	; 218
    5320:	6f 2e       	mov	r6, r31
    5322:	71 2c       	mov	r7, r1
    5324:	f0 2d       	mov	r31, r0
    5326:	b3 01       	movw	r22, r6
    5328:	60 1b       	sub	r22, r16
    532a:	71 0b       	sbc	r23, r17
    532c:	4f ef       	ldi	r20, 0xFF	; 255
    532e:	5f ef       	ldi	r21, 0xFF	; 255
    5330:	c5 01       	movw	r24, r10
    5332:	0e 94 6d 18 	call	0x30da	; 0x30da <ILI9486_drawPixel>
    5336:	be 01       	movw	r22, r28
    5338:	65 52       	subi	r22, 0x25	; 37
    533a:	7f 4f       	sbci	r23, 0xFF	; 255
    533c:	4f ef       	ldi	r20, 0xFF	; 255
    533e:	5f ef       	ldi	r21, 0xFF	; 255
    5340:	e8 01       	movw	r28, r16
    5342:	c7 54       	subi	r28, 0x47	; 71
    5344:	de 4f       	sbci	r29, 0xFE	; 254
    5346:	ce 01       	movw	r24, r28
    5348:	0e 94 6d 18 	call	0x30da	; 0x30da <ILI9486_drawPixel>
    534c:	b3 01       	movw	r22, r6
    534e:	64 19       	sub	r22, r4
    5350:	75 09       	sbc	r23, r5
    5352:	4f ef       	ldi	r20, 0xFF	; 255
    5354:	5f ef       	ldi	r21, 0xFF	; 255
    5356:	ce 01       	movw	r24, r28
    5358:	0e 94 6d 18 	call	0x30da	; 0x30da <ILI9486_drawPixel>
    535c:	e2 01       	movw	r28, r4
    535e:	c0 17       	cp	r28, r16
    5360:	d1 07       	cpc	r29, r17
    5362:	0c f4       	brge	.+2      	; 0x5366 <Print_Boards_Main+0x4a4>
    5364:	bc cf       	rjmp	.-136    	; 0x52de <Print_Boards_Main+0x41c>
    5366:	60 e0       	ldi	r22, 0x00	; 0
    5368:	70 e0       	ldi	r23, 0x00	; 0
    536a:	80 ee       	ldi	r24, 0xE0	; 224
    536c:	9f ef       	ldi	r25, 0xFF	; 255
    536e:	0e 94 d0 1d 	call	0x3ba0	; 0x3ba0 <ILI9486_SetTextColor>
    5372:	60 ed       	ldi	r22, 0xD0	; 208
    5374:	70 e0       	ldi	r23, 0x00	; 0
    5376:	8d e5       	ldi	r24, 0x5D	; 93
    5378:	91 e0       	ldi	r25, 0x01	; 1
    537a:	0e 94 dd 1f 	call	0x3fba	; 0x3fba <ILI9486_SetCursor>
    537e:	61 e0       	ldi	r22, 0x01	; 1
    5380:	83 ee       	ldi	r24, 0xE3	; 227
    5382:	90 e0       	ldi	r25, 0x00	; 0
    5384:	0e 94 ca 20 	call	0x4194	; 0x4194 <ILI9486_Print_String14x24>
    5388:	60 e0       	ldi	r22, 0x00	; 0
    538a:	70 e0       	ldi	r23, 0x00	; 0
    538c:	82 ea       	ldi	r24, 0xA2	; 162
    538e:	9b ef       	ldi	r25, 0xFB	; 251
    5390:	0e 94 d0 1d 	call	0x3ba0	; 0x3ba0 <ILI9486_SetTextColor>
    5394:	60 ed       	ldi	r22, 0xD0	; 208
    5396:	70 e0       	ldi	r23, 0x00	; 0
    5398:	88 e2       	ldi	r24, 0x28	; 40
    539a:	90 e0       	ldi	r25, 0x00	; 0
    539c:	0e 94 dd 1f 	call	0x3fba	; 0x3fba <ILI9486_SetCursor>
    53a0:	61 e0       	ldi	r22, 0x01	; 1
    53a2:	8b ee       	ldi	r24, 0xEB	; 235
    53a4:	90 e0       	ldi	r25, 0x00	; 0
    53a6:	0e 94 ca 20 	call	0x4194	; 0x4194 <ILI9486_Print_String14x24>
    53aa:	0f ef       	ldi	r16, 0xFF	; 255
    53ac:	1f ef       	ldi	r17, 0xFF	; 255
    53ae:	26 ee       	ldi	r18, 0xE6	; 230
    53b0:	30 e0       	ldi	r19, 0x00	; 0
    53b2:	4f e7       	ldi	r20, 0x7F	; 127
    53b4:	50 e0       	ldi	r21, 0x00	; 0
    53b6:	66 ee       	ldi	r22, 0xE6	; 230
    53b8:	70 e0       	ldi	r23, 0x00	; 0
    53ba:	84 e2       	ldi	r24, 0x24	; 36
    53bc:	90 e0       	ldi	r25, 0x00	; 0
    53be:	0e 94 25 1a 	call	0x344a	; 0x344a <ILI9486_Draw_Line>
    53c2:	2e ec       	ldi	r18, 0xCE	; 206
    53c4:	30 e0       	ldi	r19, 0x00	; 0
    53c6:	4f e7       	ldi	r20, 0x7F	; 127
    53c8:	50 e0       	ldi	r21, 0x00	; 0
    53ca:	6e ec       	ldi	r22, 0xCE	; 206
    53cc:	70 e0       	ldi	r23, 0x00	; 0
    53ce:	84 e2       	ldi	r24, 0x24	; 36
    53d0:	90 e0       	ldi	r25, 0x00	; 0
    53d2:	0e 94 25 1a 	call	0x344a	; 0x344a <ILI9486_Draw_Line>
    53d6:	4f ef       	ldi	r20, 0xFF	; 255
    53d8:	5f ef       	ldi	r21, 0xFF	; 255
    53da:	6a ed       	ldi	r22, 0xDA	; 218
    53dc:	70 e0       	ldi	r23, 0x00	; 0
    53de:	8a e1       	ldi	r24, 0x1A	; 26
    53e0:	90 e0       	ldi	r25, 0x00	; 0
    53e2:	0e 94 6d 18 	call	0x30da	; 0x30da <ILI9486_drawPixel>
    53e6:	0c e0       	ldi	r16, 0x0C	; 12
    53e8:	10 e0       	ldi	r17, 0x00	; 0
    53ea:	c0 e0       	ldi	r28, 0x00	; 0
    53ec:	d0 e0       	ldi	r29, 0x00	; 0
    53ee:	0f 2e       	mov	r0, r31
    53f0:	f8 ee       	ldi	r31, 0xE8	; 232
    53f2:	8f 2e       	mov	r8, r31
    53f4:	99 24       	eor	r9, r9
    53f6:	9a 94       	dec	r9
    53f8:	f0 2d       	mov	r31, r0
    53fa:	aa 24       	eor	r10, r10
    53fc:	a3 94       	inc	r10
    53fe:	b1 2c       	mov	r11, r1
    5400:	0f 2e       	mov	r0, r31
    5402:	f5 ef       	ldi	r31, 0xF5	; 245
    5404:	ef 2e       	mov	r14, r31
    5406:	ff 24       	eor	r15, r15
    5408:	fa 94       	dec	r15
    540a:	f0 2d       	mov	r31, r0
    540c:	42 c0       	rjmp	.+132    	; 0x5492 <Print_Boards_Main+0x5d0>
    540e:	ff 20       	and	r15, r15
    5410:	3c f0       	brlt	.+14     	; 0x5420 <Print_Boards_Main+0x55e>
    5412:	01 50       	subi	r16, 0x01	; 1
    5414:	11 09       	sbc	r17, r1
    5416:	22 e0       	ldi	r18, 0x02	; 2
    5418:	82 0e       	add	r8, r18
    541a:	91 1c       	adc	r9, r1
    541c:	e8 0c       	add	r14, r8
    541e:	f9 1c       	adc	r15, r9
    5420:	6e 01       	movw	r12, r28
    5422:	8f ef       	ldi	r24, 0xFF	; 255
    5424:	c8 1a       	sub	r12, r24
    5426:	d8 0a       	sbc	r13, r24
    5428:	22 e0       	ldi	r18, 0x02	; 2
    542a:	a2 0e       	add	r10, r18
    542c:	b1 1c       	adc	r11, r1
    542e:	ea 0c       	add	r14, r10
    5430:	fb 1c       	adc	r15, r11
    5432:	0f 2e       	mov	r0, r31
    5434:	f6 e2       	ldi	r31, 0x26	; 38
    5436:	4f 2e       	mov	r4, r31
    5438:	51 2c       	mov	r5, r1
    543a:	f0 2d       	mov	r31, r0
    543c:	32 01       	movw	r6, r4
    543e:	6c 18       	sub	r6, r12
    5440:	7d 08       	sbc	r7, r13
    5442:	4f ef       	ldi	r20, 0xFF	; 255
    5444:	5f ef       	ldi	r21, 0xFF	; 255
    5446:	b8 01       	movw	r22, r16
    5448:	66 52       	subi	r22, 0x26	; 38
    544a:	7f 4f       	sbci	r23, 0xFF	; 255
    544c:	c3 01       	movw	r24, r6
    544e:	0e 94 6d 18 	call	0x30da	; 0x30da <ILI9486_drawPixel>
    5452:	0f 2e       	mov	r0, r31
    5454:	fa ed       	ldi	r31, 0xDA	; 218
    5456:	2f 2e       	mov	r2, r31
    5458:	31 2c       	mov	r3, r1
    545a:	f0 2d       	mov	r31, r0
    545c:	b1 01       	movw	r22, r2
    545e:	60 1b       	sub	r22, r16
    5460:	71 0b       	sbc	r23, r17
    5462:	4f ef       	ldi	r20, 0xFF	; 255
    5464:	5f ef       	ldi	r21, 0xFF	; 255
    5466:	c3 01       	movw	r24, r6
    5468:	0e 94 6d 18 	call	0x30da	; 0x30da <ILI9486_drawPixel>
    546c:	be 01       	movw	r22, r28
    546e:	65 52       	subi	r22, 0x25	; 37
    5470:	7f 4f       	sbci	r23, 0xFF	; 255
    5472:	40 1a       	sub	r4, r16
    5474:	51 0a       	sbc	r5, r17
    5476:	4f ef       	ldi	r20, 0xFF	; 255
    5478:	5f ef       	ldi	r21, 0xFF	; 255
    547a:	c2 01       	movw	r24, r4
    547c:	0e 94 6d 18 	call	0x30da	; 0x30da <ILI9486_drawPixel>
    5480:	b1 01       	movw	r22, r2
    5482:	6c 19       	sub	r22, r12
    5484:	7d 09       	sbc	r23, r13
    5486:	4f ef       	ldi	r20, 0xFF	; 255
    5488:	5f ef       	ldi	r21, 0xFF	; 255
    548a:	c2 01       	movw	r24, r4
    548c:	0e 94 6d 18 	call	0x30da	; 0x30da <ILI9486_drawPixel>
    5490:	e6 01       	movw	r28, r12
    5492:	c0 17       	cp	r28, r16
    5494:	d1 07       	cpc	r29, r17
    5496:	0c f4       	brge	.+2      	; 0x549a <Print_Boards_Main+0x5d8>
    5498:	ba cf       	rjmp	.-140    	; 0x540e <Print_Boards_Main+0x54c>
    549a:	4f ef       	ldi	r20, 0xFF	; 255
    549c:	5f ef       	ldi	r21, 0xFF	; 255
    549e:	6a ed       	ldi	r22, 0xDA	; 218
    54a0:	70 e0       	ldi	r23, 0x00	; 0
    54a2:	89 e8       	ldi	r24, 0x89	; 137
    54a4:	90 e0       	ldi	r25, 0x00	; 0
    54a6:	0e 94 6d 18 	call	0x30da	; 0x30da <ILI9486_drawPixel>
    54aa:	0c e0       	ldi	r16, 0x0C	; 12
    54ac:	10 e0       	ldi	r17, 0x00	; 0
    54ae:	c0 e0       	ldi	r28, 0x00	; 0
    54b0:	d0 e0       	ldi	r29, 0x00	; 0
    54b2:	0f 2e       	mov	r0, r31
    54b4:	f8 ee       	ldi	r31, 0xE8	; 232
    54b6:	8f 2e       	mov	r8, r31
    54b8:	99 24       	eor	r9, r9
    54ba:	9a 94       	dec	r9
    54bc:	f0 2d       	mov	r31, r0
    54be:	cc 24       	eor	r12, r12
    54c0:	c3 94       	inc	r12
    54c2:	d1 2c       	mov	r13, r1
    54c4:	0f 2e       	mov	r0, r31
    54c6:	f5 ef       	ldi	r31, 0xF5	; 245
    54c8:	ef 2e       	mov	r14, r31
    54ca:	ff 24       	eor	r15, r15
    54cc:	fa 94       	dec	r15
    54ce:	f0 2d       	mov	r31, r0
    54d0:	3f c0       	rjmp	.+126    	; 0x5550 <Print_Boards_Main+0x68e>
    54d2:	ff 20       	and	r15, r15
    54d4:	3c f0       	brlt	.+14     	; 0x54e4 <Print_Boards_Main+0x622>
    54d6:	01 50       	subi	r16, 0x01	; 1
    54d8:	11 09       	sbc	r17, r1
    54da:	82 e0       	ldi	r24, 0x02	; 2
    54dc:	88 0e       	add	r8, r24
    54de:	91 1c       	adc	r9, r1
    54e0:	e8 0c       	add	r14, r8
    54e2:	f9 1c       	adc	r15, r9
    54e4:	2e 01       	movw	r4, r28
    54e6:	2f ef       	ldi	r18, 0xFF	; 255
    54e8:	42 1a       	sub	r4, r18
    54ea:	52 0a       	sbc	r5, r18
    54ec:	82 e0       	ldi	r24, 0x02	; 2
    54ee:	c8 0e       	add	r12, r24
    54f0:	d1 1c       	adc	r13, r1
    54f2:	ec 0c       	add	r14, r12
    54f4:	fd 1c       	adc	r15, r13
    54f6:	5e 01       	movw	r10, r28
    54f8:	2e e7       	ldi	r18, 0x7E	; 126
    54fa:	a2 0e       	add	r10, r18
    54fc:	b1 1c       	adc	r11, r1
    54fe:	4f ef       	ldi	r20, 0xFF	; 255
    5500:	5f ef       	ldi	r21, 0xFF	; 255
    5502:	b8 01       	movw	r22, r16
    5504:	66 52       	subi	r22, 0x26	; 38
    5506:	7f 4f       	sbci	r23, 0xFF	; 255
    5508:	c5 01       	movw	r24, r10
    550a:	0e 94 6d 18 	call	0x30da	; 0x30da <ILI9486_drawPixel>
    550e:	0f 2e       	mov	r0, r31
    5510:	fa ed       	ldi	r31, 0xDA	; 218
    5512:	6f 2e       	mov	r6, r31
    5514:	71 2c       	mov	r7, r1
    5516:	f0 2d       	mov	r31, r0
    5518:	b3 01       	movw	r22, r6
    551a:	60 1b       	sub	r22, r16
    551c:	71 0b       	sbc	r23, r17
    551e:	4f ef       	ldi	r20, 0xFF	; 255
    5520:	5f ef       	ldi	r21, 0xFF	; 255
    5522:	c5 01       	movw	r24, r10
    5524:	0e 94 6d 18 	call	0x30da	; 0x30da <ILI9486_drawPixel>
    5528:	be 01       	movw	r22, r28
    552a:	65 52       	subi	r22, 0x25	; 37
    552c:	7f 4f       	sbci	r23, 0xFF	; 255
    552e:	4f ef       	ldi	r20, 0xFF	; 255
    5530:	5f ef       	ldi	r21, 0xFF	; 255
    5532:	e8 01       	movw	r28, r16
    5534:	c3 58       	subi	r28, 0x83	; 131
    5536:	df 4f       	sbci	r29, 0xFF	; 255
    5538:	ce 01       	movw	r24, r28
    553a:	0e 94 6d 18 	call	0x30da	; 0x30da <ILI9486_drawPixel>
    553e:	b3 01       	movw	r22, r6
    5540:	64 19       	sub	r22, r4
    5542:	75 09       	sbc	r23, r5
    5544:	4f ef       	ldi	r20, 0xFF	; 255
    5546:	5f ef       	ldi	r21, 0xFF	; 255
    5548:	ce 01       	movw	r24, r28
    554a:	0e 94 6d 18 	call	0x30da	; 0x30da <ILI9486_drawPixel>
    554e:	e2 01       	movw	r28, r4
    5550:	c0 17       	cp	r28, r16
    5552:	d1 07       	cpc	r29, r17
    5554:	0c f4       	brge	.+2      	; 0x5558 <Print_Boards_Main+0x696>
    5556:	bd cf       	rjmp	.-134    	; 0x54d2 <Print_Boards_Main+0x610>
    5558:	0f ef       	ldi	r16, 0xFF	; 255
    555a:	1f ef       	ldi	r17, 0xFF	; 255
    555c:	2c ed       	ldi	r18, 0xDC	; 220
    555e:	30 e0       	ldi	r19, 0x00	; 0
    5560:	49 e1       	ldi	r20, 0x19	; 25
    5562:	50 e0       	ldi	r21, 0x00	; 0
    5564:	6c ed       	ldi	r22, 0xDC	; 220
    5566:	70 e0       	ldi	r23, 0x00	; 0
    5568:	81 e0       	ldi	r24, 0x01	; 1
    556a:	90 e0       	ldi	r25, 0x00	; 0
    556c:	0e 94 25 1a 	call	0x344a	; 0x344a <ILI9486_Draw_Line>
    5570:	2c ed       	ldi	r18, 0xDC	; 220
    5572:	30 e0       	ldi	r19, 0x00	; 0
    5574:	43 ea       	ldi	r20, 0xA3	; 163
    5576:	50 e0       	ldi	r21, 0x00	; 0
    5578:	6c ed       	ldi	r22, 0xDC	; 220
    557a:	70 e0       	ldi	r23, 0x00	; 0
    557c:	89 e8       	ldi	r24, 0x89	; 137
    557e:	90 e0       	ldi	r25, 0x00	; 0
    5580:	0e 94 25 1a 	call	0x344a	; 0x344a <ILI9486_Draw_Line>
    5584:	28 ed       	ldi	r18, 0xD8	; 216
    5586:	30 e0       	ldi	r19, 0x00	; 0
    5588:	45 e5       	ldi	r20, 0x55	; 85
    558a:	51 e0       	ldi	r21, 0x01	; 1
    558c:	68 ed       	ldi	r22, 0xD8	; 216
    558e:	70 e0       	ldi	r23, 0x00	; 0
    5590:	89 e8       	ldi	r24, 0x89	; 137
    5592:	90 e0       	ldi	r25, 0x00	; 0
    5594:	0e 94 25 1a 	call	0x344a	; 0x344a <ILI9486_Draw_Line>
    5598:	28 ed       	ldi	r18, 0xD8	; 216
    559a:	30 e0       	ldi	r19, 0x00	; 0
    559c:	4a e1       	ldi	r20, 0x1A	; 26
    559e:	50 e0       	ldi	r21, 0x00	; 0
    55a0:	68 ed       	ldi	r22, 0xD8	; 216
    55a2:	70 e0       	ldi	r23, 0x00	; 0
    55a4:	81 e0       	ldi	r24, 0x01	; 1
    55a6:	90 e0       	ldi	r25, 0x00	; 0
    55a8:	0e 94 25 1a 	call	0x344a	; 0x344a <ILI9486_Draw_Line>
    55ac:	28 ed       	ldi	r18, 0xD8	; 216
    55ae:	30 e0       	ldi	r19, 0x00	; 0
    55b0:	4e ed       	ldi	r20, 0xDE	; 222
    55b2:	51 e0       	ldi	r21, 0x01	; 1
    55b4:	68 ed       	ldi	r22, 0xD8	; 216
    55b6:	70 e0       	ldi	r23, 0x00	; 0
    55b8:	85 ec       	ldi	r24, 0xC5	; 197
    55ba:	91 e0       	ldi	r25, 0x01	; 1
    55bc:	0e 94 25 1a 	call	0x344a	; 0x344a <ILI9486_Draw_Line>
    55c0:	28 e7       	ldi	r18, 0x78	; 120
    55c2:	30 e0       	ldi	r19, 0x00	; 0
    55c4:	4e ed       	ldi	r20, 0xDE	; 222
    55c6:	51 e0       	ldi	r21, 0x01	; 1
    55c8:	68 e7       	ldi	r22, 0x78	; 120
    55ca:	70 e0       	ldi	r23, 0x00	; 0
    55cc:	81 e0       	ldi	r24, 0x01	; 1
    55ce:	90 e0       	ldi	r25, 0x00	; 0
    55d0:	0e 94 25 1a 	call	0x344a	; 0x344a <ILI9486_Draw_Line>
    55d4:	2c e7       	ldi	r18, 0x7C	; 124
    55d6:	30 e0       	ldi	r19, 0x00	; 0
    55d8:	45 e9       	ldi	r20, 0x95	; 149
    55da:	50 e0       	ldi	r21, 0x00	; 0
    55dc:	6c e7       	ldi	r22, 0x7C	; 124
    55de:	70 e0       	ldi	r23, 0x00	; 0
    55e0:	81 e0       	ldi	r24, 0x01	; 1
    55e2:	90 e0       	ldi	r25, 0x00	; 0
    55e4:	0e 94 25 1a 	call	0x344a	; 0x344a <ILI9486_Draw_Line>
    55e8:	2c e7       	ldi	r18, 0x7C	; 124
    55ea:	30 e0       	ldi	r19, 0x00	; 0
    55ec:	4e ed       	ldi	r20, 0xDE	; 222
    55ee:	51 e0       	ldi	r21, 0x01	; 1
    55f0:	6c e7       	ldi	r22, 0x7C	; 124
    55f2:	70 e0       	ldi	r23, 0x00	; 0
    55f4:	8a e4       	ldi	r24, 0x4A	; 74
    55f6:	91 e0       	ldi	r25, 0x01	; 1
    55f8:	0e 94 25 1a 	call	0x344a	; 0x344a <ILI9486_Draw_Line>
    55fc:	24 e6       	ldi	r18, 0x64	; 100
    55fe:	30 e0       	ldi	r19, 0x00	; 0
    5600:	41 ea       	ldi	r20, 0xA1	; 161
    5602:	50 e0       	ldi	r21, 0x00	; 0
    5604:	61 e0       	ldi	r22, 0x01	; 1
    5606:	70 e0       	ldi	r23, 0x00	; 0
    5608:	81 e9       	ldi	r24, 0x91	; 145
    560a:	90 e0       	ldi	r25, 0x00	; 0
    560c:	0e 94 25 1a 	call	0x344a	; 0x344a <ILI9486_Draw_Line>
    5610:	24 e6       	ldi	r18, 0x64	; 100
    5612:	30 e0       	ldi	r19, 0x00	; 0
    5614:	4c e3       	ldi	r20, 0x3C	; 60
    5616:	51 e0       	ldi	r21, 0x01	; 1
    5618:	61 e0       	ldi	r22, 0x01	; 1
    561a:	70 e0       	ldi	r23, 0x00	; 0
    561c:	8c e4       	ldi	r24, 0x4C	; 76
    561e:	91 e0       	ldi	r25, 0x01	; 1
    5620:	0e 94 25 1a 	call	0x344a	; 0x344a <ILI9486_Draw_Line>
    5624:	20 e6       	ldi	r18, 0x60	; 96
    5626:	30 e0       	ldi	r19, 0x00	; 0
    5628:	45 ea       	ldi	r20, 0xA5	; 165
    562a:	50 e0       	ldi	r21, 0x00	; 0
    562c:	61 e0       	ldi	r22, 0x01	; 1
    562e:	70 e0       	ldi	r23, 0x00	; 0
    5630:	85 e9       	ldi	r24, 0x95	; 149
    5632:	90 e0       	ldi	r25, 0x00	; 0
    5634:	0e 94 25 1a 	call	0x344a	; 0x344a <ILI9486_Draw_Line>
    5638:	20 e6       	ldi	r18, 0x60	; 96
    563a:	30 e0       	ldi	r19, 0x00	; 0
    563c:	48 e3       	ldi	r20, 0x38	; 56
    563e:	51 e0       	ldi	r21, 0x01	; 1
    5640:	61 e0       	ldi	r22, 0x01	; 1
    5642:	70 e0       	ldi	r23, 0x00	; 0
    5644:	88 e4       	ldi	r24, 0x48	; 72
    5646:	91 e0       	ldi	r25, 0x01	; 1
    5648:	0e 94 25 1a 	call	0x344a	; 0x344a <ILI9486_Draw_Line>
    564c:	2f ef       	ldi	r18, 0xFF	; 255
    564e:	3f ef       	ldi	r19, 0xFF	; 255
    5650:	41 e6       	ldi	r20, 0x61	; 97
    5652:	50 e0       	ldi	r21, 0x00	; 0
    5654:	6f e9       	ldi	r22, 0x9F	; 159
    5656:	70 e0       	ldi	r23, 0x00	; 0
    5658:	8f ee       	ldi	r24, 0xEF	; 239
    565a:	90 e0       	ldi	r25, 0x00	; 0
    565c:	0e 94 53 1a 	call	0x34a6	; 0x34a6 <ILI9486_Draw_Circle>
    5660:	00 e0       	ldi	r16, 0x00	; 0
    5662:	10 e0       	ldi	r17, 0x00	; 0
    5664:	28 e7       	ldi	r18, 0x78	; 120
    5666:	30 e0       	ldi	r19, 0x00	; 0
    5668:	47 e4       	ldi	r20, 0x47	; 71
    566a:	51 e0       	ldi	r21, 0x01	; 1
    566c:	68 e7       	ldi	r22, 0x78	; 120
    566e:	70 e0       	ldi	r23, 0x00	; 0
    5670:	88 e9       	ldi	r24, 0x98	; 152
    5672:	90 e0       	ldi	r25, 0x00	; 0
    5674:	0e 94 25 1a 	call	0x344a	; 0x344a <ILI9486_Draw_Line>
    5678:	28 ed       	ldi	r18, 0xD8	; 216
    567a:	30 e0       	ldi	r19, 0x00	; 0
    567c:	4d e3       	ldi	r20, 0x3D	; 61
    567e:	51 e0       	ldi	r21, 0x01	; 1
    5680:	68 ed       	ldi	r22, 0xD8	; 216
    5682:	70 e0       	ldi	r23, 0x00	; 0
    5684:	81 ea       	ldi	r24, 0xA1	; 161
    5686:	90 e0       	ldi	r25, 0x00	; 0
    5688:	0e 94 25 1a 	call	0x344a	; 0x344a <ILI9486_Draw_Line>
    568c:	29 ed       	ldi	r18, 0xD9	; 217
    568e:	30 e0       	ldi	r19, 0x00	; 0
    5690:	41 e0       	ldi	r20, 0x01	; 1
    5692:	50 e0       	ldi	r21, 0x00	; 0
    5694:	6b ed       	ldi	r22, 0xDB	; 219
    5696:	70 e0       	ldi	r23, 0x00	; 0
    5698:	81 e0       	ldi	r24, 0x01	; 1
    569a:	90 e0       	ldi	r25, 0x00	; 0
    569c:	0e 94 25 1a 	call	0x344a	; 0x344a <ILI9486_Draw_Line>
    56a0:	29 ed       	ldi	r18, 0xD9	; 217
    56a2:	30 e0       	ldi	r19, 0x00	; 0
    56a4:	4e ed       	ldi	r20, 0xDE	; 222
    56a6:	51 e0       	ldi	r21, 0x01	; 1
    56a8:	6b ed       	ldi	r22, 0xDB	; 219
    56aa:	70 e0       	ldi	r23, 0x00	; 0
    56ac:	8e ed       	ldi	r24, 0xDE	; 222
    56ae:	91 e0       	ldi	r25, 0x01	; 1
    56b0:	0e 94 25 1a 	call	0x344a	; 0x344a <ILI9486_Draw_Line>
    56b4:	2b e7       	ldi	r18, 0x7B	; 123
    56b6:	30 e0       	ldi	r19, 0x00	; 0
    56b8:	41 e0       	ldi	r20, 0x01	; 1
    56ba:	50 e0       	ldi	r21, 0x00	; 0
    56bc:	69 e7       	ldi	r22, 0x79	; 121
    56be:	70 e0       	ldi	r23, 0x00	; 0
    56c0:	81 e0       	ldi	r24, 0x01	; 1
    56c2:	90 e0       	ldi	r25, 0x00	; 0
    56c4:	0e 94 25 1a 	call	0x344a	; 0x344a <ILI9486_Draw_Line>
    56c8:	2b e7       	ldi	r18, 0x7B	; 123
    56ca:	30 e0       	ldi	r19, 0x00	; 0
    56cc:	4e ed       	ldi	r20, 0xDE	; 222
    56ce:	51 e0       	ldi	r21, 0x01	; 1
    56d0:	69 e7       	ldi	r22, 0x79	; 121
    56d2:	70 e0       	ldi	r23, 0x00	; 0
    56d4:	8e ed       	ldi	r24, 0xDE	; 222
    56d6:	91 e0       	ldi	r25, 0x01	; 1
    56d8:	0e 94 25 1a 	call	0x344a	; 0x344a <ILI9486_Draw_Line>
    56dc:	21 e0       	ldi	r18, 0x01	; 1
    56de:	30 e0       	ldi	r19, 0x00	; 0
    56e0:	44 e9       	ldi	r20, 0x94	; 148
    56e2:	50 e0       	ldi	r21, 0x00	; 0
    56e4:	61 e0       	ldi	r22, 0x01	; 1
    56e6:	70 e0       	ldi	r23, 0x00	; 0
    56e8:	82 e9       	ldi	r24, 0x92	; 146
    56ea:	90 e0       	ldi	r25, 0x00	; 0
    56ec:	0e 94 25 1a 	call	0x344a	; 0x344a <ILI9486_Draw_Line>
    56f0:	21 e0       	ldi	r18, 0x01	; 1
    56f2:	30 e0       	ldi	r19, 0x00	; 0
    56f4:	4b e4       	ldi	r20, 0x4B	; 75
    56f6:	51 e0       	ldi	r21, 0x01	; 1
    56f8:	61 e0       	ldi	r22, 0x01	; 1
    56fa:	70 e0       	ldi	r23, 0x00	; 0
    56fc:	89 e4       	ldi	r24, 0x49	; 73
    56fe:	91 e0       	ldi	r25, 0x01	; 1
    5700:	0e 94 25 1a 	call	0x344a	; 0x344a <ILI9486_Draw_Line>
    5704:	2e e3       	ldi	r18, 0x3E	; 62
    5706:	31 e0       	ldi	r19, 0x01	; 1
    5708:	47 ea       	ldi	r20, 0xA7	; 167
    570a:	50 e0       	ldi	r21, 0x00	; 0
    570c:	6e e3       	ldi	r22, 0x3E	; 62
    570e:	71 e0       	ldi	r23, 0x01	; 1
    5710:	85 ea       	ldi	r24, 0xA5	; 165
    5712:	90 e0       	ldi	r25, 0x00	; 0
    5714:	0e 94 25 1a 	call	0x344a	; 0x344a <ILI9486_Draw_Line>
    5718:	2e e3       	ldi	r18, 0x3E	; 62
    571a:	31 e0       	ldi	r19, 0x01	; 1
    571c:	49 e3       	ldi	r20, 0x39	; 57
    571e:	51 e0       	ldi	r21, 0x01	; 1
    5720:	6e e3       	ldi	r22, 0x3E	; 62
    5722:	71 e0       	ldi	r23, 0x01	; 1
    5724:	87 e3       	ldi	r24, 0x37	; 55
    5726:	91 e0       	ldi	r25, 0x01	; 1
    5728:	0e 94 25 1a 	call	0x344a	; 0x344a <ILI9486_Draw_Line>
    572c:	c5 ea       	ldi	r28, 0xA5	; 165
    572e:	d0 e0       	ldi	r29, 0x00	; 0
    5730:	0b c0       	rjmp	.+22     	; 0x5748 <Print_Boards_Main+0x886>
    5732:	00 e0       	ldi	r16, 0x00	; 0
    5734:	10 e0       	ldi	r17, 0x00	; 0
    5736:	26 ee       	ldi	r18, 0xE6	; 230
    5738:	30 e0       	ldi	r19, 0x00	; 0
    573a:	ae 01       	movw	r20, r28
    573c:	6c ed       	ldi	r22, 0xDC	; 220
    573e:	70 e0       	ldi	r23, 0x00	; 0
    5740:	ce 01       	movw	r24, r28
    5742:	0e 94 25 1a 	call	0x344a	; 0x344a <ILI9486_Draw_Line>
    5746:	21 96       	adiw	r28, 0x01	; 1
    5748:	c8 3a       	cpi	r28, 0xA8	; 168
    574a:	d1 05       	cpc	r29, r1
    574c:	90 f3       	brcs	.-28     	; 0x5732 <Print_Boards_Main+0x870>
    574e:	c7 e3       	ldi	r28, 0x37	; 55
    5750:	d1 e0       	ldi	r29, 0x01	; 1
    5752:	0b c0       	rjmp	.+22     	; 0x576a <Print_Boards_Main+0x8a8>
    5754:	00 e0       	ldi	r16, 0x00	; 0
    5756:	10 e0       	ldi	r17, 0x00	; 0
    5758:	26 ee       	ldi	r18, 0xE6	; 230
    575a:	30 e0       	ldi	r19, 0x00	; 0
    575c:	ae 01       	movw	r20, r28
    575e:	6c ed       	ldi	r22, 0xDC	; 220
    5760:	70 e0       	ldi	r23, 0x00	; 0
    5762:	ce 01       	movw	r24, r28
    5764:	0e 94 25 1a 	call	0x344a	; 0x344a <ILI9486_Draw_Line>
    5768:	21 96       	adiw	r28, 0x01	; 1
    576a:	ca 33       	cpi	r28, 0x3A	; 58
    576c:	81 e0       	ldi	r24, 0x01	; 1
    576e:	d8 07       	cpc	r29, r24
    5770:	88 f3       	brcs	.-30     	; 0x5754 <Print_Boards_Main+0x892>
    5772:	c9 ed       	ldi	r28, 0xD9	; 217
    5774:	d0 e0       	ldi	r29, 0x00	; 0
    5776:	0b c0       	rjmp	.+22     	; 0x578e <Print_Boards_Main+0x8cc>
    5778:	00 e0       	ldi	r16, 0x00	; 0
    577a:	10 e0       	ldi	r17, 0x00	; 0
    577c:	9e 01       	movw	r18, r28
    577e:	4a ea       	ldi	r20, 0xAA	; 170
    5780:	50 e0       	ldi	r21, 0x00	; 0
    5782:	be 01       	movw	r22, r28
    5784:	80 ea       	ldi	r24, 0xA0	; 160
    5786:	90 e0       	ldi	r25, 0x00	; 0
    5788:	0e 94 25 1a 	call	0x344a	; 0x344a <ILI9486_Draw_Line>
    578c:	21 96       	adiw	r28, 0x01	; 1
    578e:	cc 3d       	cpi	r28, 0xDC	; 220
    5790:	d1 05       	cpc	r29, r1
    5792:	90 f3       	brcs	.-28     	; 0x5778 <Print_Boards_Main+0x8b6>
    5794:	c9 ed       	ldi	r28, 0xD9	; 217
    5796:	d0 e0       	ldi	r29, 0x00	; 0
    5798:	0b c0       	rjmp	.+22     	; 0x57b0 <Print_Boards_Main+0x8ee>
    579a:	00 e0       	ldi	r16, 0x00	; 0
    579c:	10 e0       	ldi	r17, 0x00	; 0
    579e:	9e 01       	movw	r18, r28
    57a0:	40 e4       	ldi	r20, 0x40	; 64
    57a2:	51 e0       	ldi	r21, 0x01	; 1
    57a4:	be 01       	movw	r22, r28
    57a6:	86 e3       	ldi	r24, 0x36	; 54
    57a8:	91 e0       	ldi	r25, 0x01	; 1
    57aa:	0e 94 25 1a 	call	0x344a	; 0x344a <ILI9486_Draw_Line>
    57ae:	21 96       	adiw	r28, 0x01	; 1
    57b0:	cc 3d       	cpi	r28, 0xDC	; 220
    57b2:	d1 05       	cpc	r29, r1
    57b4:	90 f3       	brcs	.-28     	; 0x579a <Print_Boards_Main+0x8d8>
    57b6:	c9 e7       	ldi	r28, 0x79	; 121
    57b8:	d0 e0       	ldi	r29, 0x00	; 0
    57ba:	0b c0       	rjmp	.+22     	; 0x57d2 <Print_Boards_Main+0x910>
    57bc:	00 e0       	ldi	r16, 0x00	; 0
    57be:	10 e0       	ldi	r17, 0x00	; 0
    57c0:	9e 01       	movw	r18, r28
    57c2:	40 ea       	ldi	r20, 0xA0	; 160
    57c4:	50 e0       	ldi	r21, 0x00	; 0
    57c6:	be 01       	movw	r22, r28
    57c8:	8c e8       	ldi	r24, 0x8C	; 140
    57ca:	90 e0       	ldi	r25, 0x00	; 0
    57cc:	0e 94 25 1a 	call	0x344a	; 0x344a <ILI9486_Draw_Line>
    57d0:	21 96       	adiw	r28, 0x01	; 1
    57d2:	cc 37       	cpi	r28, 0x7C	; 124
    57d4:	d1 05       	cpc	r29, r1
    57d6:	90 f3       	brcs	.-28     	; 0x57bc <Print_Boards_Main+0x8fa>
    57d8:	c9 e7       	ldi	r28, 0x79	; 121
    57da:	d0 e0       	ldi	r29, 0x00	; 0
    57dc:	0b c0       	rjmp	.+22     	; 0x57f4 <Print_Boards_Main+0x932>
    57de:	00 e0       	ldi	r16, 0x00	; 0
    57e0:	10 e0       	ldi	r17, 0x00	; 0
    57e2:	9e 01       	movw	r18, r28
    57e4:	44 e5       	ldi	r20, 0x54	; 84
    57e6:	51 e0       	ldi	r21, 0x01	; 1
    57e8:	be 01       	movw	r22, r28
    57ea:	80 e4       	ldi	r24, 0x40	; 64
    57ec:	91 e0       	ldi	r25, 0x01	; 1
    57ee:	0e 94 25 1a 	call	0x344a	; 0x344a <ILI9486_Draw_Line>
    57f2:	21 96       	adiw	r28, 0x01	; 1
    57f4:	cc 37       	cpi	r28, 0x7C	; 124
    57f6:	d1 05       	cpc	r29, r1
    57f8:	90 f3       	brcs	.-28     	; 0x57de <Print_Boards_Main+0x91c>
    57fa:	c2 ea       	ldi	r28, 0xA2	; 162
    57fc:	d0 e0       	ldi	r29, 0x00	; 0
    57fe:	0b c0       	rjmp	.+22     	; 0x5816 <Print_Boards_Main+0x954>
    5800:	00 e0       	ldi	r16, 0x00	; 0
    5802:	10 e0       	ldi	r17, 0x00	; 0
    5804:	24 e6       	ldi	r18, 0x64	; 100
    5806:	30 e0       	ldi	r19, 0x00	; 0
    5808:	ae 01       	movw	r20, r28
    580a:	60 e6       	ldi	r22, 0x60	; 96
    580c:	70 e0       	ldi	r23, 0x00	; 0
    580e:	ce 01       	movw	r24, r28
    5810:	0e 94 25 1a 	call	0x344a	; 0x344a <ILI9486_Draw_Line>
    5814:	21 96       	adiw	r28, 0x01	; 1
    5816:	c5 3a       	cpi	r28, 0xA5	; 165
    5818:	d1 05       	cpc	r29, r1
    581a:	90 f3       	brcs	.-28     	; 0x5800 <Print_Boards_Main+0x93e>
    581c:	c9 e3       	ldi	r28, 0x39	; 57
    581e:	d1 e0       	ldi	r29, 0x01	; 1
    5820:	0b c0       	rjmp	.+22     	; 0x5838 <Print_Boards_Main+0x976>
    5822:	00 e0       	ldi	r16, 0x00	; 0
    5824:	10 e0       	ldi	r17, 0x00	; 0
    5826:	24 e6       	ldi	r18, 0x64	; 100
    5828:	30 e0       	ldi	r19, 0x00	; 0
    582a:	ae 01       	movw	r20, r28
    582c:	60 e6       	ldi	r22, 0x60	; 96
    582e:	70 e0       	ldi	r23, 0x00	; 0
    5830:	ce 01       	movw	r24, r28
    5832:	0e 94 25 1a 	call	0x344a	; 0x344a <ILI9486_Draw_Line>
    5836:	21 96       	adiw	r28, 0x01	; 1
    5838:	cc 33       	cpi	r28, 0x3C	; 60
    583a:	21 e0       	ldi	r18, 0x01	; 1
    583c:	d2 07       	cpc	r29, r18
    583e:	88 f3       	brcs	.-30     	; 0x5822 <Print_Boards_Main+0x960>
    5840:	df 91       	pop	r29
    5842:	cf 91       	pop	r28
    5844:	1f 91       	pop	r17
    5846:	0f 91       	pop	r16
    5848:	ff 90       	pop	r15
    584a:	ef 90       	pop	r14
    584c:	df 90       	pop	r13
    584e:	cf 90       	pop	r12
    5850:	bf 90       	pop	r11
    5852:	af 90       	pop	r10
    5854:	9f 90       	pop	r9
    5856:	8f 90       	pop	r8
    5858:	7f 90       	pop	r7
    585a:	6f 90       	pop	r6
    585c:	5f 90       	pop	r5
    585e:	4f 90       	pop	r4
    5860:	3f 90       	pop	r3
    5862:	2f 90       	pop	r2
    5864:	08 95       	ret

00005866 <Print_Static_Home_Page>:
    5866:	80 e0       	ldi	r24, 0x00	; 0
    5868:	90 e0       	ldi	r25, 0x00	; 0
    586a:	0e 94 7c 18 	call	0x30f8	; 0x30f8 <ILI9486_FillScreen>
    586e:	81 e0       	ldi	r24, 0x01	; 1
    5870:	0e 94 ef 15 	call	0x2bde	; 0x2bde <ILI9486_SetRotation>
    5874:	0e 94 61 27 	call	0x4ec2	; 0x4ec2 <Print_Boards_Main>
    5878:	08 95       	ret

0000587a <DrawWeatherVane>:
    587a:	cf 92       	push	r12
    587c:	df 92       	push	r13
    587e:	ef 92       	push	r14
    5880:	ff 92       	push	r15
    5882:	0f 93       	push	r16
    5884:	1f 93       	push	r17
    5886:	2f ef       	ldi	r18, 0xFF	; 255
    5888:	3f ef       	ldi	r19, 0xFF	; 255
    588a:	4b e4       	ldi	r20, 0x4B	; 75
    588c:	50 e0       	ldi	r21, 0x00	; 0
    588e:	6f e9       	ldi	r22, 0x9F	; 159
    5890:	70 e0       	ldi	r23, 0x00	; 0
    5892:	8f ee       	ldi	r24, 0xEF	; 239
    5894:	90 e0       	ldi	r25, 0x00	; 0
    5896:	0e 94 53 1a 	call	0x34a6	; 0x34a6 <ILI9486_Draw_Circle>
    589a:	2f ef       	ldi	r18, 0xFF	; 255
    589c:	3f ef       	ldi	r19, 0xFF	; 255
    589e:	4c e4       	ldi	r20, 0x4C	; 76
    58a0:	50 e0       	ldi	r21, 0x00	; 0
    58a2:	6f e9       	ldi	r22, 0x9F	; 159
    58a4:	70 e0       	ldi	r23, 0x00	; 0
    58a6:	8f ee       	ldi	r24, 0xEF	; 239
    58a8:	90 e0       	ldi	r25, 0x00	; 0
    58aa:	0e 94 53 1a 	call	0x34a6	; 0x34a6 <ILI9486_Draw_Circle>
    58ae:	2f ef       	ldi	r18, 0xFF	; 255
    58b0:	3f ef       	ldi	r19, 0xFF	; 255
    58b2:	40 e5       	ldi	r20, 0x50	; 80
    58b4:	50 e0       	ldi	r21, 0x00	; 0
    58b6:	6f e9       	ldi	r22, 0x9F	; 159
    58b8:	70 e0       	ldi	r23, 0x00	; 0
    58ba:	8f ee       	ldi	r24, 0xEF	; 239
    58bc:	90 e0       	ldi	r25, 0x00	; 0
    58be:	0e 94 53 1a 	call	0x34a6	; 0x34a6 <ILI9486_Draw_Circle>
    58c2:	2f ef       	ldi	r18, 0xFF	; 255
    58c4:	3f ef       	ldi	r19, 0xFF	; 255
    58c6:	41 e5       	ldi	r20, 0x51	; 81
    58c8:	50 e0       	ldi	r21, 0x00	; 0
    58ca:	6f e9       	ldi	r22, 0x9F	; 159
    58cc:	70 e0       	ldi	r23, 0x00	; 0
    58ce:	8f ee       	ldi	r24, 0xEF	; 239
    58d0:	90 e0       	ldi	r25, 0x00	; 0
    58d2:	0e 94 53 1a 	call	0x34a6	; 0x34a6 <ILI9486_Draw_Circle>
    58d6:	0f ef       	ldi	r16, 0xFF	; 255
    58d8:	1f ef       	ldi	r17, 0xFF	; 255
    58da:	26 e1       	ldi	r18, 0x16	; 22
    58dc:	30 e0       	ldi	r19, 0x00	; 0
    58de:	46 e1       	ldi	r20, 0x16	; 22
    58e0:	50 e0       	ldi	r21, 0x00	; 0
    58e2:	69 e4       	ldi	r22, 0x49	; 73
    58e4:	70 e0       	ldi	r23, 0x00	; 0
    58e6:	86 ee       	ldi	r24, 0xE6	; 230
    58e8:	90 e0       	ldi	r25, 0x00	; 0
    58ea:	0e 94 03 1c 	call	0x3806	; 0x3806 <ILI9486_DrawRect>
    58ee:	24 e1       	ldi	r18, 0x14	; 20
    58f0:	30 e0       	ldi	r19, 0x00	; 0
    58f2:	44 e1       	ldi	r20, 0x14	; 20
    58f4:	50 e0       	ldi	r21, 0x00	; 0
    58f6:	6a e4       	ldi	r22, 0x4A	; 74
    58f8:	70 e0       	ldi	r23, 0x00	; 0
    58fa:	87 ee       	ldi	r24, 0xE7	; 231
    58fc:	90 e0       	ldi	r25, 0x00	; 0
    58fe:	0e 94 03 1c 	call	0x3806	; 0x3806 <ILI9486_DrawRect>
    5902:	00 e0       	ldi	r16, 0x00	; 0
    5904:	10 e0       	ldi	r17, 0x00	; 0
    5906:	22 e1       	ldi	r18, 0x12	; 18
    5908:	30 e0       	ldi	r19, 0x00	; 0
    590a:	42 e1       	ldi	r20, 0x12	; 18
    590c:	50 e0       	ldi	r21, 0x00	; 0
    590e:	6b e4       	ldi	r22, 0x4B	; 75
    5910:	70 e0       	ldi	r23, 0x00	; 0
    5912:	88 ee       	ldi	r24, 0xE8	; 232
    5914:	90 e0       	ldi	r25, 0x00	; 0
    5916:	0e 94 cf 18 	call	0x319e	; 0x319e <ILI9486_fillRect>
    591a:	60 e0       	ldi	r22, 0x00	; 0
    591c:	70 e0       	ldi	r23, 0x00	; 0
    591e:	80 ee       	ldi	r24, 0xE0	; 224
    5920:	9f e1       	ldi	r25, 0x1F	; 31
    5922:	0e 94 d0 1d 	call	0x3ba0	; 0x3ba0 <ILI9486_SetTextColor>
    5926:	69 e4       	ldi	r22, 0x49	; 73
    5928:	70 e0       	ldi	r23, 0x00	; 0
    592a:	89 ee       	ldi	r24, 0xE9	; 233
    592c:	90 e0       	ldi	r25, 0x00	; 0
    592e:	0e 94 dd 1f 	call	0x3fba	; 0x3fba <ILI9486_SetCursor>
    5932:	61 e0       	ldi	r22, 0x01	; 1
    5934:	89 e1       	ldi	r24, 0x19	; 25
    5936:	92 e0       	ldi	r25, 0x02	; 2
    5938:	0e 94 ca 20 	call	0x4194	; 0x4194 <ILI9486_Print_String14x24>
    593c:	0f ef       	ldi	r16, 0xFF	; 255
    593e:	1f ef       	ldi	r17, 0xFF	; 255
    5940:	26 e1       	ldi	r18, 0x16	; 22
    5942:	30 e0       	ldi	r19, 0x00	; 0
    5944:	46 e1       	ldi	r20, 0x16	; 22
    5946:	50 e0       	ldi	r21, 0x00	; 0
    5948:	61 ee       	ldi	r22, 0xE1	; 225
    594a:	70 e0       	ldi	r23, 0x00	; 0
    594c:	86 ee       	ldi	r24, 0xE6	; 230
    594e:	90 e0       	ldi	r25, 0x00	; 0
    5950:	0e 94 03 1c 	call	0x3806	; 0x3806 <ILI9486_DrawRect>
    5954:	24 e1       	ldi	r18, 0x14	; 20
    5956:	30 e0       	ldi	r19, 0x00	; 0
    5958:	44 e1       	ldi	r20, 0x14	; 20
    595a:	50 e0       	ldi	r21, 0x00	; 0
    595c:	62 ee       	ldi	r22, 0xE2	; 226
    595e:	70 e0       	ldi	r23, 0x00	; 0
    5960:	87 ee       	ldi	r24, 0xE7	; 231
    5962:	90 e0       	ldi	r25, 0x00	; 0
    5964:	0e 94 03 1c 	call	0x3806	; 0x3806 <ILI9486_DrawRect>
    5968:	00 e0       	ldi	r16, 0x00	; 0
    596a:	10 e0       	ldi	r17, 0x00	; 0
    596c:	22 e1       	ldi	r18, 0x12	; 18
    596e:	30 e0       	ldi	r19, 0x00	; 0
    5970:	42 e1       	ldi	r20, 0x12	; 18
    5972:	50 e0       	ldi	r21, 0x00	; 0
    5974:	63 ee       	ldi	r22, 0xE3	; 227
    5976:	70 e0       	ldi	r23, 0x00	; 0
    5978:	88 ee       	ldi	r24, 0xE8	; 232
    597a:	90 e0       	ldi	r25, 0x00	; 0
    597c:	0e 94 cf 18 	call	0x319e	; 0x319e <ILI9486_fillRect>
    5980:	60 e0       	ldi	r22, 0x00	; 0
    5982:	70 e0       	ldi	r23, 0x00	; 0
    5984:	80 ee       	ldi	r24, 0xE0	; 224
    5986:	9f e1       	ldi	r25, 0x1F	; 31
    5988:	0e 94 d0 1d 	call	0x3ba0	; 0x3ba0 <ILI9486_SetTextColor>
    598c:	61 ee       	ldi	r22, 0xE1	; 225
    598e:	70 e0       	ldi	r23, 0x00	; 0
    5990:	8a ee       	ldi	r24, 0xEA	; 234
    5992:	90 e0       	ldi	r25, 0x00	; 0
    5994:	0e 94 dd 1f 	call	0x3fba	; 0x3fba <ILI9486_SetCursor>
    5998:	61 e0       	ldi	r22, 0x01	; 1
    599a:	8b e1       	ldi	r24, 0x1B	; 27
    599c:	92 e0       	ldi	r25, 0x02	; 2
    599e:	0e 94 ca 20 	call	0x4194	; 0x4194 <ILI9486_Print_String14x24>
    59a2:	0f ef       	ldi	r16, 0xFF	; 255
    59a4:	1f ef       	ldi	r17, 0xFF	; 255
    59a6:	26 e1       	ldi	r18, 0x16	; 22
    59a8:	30 e0       	ldi	r19, 0x00	; 0
    59aa:	46 e1       	ldi	r20, 0x16	; 22
    59ac:	50 e0       	ldi	r21, 0x00	; 0
    59ae:	65 e9       	ldi	r22, 0x95	; 149
    59b0:	70 e0       	ldi	r23, 0x00	; 0
    59b2:	89 e9       	ldi	r24, 0x99	; 153
    59b4:	90 e0       	ldi	r25, 0x00	; 0
    59b6:	0e 94 03 1c 	call	0x3806	; 0x3806 <ILI9486_DrawRect>
    59ba:	24 e1       	ldi	r18, 0x14	; 20
    59bc:	30 e0       	ldi	r19, 0x00	; 0
    59be:	44 e1       	ldi	r20, 0x14	; 20
    59c0:	50 e0       	ldi	r21, 0x00	; 0
    59c2:	66 e9       	ldi	r22, 0x96	; 150
    59c4:	70 e0       	ldi	r23, 0x00	; 0
    59c6:	8a e9       	ldi	r24, 0x9A	; 154
    59c8:	90 e0       	ldi	r25, 0x00	; 0
    59ca:	0e 94 03 1c 	call	0x3806	; 0x3806 <ILI9486_DrawRect>
    59ce:	00 e0       	ldi	r16, 0x00	; 0
    59d0:	10 e0       	ldi	r17, 0x00	; 0
    59d2:	22 e1       	ldi	r18, 0x12	; 18
    59d4:	30 e0       	ldi	r19, 0x00	; 0
    59d6:	42 e1       	ldi	r20, 0x12	; 18
    59d8:	50 e0       	ldi	r21, 0x00	; 0
    59da:	67 e9       	ldi	r22, 0x97	; 151
    59dc:	70 e0       	ldi	r23, 0x00	; 0
    59de:	8b e9       	ldi	r24, 0x9B	; 155
    59e0:	90 e0       	ldi	r25, 0x00	; 0
    59e2:	0e 94 cf 18 	call	0x319e	; 0x319e <ILI9486_fillRect>
    59e6:	60 e0       	ldi	r22, 0x00	; 0
    59e8:	70 e0       	ldi	r23, 0x00	; 0
    59ea:	80 ee       	ldi	r24, 0xE0	; 224
    59ec:	9f e1       	ldi	r25, 0x1F	; 31
    59ee:	0e 94 d0 1d 	call	0x3ba0	; 0x3ba0 <ILI9486_SetTextColor>
    59f2:	65 e9       	ldi	r22, 0x95	; 149
    59f4:	70 e0       	ldi	r23, 0x00	; 0
    59f6:	8e e9       	ldi	r24, 0x9E	; 158
    59f8:	90 e0       	ldi	r25, 0x00	; 0
    59fa:	0e 94 dd 1f 	call	0x3fba	; 0x3fba <ILI9486_SetCursor>
    59fe:	61 e0       	ldi	r22, 0x01	; 1
    5a00:	83 e2       	ldi	r24, 0x23	; 35
    5a02:	92 e0       	ldi	r25, 0x02	; 2
    5a04:	0e 94 ca 20 	call	0x4194	; 0x4194 <ILI9486_Print_String14x24>
    5a08:	0f ef       	ldi	r16, 0xFF	; 255
    5a0a:	1f ef       	ldi	r17, 0xFF	; 255
    5a0c:	26 e1       	ldi	r18, 0x16	; 22
    5a0e:	30 e0       	ldi	r19, 0x00	; 0
    5a10:	46 e1       	ldi	r20, 0x16	; 22
    5a12:	50 e0       	ldi	r21, 0x00	; 0
    5a14:	65 e9       	ldi	r22, 0x95	; 149
    5a16:	70 e0       	ldi	r23, 0x00	; 0
    5a18:	80 e3       	ldi	r24, 0x30	; 48
    5a1a:	91 e0       	ldi	r25, 0x01	; 1
    5a1c:	0e 94 03 1c 	call	0x3806	; 0x3806 <ILI9486_DrawRect>
    5a20:	24 e1       	ldi	r18, 0x14	; 20
    5a22:	30 e0       	ldi	r19, 0x00	; 0
    5a24:	44 e1       	ldi	r20, 0x14	; 20
    5a26:	50 e0       	ldi	r21, 0x00	; 0
    5a28:	66 e9       	ldi	r22, 0x96	; 150
    5a2a:	70 e0       	ldi	r23, 0x00	; 0
    5a2c:	81 e3       	ldi	r24, 0x31	; 49
    5a2e:	91 e0       	ldi	r25, 0x01	; 1
    5a30:	0e 94 03 1c 	call	0x3806	; 0x3806 <ILI9486_DrawRect>
    5a34:	00 e0       	ldi	r16, 0x00	; 0
    5a36:	10 e0       	ldi	r17, 0x00	; 0
    5a38:	22 e1       	ldi	r18, 0x12	; 18
    5a3a:	30 e0       	ldi	r19, 0x00	; 0
    5a3c:	42 e1       	ldi	r20, 0x12	; 18
    5a3e:	50 e0       	ldi	r21, 0x00	; 0
    5a40:	67 e9       	ldi	r22, 0x97	; 151
    5a42:	70 e0       	ldi	r23, 0x00	; 0
    5a44:	82 e3       	ldi	r24, 0x32	; 50
    5a46:	91 e0       	ldi	r25, 0x01	; 1
    5a48:	0e 94 cf 18 	call	0x319e	; 0x319e <ILI9486_fillRect>
    5a4c:	60 e0       	ldi	r22, 0x00	; 0
    5a4e:	70 e0       	ldi	r23, 0x00	; 0
    5a50:	80 ee       	ldi	r24, 0xE0	; 224
    5a52:	9f e1       	ldi	r25, 0x1F	; 31
    5a54:	0e 94 d0 1d 	call	0x3ba0	; 0x3ba0 <ILI9486_SetTextColor>
    5a58:	65 e9       	ldi	r22, 0x95	; 149
    5a5a:	70 e0       	ldi	r23, 0x00	; 0
    5a5c:	85 e3       	ldi	r24, 0x35	; 53
    5a5e:	91 e0       	ldi	r25, 0x01	; 1
    5a60:	0e 94 dd 1f 	call	0x3fba	; 0x3fba <ILI9486_SetCursor>
    5a64:	61 e0       	ldi	r22, 0x01	; 1
    5a66:	8f e1       	ldi	r24, 0x1F	; 31
    5a68:	92 e0       	ldi	r25, 0x02	; 2
    5a6a:	0e 94 ca 20 	call	0x4194	; 0x4194 <ILI9486_Print_String14x24>
    5a6e:	0f ef       	ldi	r16, 0xFF	; 255
    5a70:	1f ef       	ldi	r17, 0xFF	; 255
    5a72:	2a e6       	ldi	r18, 0x6A	; 106
    5a74:	30 e0       	ldi	r19, 0x00	; 0
    5a76:	4a eb       	ldi	r20, 0xBA	; 186
    5a78:	50 e0       	ldi	r21, 0x00	; 0
    5a7a:	62 e7       	ldi	r22, 0x72	; 114
    5a7c:	70 e0       	ldi	r23, 0x00	; 0
    5a7e:	82 ec       	ldi	r24, 0xC2	; 194
    5a80:	90 e0       	ldi	r25, 0x00	; 0
    5a82:	0e 94 25 1a 	call	0x344a	; 0x344a <ILI9486_Draw_Line>
    5a86:	29 e6       	ldi	r18, 0x69	; 105
    5a88:	30 e0       	ldi	r19, 0x00	; 0
    5a8a:	4b eb       	ldi	r20, 0xBB	; 187
    5a8c:	50 e0       	ldi	r21, 0x00	; 0
    5a8e:	61 e7       	ldi	r22, 0x71	; 113
    5a90:	70 e0       	ldi	r23, 0x00	; 0
    5a92:	83 ec       	ldi	r24, 0xC3	; 195
    5a94:	90 e0       	ldi	r25, 0x00	; 0
    5a96:	0e 94 25 1a 	call	0x344a	; 0x344a <ILI9486_Draw_Line>
    5a9a:	2b e6       	ldi	r18, 0x6B	; 107
    5a9c:	30 e0       	ldi	r19, 0x00	; 0
    5a9e:	49 eb       	ldi	r20, 0xB9	; 185
    5aa0:	50 e0       	ldi	r21, 0x00	; 0
    5aa2:	63 e7       	ldi	r22, 0x73	; 115
    5aa4:	70 e0       	ldi	r23, 0x00	; 0
    5aa6:	81 ec       	ldi	r24, 0xC1	; 193
    5aa8:	90 e0       	ldi	r25, 0x00	; 0
    5aaa:	0e 94 25 1a 	call	0x344a	; 0x344a <ILI9486_Draw_Line>
    5aae:	22 e7       	ldi	r18, 0x72	; 114
    5ab0:	30 e0       	ldi	r19, 0x00	; 0
    5ab2:	4c e1       	ldi	r20, 0x1C	; 28
    5ab4:	51 e0       	ldi	r21, 0x01	; 1
    5ab6:	6a e6       	ldi	r22, 0x6A	; 106
    5ab8:	70 e0       	ldi	r23, 0x00	; 0
    5aba:	84 e2       	ldi	r24, 0x24	; 36
    5abc:	91 e0       	ldi	r25, 0x01	; 1
    5abe:	0e 94 25 1a 	call	0x344a	; 0x344a <ILI9486_Draw_Line>
    5ac2:	21 e7       	ldi	r18, 0x71	; 113
    5ac4:	30 e0       	ldi	r19, 0x00	; 0
    5ac6:	4b e1       	ldi	r20, 0x1B	; 27
    5ac8:	51 e0       	ldi	r21, 0x01	; 1
    5aca:	69 e6       	ldi	r22, 0x69	; 105
    5acc:	70 e0       	ldi	r23, 0x00	; 0
    5ace:	83 e2       	ldi	r24, 0x23	; 35
    5ad0:	91 e0       	ldi	r25, 0x01	; 1
    5ad2:	0e 94 25 1a 	call	0x344a	; 0x344a <ILI9486_Draw_Line>
    5ad6:	23 e7       	ldi	r18, 0x73	; 115
    5ad8:	30 e0       	ldi	r19, 0x00	; 0
    5ada:	4d e1       	ldi	r20, 0x1D	; 29
    5adc:	51 e0       	ldi	r21, 0x01	; 1
    5ade:	6b e6       	ldi	r22, 0x6B	; 107
    5ae0:	70 e0       	ldi	r23, 0x00	; 0
    5ae2:	85 e2       	ldi	r24, 0x25	; 37
    5ae4:	91 e0       	ldi	r25, 0x01	; 1
    5ae6:	0e 94 25 1a 	call	0x344a	; 0x344a <ILI9486_Draw_Line>
    5aea:	2c ec       	ldi	r18, 0xCC	; 204
    5aec:	30 e0       	ldi	r19, 0x00	; 0
    5aee:	4c e1       	ldi	r20, 0x1C	; 28
    5af0:	51 e0       	ldi	r21, 0x01	; 1
    5af2:	64 ed       	ldi	r22, 0xD4	; 212
    5af4:	70 e0       	ldi	r23, 0x00	; 0
    5af6:	84 e2       	ldi	r24, 0x24	; 36
    5af8:	91 e0       	ldi	r25, 0x01	; 1
    5afa:	0e 94 25 1a 	call	0x344a	; 0x344a <ILI9486_Draw_Line>
    5afe:	2b ec       	ldi	r18, 0xCB	; 203
    5b00:	30 e0       	ldi	r19, 0x00	; 0
    5b02:	4d e1       	ldi	r20, 0x1D	; 29
    5b04:	51 e0       	ldi	r21, 0x01	; 1
    5b06:	63 ed       	ldi	r22, 0xD3	; 211
    5b08:	70 e0       	ldi	r23, 0x00	; 0
    5b0a:	85 e2       	ldi	r24, 0x25	; 37
    5b0c:	91 e0       	ldi	r25, 0x01	; 1
    5b0e:	0e 94 25 1a 	call	0x344a	; 0x344a <ILI9486_Draw_Line>
    5b12:	2d ec       	ldi	r18, 0xCD	; 205
    5b14:	30 e0       	ldi	r19, 0x00	; 0
    5b16:	4b e1       	ldi	r20, 0x1B	; 27
    5b18:	51 e0       	ldi	r21, 0x01	; 1
    5b1a:	65 ed       	ldi	r22, 0xD5	; 213
    5b1c:	70 e0       	ldi	r23, 0x00	; 0
    5b1e:	83 e2       	ldi	r24, 0x23	; 35
    5b20:	91 e0       	ldi	r25, 0x01	; 1
    5b22:	0e 94 25 1a 	call	0x344a	; 0x344a <ILI9486_Draw_Line>
    5b26:	2c ec       	ldi	r18, 0xCC	; 204
    5b28:	30 e0       	ldi	r19, 0x00	; 0
    5b2a:	42 ec       	ldi	r20, 0xC2	; 194
    5b2c:	50 e0       	ldi	r21, 0x00	; 0
    5b2e:	64 ed       	ldi	r22, 0xD4	; 212
    5b30:	70 e0       	ldi	r23, 0x00	; 0
    5b32:	8a eb       	ldi	r24, 0xBA	; 186
    5b34:	90 e0       	ldi	r25, 0x00	; 0
    5b36:	0e 94 25 1a 	call	0x344a	; 0x344a <ILI9486_Draw_Line>
    5b3a:	2b ec       	ldi	r18, 0xCB	; 203
    5b3c:	30 e0       	ldi	r19, 0x00	; 0
    5b3e:	41 ec       	ldi	r20, 0xC1	; 193
    5b40:	50 e0       	ldi	r21, 0x00	; 0
    5b42:	63 ed       	ldi	r22, 0xD3	; 211
    5b44:	70 e0       	ldi	r23, 0x00	; 0
    5b46:	89 eb       	ldi	r24, 0xB9	; 185
    5b48:	90 e0       	ldi	r25, 0x00	; 0
    5b4a:	0e 94 25 1a 	call	0x344a	; 0x344a <ILI9486_Draw_Line>
    5b4e:	2d ec       	ldi	r18, 0xCD	; 205
    5b50:	30 e0       	ldi	r19, 0x00	; 0
    5b52:	43 ec       	ldi	r20, 0xC3	; 195
    5b54:	50 e0       	ldi	r21, 0x00	; 0
    5b56:	65 ed       	ldi	r22, 0xD5	; 213
    5b58:	70 e0       	ldi	r23, 0x00	; 0
    5b5a:	8b eb       	ldi	r24, 0xBB	; 187
    5b5c:	90 e0       	ldi	r25, 0x00	; 0
    5b5e:	0e 94 25 1a 	call	0x344a	; 0x344a <ILI9486_Draw_Line>
    5b62:	20 ee       	ldi	r18, 0xE0	; 224
    5b64:	3f e1       	ldi	r19, 0x1F	; 31
    5b66:	4e e1       	ldi	r20, 0x1E	; 30
    5b68:	50 e0       	ldi	r21, 0x00	; 0
    5b6a:	6f e9       	ldi	r22, 0x9F	; 159
    5b6c:	70 e0       	ldi	r23, 0x00	; 0
    5b6e:	8f ee       	ldi	r24, 0xEF	; 239
    5b70:	90 e0       	ldi	r25, 0x00	; 0
    5b72:	0e 94 53 1a 	call	0x34a6	; 0x34a6 <ILI9486_Draw_Circle>
    5b76:	20 ee       	ldi	r18, 0xE0	; 224
    5b78:	3f e1       	ldi	r19, 0x1F	; 31
    5b7a:	4d e1       	ldi	r20, 0x1D	; 29
    5b7c:	50 e0       	ldi	r21, 0x00	; 0
    5b7e:	6f e9       	ldi	r22, 0x9F	; 159
    5b80:	70 e0       	ldi	r23, 0x00	; 0
    5b82:	8f ee       	ldi	r24, 0xEF	; 239
    5b84:	90 e0       	ldi	r25, 0x00	; 0
    5b86:	0e 94 53 1a 	call	0x34a6	; 0x34a6 <ILI9486_Draw_Circle>
    5b8a:	2f ef       	ldi	r18, 0xFF	; 255
    5b8c:	3f ef       	ldi	r19, 0xFF	; 255
    5b8e:	4c e1       	ldi	r20, 0x1C	; 28
    5b90:	50 e0       	ldi	r21, 0x00	; 0
    5b92:	6f e9       	ldi	r22, 0x9F	; 159
    5b94:	70 e0       	ldi	r23, 0x00	; 0
    5b96:	8f ee       	ldi	r24, 0xEF	; 239
    5b98:	90 e0       	ldi	r25, 0x00	; 0
    5b9a:	0e 94 53 1a 	call	0x34a6	; 0x34a6 <ILI9486_Draw_Circle>
    5b9e:	2f ef       	ldi	r18, 0xFF	; 255
    5ba0:	3f ef       	ldi	r19, 0xFF	; 255
    5ba2:	4b e1       	ldi	r20, 0x1B	; 27
    5ba4:	50 e0       	ldi	r21, 0x00	; 0
    5ba6:	6f e9       	ldi	r22, 0x9F	; 159
    5ba8:	70 e0       	ldi	r23, 0x00	; 0
    5baa:	8f ee       	ldi	r24, 0xEF	; 239
    5bac:	90 e0       	ldi	r25, 0x00	; 0
    5bae:	0e 94 53 1a 	call	0x34a6	; 0x34a6 <ILI9486_Draw_Circle>
    5bb2:	2f ef       	ldi	r18, 0xFF	; 255
    5bb4:	3f ef       	ldi	r19, 0xFF	; 255
    5bb6:	4a e0       	ldi	r20, 0x0A	; 10
    5bb8:	50 e0       	ldi	r21, 0x00	; 0
    5bba:	6f e9       	ldi	r22, 0x9F	; 159
    5bbc:	70 e0       	ldi	r23, 0x00	; 0
    5bbe:	8f ee       	ldi	r24, 0xEF	; 239
    5bc0:	90 e0       	ldi	r25, 0x00	; 0
    5bc2:	0e 94 53 1a 	call	0x34a6	; 0x34a6 <ILI9486_Draw_Circle>
    5bc6:	2f ef       	ldi	r18, 0xFF	; 255
    5bc8:	3f ef       	ldi	r19, 0xFF	; 255
    5bca:	49 e0       	ldi	r20, 0x09	; 9
    5bcc:	50 e0       	ldi	r21, 0x00	; 0
    5bce:	6f e9       	ldi	r22, 0x9F	; 159
    5bd0:	70 e0       	ldi	r23, 0x00	; 0
    5bd2:	8f ee       	ldi	r24, 0xEF	; 239
    5bd4:	90 e0       	ldi	r25, 0x00	; 0
    5bd6:	0e 94 53 1a 	call	0x34a6	; 0x34a6 <ILI9486_Draw_Circle>
    5bda:	20 ee       	ldi	r18, 0xE0	; 224
    5bdc:	3f e1       	ldi	r19, 0x1F	; 31
    5bde:	48 e0       	ldi	r20, 0x08	; 8
    5be0:	50 e0       	ldi	r21, 0x00	; 0
    5be2:	6f e9       	ldi	r22, 0x9F	; 159
    5be4:	70 e0       	ldi	r23, 0x00	; 0
    5be6:	8f ee       	ldi	r24, 0xEF	; 239
    5be8:	90 e0       	ldi	r25, 0x00	; 0
    5bea:	0e 94 da 1b 	call	0x37b4	; 0x37b4 <ILI9486_fillCircle>
    5bee:	25 e9       	ldi	r18, 0x95	; 149
    5bf0:	30 e0       	ldi	r19, 0x00	; 0
    5bf2:	4d ee       	ldi	r20, 0xED	; 237
    5bf4:	50 e0       	ldi	r21, 0x00	; 0
    5bf6:	61 e8       	ldi	r22, 0x81	; 129
    5bf8:	70 e0       	ldi	r23, 0x00	; 0
    5bfa:	8f ee       	ldi	r24, 0xEF	; 239
    5bfc:	90 e0       	ldi	r25, 0x00	; 0
    5bfe:	0e 94 25 1a 	call	0x344a	; 0x344a <ILI9486_Draw_Line>
    5c02:	25 e9       	ldi	r18, 0x95	; 149
    5c04:	30 e0       	ldi	r19, 0x00	; 0
    5c06:	41 ef       	ldi	r20, 0xF1	; 241
    5c08:	50 e0       	ldi	r21, 0x00	; 0
    5c0a:	61 e8       	ldi	r22, 0x81	; 129
    5c0c:	70 e0       	ldi	r23, 0x00	; 0
    5c0e:	8f ee       	ldi	r24, 0xEF	; 239
    5c10:	90 e0       	ldi	r25, 0x00	; 0
    5c12:	0e 94 25 1a 	call	0x344a	; 0x344a <ILI9486_Draw_Line>
    5c16:	2d e9       	ldi	r18, 0x9D	; 157
    5c18:	30 e0       	ldi	r19, 0x00	; 0
    5c1a:	45 ee       	ldi	r20, 0xE5	; 229
    5c1c:	50 e0       	ldi	r21, 0x00	; 0
    5c1e:	6f e9       	ldi	r22, 0x9F	; 159
    5c20:	70 e0       	ldi	r23, 0x00	; 0
    5c22:	81 ed       	ldi	r24, 0xD1	; 209
    5c24:	90 e0       	ldi	r25, 0x00	; 0
    5c26:	0e 94 25 1a 	call	0x344a	; 0x344a <ILI9486_Draw_Line>
    5c2a:	21 ea       	ldi	r18, 0xA1	; 161
    5c2c:	30 e0       	ldi	r19, 0x00	; 0
    5c2e:	45 ee       	ldi	r20, 0xE5	; 229
    5c30:	50 e0       	ldi	r21, 0x00	; 0
    5c32:	6f e9       	ldi	r22, 0x9F	; 159
    5c34:	70 e0       	ldi	r23, 0x00	; 0
    5c36:	81 ed       	ldi	r24, 0xD1	; 209
    5c38:	90 e0       	ldi	r25, 0x00	; 0
    5c3a:	0e 94 25 1a 	call	0x344a	; 0x344a <ILI9486_Draw_Line>
    5c3e:	2d e9       	ldi	r18, 0x9D	; 157
    5c40:	30 e0       	ldi	r19, 0x00	; 0
    5c42:	49 ef       	ldi	r20, 0xF9	; 249
    5c44:	50 e0       	ldi	r21, 0x00	; 0
    5c46:	6f e9       	ldi	r22, 0x9F	; 159
    5c48:	70 e0       	ldi	r23, 0x00	; 0
    5c4a:	8d e0       	ldi	r24, 0x0D	; 13
    5c4c:	91 e0       	ldi	r25, 0x01	; 1
    5c4e:	0e 94 25 1a 	call	0x344a	; 0x344a <ILI9486_Draw_Line>
    5c52:	21 ea       	ldi	r18, 0xA1	; 161
    5c54:	30 e0       	ldi	r19, 0x00	; 0
    5c56:	49 ef       	ldi	r20, 0xF9	; 249
    5c58:	50 e0       	ldi	r21, 0x00	; 0
    5c5a:	6f e9       	ldi	r22, 0x9F	; 159
    5c5c:	70 e0       	ldi	r23, 0x00	; 0
    5c5e:	8d e0       	ldi	r24, 0x0D	; 13
    5c60:	91 e0       	ldi	r25, 0x01	; 1
    5c62:	0e 94 25 1a 	call	0x344a	; 0x344a <ILI9486_Draw_Line>
    5c66:	29 ea       	ldi	r18, 0xA9	; 169
    5c68:	30 e0       	ldi	r19, 0x00	; 0
    5c6a:	4d ee       	ldi	r20, 0xED	; 237
    5c6c:	50 e0       	ldi	r21, 0x00	; 0
    5c6e:	6d eb       	ldi	r22, 0xBD	; 189
    5c70:	70 e0       	ldi	r23, 0x00	; 0
    5c72:	8f ee       	ldi	r24, 0xEF	; 239
    5c74:	90 e0       	ldi	r25, 0x00	; 0
    5c76:	0e 94 25 1a 	call	0x344a	; 0x344a <ILI9486_Draw_Line>
    5c7a:	29 ea       	ldi	r18, 0xA9	; 169
    5c7c:	30 e0       	ldi	r19, 0x00	; 0
    5c7e:	41 ef       	ldi	r20, 0xF1	; 241
    5c80:	50 e0       	ldi	r21, 0x00	; 0
    5c82:	6d eb       	ldi	r22, 0xBD	; 189
    5c84:	70 e0       	ldi	r23, 0x00	; 0
    5c86:	8f ee       	ldi	r24, 0xEF	; 239
    5c88:	90 e0       	ldi	r25, 0x00	; 0
    5c8a:	0e 94 25 1a 	call	0x344a	; 0x344a <ILI9486_Draw_Line>
    5c8e:	0f 2e       	mov	r0, r31
    5c90:	f0 ee       	ldi	r31, 0xE0	; 224
    5c92:	cf 2e       	mov	r12, r31
    5c94:	ff e1       	ldi	r31, 0x1F	; 31
    5c96:	df 2e       	mov	r13, r31
    5c98:	f0 2d       	mov	r31, r0
    5c9a:	0f 2e       	mov	r0, r31
    5c9c:	f3 e7       	ldi	r31, 0x73	; 115
    5c9e:	ef 2e       	mov	r14, r31
    5ca0:	f1 2c       	mov	r15, r1
    5ca2:	f0 2d       	mov	r31, r0
    5ca4:	0f ee       	ldi	r16, 0xEF	; 239
    5ca6:	10 e0       	ldi	r17, 0x00	; 0
    5ca8:	2c e7       	ldi	r18, 0x7C	; 124
    5caa:	30 e0       	ldi	r19, 0x00	; 0
    5cac:	49 ee       	ldi	r20, 0xE9	; 233
    5cae:	50 e0       	ldi	r21, 0x00	; 0
    5cb0:	63 e6       	ldi	r22, 0x63	; 99
    5cb2:	70 e0       	ldi	r23, 0x00	; 0
    5cb4:	8f ee       	ldi	r24, 0xEF	; 239
    5cb6:	90 e0       	ldi	r25, 0x00	; 0
    5cb8:	0e 94 38 1c 	call	0x3870	; 0x3870 <ILI9486_fillTriangle>
    5cbc:	0f 2e       	mov	r0, r31
    5cbe:	fc e7       	ldi	r31, 0x7C	; 124
    5cc0:	ef 2e       	mov	r14, r31
    5cc2:	f1 2c       	mov	r15, r1
    5cc4:	f0 2d       	mov	r31, r0
    5cc6:	05 ef       	ldi	r16, 0xF5	; 245
    5cc8:	10 e0       	ldi	r17, 0x00	; 0
    5cca:	23 e7       	ldi	r18, 0x73	; 115
    5ccc:	30 e0       	ldi	r19, 0x00	; 0
    5cce:	4f ee       	ldi	r20, 0xEF	; 239
    5cd0:	50 e0       	ldi	r21, 0x00	; 0
    5cd2:	63 e6       	ldi	r22, 0x63	; 99
    5cd4:	70 e0       	ldi	r23, 0x00	; 0
    5cd6:	8f ee       	ldi	r24, 0xEF	; 239
    5cd8:	90 e0       	ldi	r25, 0x00	; 0
    5cda:	0e 94 38 1c 	call	0x3870	; 0x3870 <ILI9486_fillTriangle>
    5cde:	69 e1       	ldi	r22, 0x19	; 25
    5ce0:	72 e0       	ldi	r23, 0x02	; 2
    5ce2:	89 ee       	ldi	r24, 0xE9	; 233
    5ce4:	92 e0       	ldi	r25, 0x02	; 2
    5ce6:	0e 94 6e 32 	call	0x64dc	; 0x64dc <strcmp>
    5cea:	89 2b       	or	r24, r25
    5cec:	19 f5       	brne	.+70     	; 0x5d34 <DrawWeatherVane+0x4ba>
    5cee:	0f 2e       	mov	r0, r31
    5cf0:	f3 e7       	ldi	r31, 0x73	; 115
    5cf2:	ef 2e       	mov	r14, r31
    5cf4:	f1 2c       	mov	r15, r1
    5cf6:	f0 2d       	mov	r31, r0
    5cf8:	0f ee       	ldi	r16, 0xEF	; 239
    5cfa:	10 e0       	ldi	r17, 0x00	; 0
    5cfc:	2c e7       	ldi	r18, 0x7C	; 124
    5cfe:	30 e0       	ldi	r19, 0x00	; 0
    5d00:	49 ee       	ldi	r20, 0xE9	; 233
    5d02:	50 e0       	ldi	r21, 0x00	; 0
    5d04:	63 e6       	ldi	r22, 0x63	; 99
    5d06:	70 e0       	ldi	r23, 0x00	; 0
    5d08:	8f ee       	ldi	r24, 0xEF	; 239
    5d0a:	90 e0       	ldi	r25, 0x00	; 0
    5d0c:	0e 94 38 1c 	call	0x3870	; 0x3870 <ILI9486_fillTriangle>
    5d10:	0f 2e       	mov	r0, r31
    5d12:	fc e7       	ldi	r31, 0x7C	; 124
    5d14:	ef 2e       	mov	r14, r31
    5d16:	f1 2c       	mov	r15, r1
    5d18:	f0 2d       	mov	r31, r0
    5d1a:	05 ef       	ldi	r16, 0xF5	; 245
    5d1c:	10 e0       	ldi	r17, 0x00	; 0
    5d1e:	23 e7       	ldi	r18, 0x73	; 115
    5d20:	30 e0       	ldi	r19, 0x00	; 0
    5d22:	4f ee       	ldi	r20, 0xEF	; 239
    5d24:	50 e0       	ldi	r21, 0x00	; 0
    5d26:	63 e6       	ldi	r22, 0x63	; 99
    5d28:	70 e0       	ldi	r23, 0x00	; 0
    5d2a:	8f ee       	ldi	r24, 0xEF	; 239
    5d2c:	90 e0       	ldi	r25, 0x00	; 0
    5d2e:	0e 94 38 1c 	call	0x3870	; 0x3870 <ILI9486_fillTriangle>
    5d32:	42 c1       	rjmp	.+644    	; 0x5fb8 <DrawWeatherVane+0x73e>
    5d34:	6b e1       	ldi	r22, 0x1B	; 27
    5d36:	72 e0       	ldi	r23, 0x02	; 2
    5d38:	89 ee       	ldi	r24, 0xE9	; 233
    5d3a:	92 e0       	ldi	r25, 0x02	; 2
    5d3c:	0e 94 6e 32 	call	0x64dc	; 0x64dc <strcmp>
    5d40:	89 2b       	or	r24, r25
    5d42:	49 f5       	brne	.+82     	; 0x5d96 <DrawWeatherVane+0x51c>
    5d44:	0f 2e       	mov	r0, r31
    5d46:	f0 ee       	ldi	r31, 0xE0	; 224
    5d48:	cf 2e       	mov	r12, r31
    5d4a:	ff e1       	ldi	r31, 0x1F	; 31
    5d4c:	df 2e       	mov	r13, r31
    5d4e:	f0 2d       	mov	r31, r0
    5d50:	0f 2e       	mov	r0, r31
    5d52:	fd ec       	ldi	r31, 0xCD	; 205
    5d54:	ef 2e       	mov	r14, r31
    5d56:	f1 2c       	mov	r15, r1
    5d58:	f0 2d       	mov	r31, r0
    5d5a:	0f ee       	ldi	r16, 0xEF	; 239
    5d5c:	10 e0       	ldi	r17, 0x00	; 0
    5d5e:	2d ed       	ldi	r18, 0xDD	; 221
    5d60:	30 e0       	ldi	r19, 0x00	; 0
    5d62:	4f ee       	ldi	r20, 0xEF	; 239
    5d64:	50 e0       	ldi	r21, 0x00	; 0
    5d66:	64 ec       	ldi	r22, 0xC4	; 196
    5d68:	70 e0       	ldi	r23, 0x00	; 0
    5d6a:	89 ee       	ldi	r24, 0xE9	; 233
    5d6c:	90 e0       	ldi	r25, 0x00	; 0
    5d6e:	0e 94 38 1c 	call	0x3870	; 0x3870 <ILI9486_fillTriangle>
    5d72:	0f 2e       	mov	r0, r31
    5d74:	f4 ec       	ldi	r31, 0xC4	; 196
    5d76:	ef 2e       	mov	r14, r31
    5d78:	f1 2c       	mov	r15, r1
    5d7a:	f0 2d       	mov	r31, r0
    5d7c:	05 ef       	ldi	r16, 0xF5	; 245
    5d7e:	10 e0       	ldi	r17, 0x00	; 0
    5d80:	2d ec       	ldi	r18, 0xCD	; 205
    5d82:	30 e0       	ldi	r19, 0x00	; 0
    5d84:	4f ee       	ldi	r20, 0xEF	; 239
    5d86:	50 e0       	ldi	r21, 0x00	; 0
    5d88:	6d ed       	ldi	r22, 0xDD	; 221
    5d8a:	70 e0       	ldi	r23, 0x00	; 0
    5d8c:	8f ee       	ldi	r24, 0xEF	; 239
    5d8e:	90 e0       	ldi	r25, 0x00	; 0
    5d90:	0e 94 38 1c 	call	0x3870	; 0x3870 <ILI9486_fillTriangle>
    5d94:	11 c1       	rjmp	.+546    	; 0x5fb8 <DrawWeatherVane+0x73e>
    5d96:	6f e1       	ldi	r22, 0x1F	; 31
    5d98:	72 e0       	ldi	r23, 0x02	; 2
    5d9a:	89 ee       	ldi	r24, 0xE9	; 233
    5d9c:	92 e0       	ldi	r25, 0x02	; 2
    5d9e:	0e 94 6e 32 	call	0x64dc	; 0x64dc <strcmp>
    5da2:	89 2b       	or	r24, r25
    5da4:	39 f5       	brne	.+78     	; 0x5df4 <DrawWeatherVane+0x57a>
    5da6:	0f 2e       	mov	r0, r31
    5da8:	f0 ee       	ldi	r31, 0xE0	; 224
    5daa:	cf 2e       	mov	r12, r31
    5dac:	ff e1       	ldi	r31, 0x1F	; 31
    5dae:	df 2e       	mov	r13, r31
    5db0:	f0 2d       	mov	r31, r0
    5db2:	0f 2e       	mov	r0, r31
    5db4:	f9 e9       	ldi	r31, 0x99	; 153
    5db6:	ef 2e       	mov	r14, r31
    5db8:	f1 2c       	mov	r15, r1
    5dba:	f0 2d       	mov	r31, r0
    5dbc:	03 e1       	ldi	r16, 0x13	; 19
    5dbe:	11 e0       	ldi	r17, 0x01	; 1
    5dc0:	2f e9       	ldi	r18, 0x9F	; 159
    5dc2:	30 e0       	ldi	r19, 0x00	; 0
    5dc4:	4c e1       	ldi	r20, 0x1C	; 28
    5dc6:	51 e0       	ldi	r21, 0x01	; 1
    5dc8:	6f e9       	ldi	r22, 0x9F	; 159
    5dca:	70 e0       	ldi	r23, 0x00	; 0
    5dcc:	8c e2       	ldi	r24, 0x2C	; 44
    5dce:	91 e0       	ldi	r25, 0x01	; 1
    5dd0:	0e 94 38 1c 	call	0x3870	; 0x3870 <ILI9486_fillTriangle>
    5dd4:	0f 2e       	mov	r0, r31
    5dd6:	f5 ea       	ldi	r31, 0xA5	; 165
    5dd8:	ef 2e       	mov	r14, r31
    5dda:	f1 2c       	mov	r15, r1
    5ddc:	f0 2d       	mov	r31, r0
    5dde:	2f e9       	ldi	r18, 0x9F	; 159
    5de0:	30 e0       	ldi	r19, 0x00	; 0
    5de2:	4c e1       	ldi	r20, 0x1C	; 28
    5de4:	51 e0       	ldi	r21, 0x01	; 1
    5de6:	6f e9       	ldi	r22, 0x9F	; 159
    5de8:	70 e0       	ldi	r23, 0x00	; 0
    5dea:	8c e2       	ldi	r24, 0x2C	; 44
    5dec:	91 e0       	ldi	r25, 0x01	; 1
    5dee:	0e 94 38 1c 	call	0x3870	; 0x3870 <ILI9486_fillTriangle>
    5df2:	e2 c0       	rjmp	.+452    	; 0x5fb8 <DrawWeatherVane+0x73e>
    5df4:	63 e2       	ldi	r22, 0x23	; 35
    5df6:	72 e0       	ldi	r23, 0x02	; 2
    5df8:	89 ee       	ldi	r24, 0xE9	; 233
    5dfa:	92 e0       	ldi	r25, 0x02	; 2
    5dfc:	0e 94 6e 32 	call	0x64dc	; 0x64dc <strcmp>
    5e00:	89 2b       	or	r24, r25
    5e02:	39 f5       	brne	.+78     	; 0x5e52 <DrawWeatherVane+0x5d8>
    5e04:	0f 2e       	mov	r0, r31
    5e06:	f0 ee       	ldi	r31, 0xE0	; 224
    5e08:	cf 2e       	mov	r12, r31
    5e0a:	ff e1       	ldi	r31, 0x1F	; 31
    5e0c:	df 2e       	mov	r13, r31
    5e0e:	f0 2d       	mov	r31, r0
    5e10:	0f 2e       	mov	r0, r31
    5e12:	f9 e9       	ldi	r31, 0x99	; 153
    5e14:	ef 2e       	mov	r14, r31
    5e16:	f1 2c       	mov	r15, r1
    5e18:	f0 2d       	mov	r31, r0
    5e1a:	0c ec       	ldi	r16, 0xCC	; 204
    5e1c:	10 e0       	ldi	r17, 0x00	; 0
    5e1e:	2f e9       	ldi	r18, 0x9F	; 159
    5e20:	30 e0       	ldi	r19, 0x00	; 0
    5e22:	43 ec       	ldi	r20, 0xC3	; 195
    5e24:	50 e0       	ldi	r21, 0x00	; 0
    5e26:	6f e9       	ldi	r22, 0x9F	; 159
    5e28:	70 e0       	ldi	r23, 0x00	; 0
    5e2a:	83 eb       	ldi	r24, 0xB3	; 179
    5e2c:	90 e0       	ldi	r25, 0x00	; 0
    5e2e:	0e 94 38 1c 	call	0x3870	; 0x3870 <ILI9486_fillTriangle>
    5e32:	0f 2e       	mov	r0, r31
    5e34:	f5 ea       	ldi	r31, 0xA5	; 165
    5e36:	ef 2e       	mov	r14, r31
    5e38:	f1 2c       	mov	r15, r1
    5e3a:	f0 2d       	mov	r31, r0
    5e3c:	2f e9       	ldi	r18, 0x9F	; 159
    5e3e:	30 e0       	ldi	r19, 0x00	; 0
    5e40:	43 ec       	ldi	r20, 0xC3	; 195
    5e42:	50 e0       	ldi	r21, 0x00	; 0
    5e44:	6f e9       	ldi	r22, 0x9F	; 159
    5e46:	70 e0       	ldi	r23, 0x00	; 0
    5e48:	83 eb       	ldi	r24, 0xB3	; 179
    5e4a:	90 e0       	ldi	r25, 0x00	; 0
    5e4c:	0e 94 38 1c 	call	0x3870	; 0x3870 <ILI9486_fillTriangle>
    5e50:	b3 c0       	rjmp	.+358    	; 0x5fb8 <DrawWeatherVane+0x73e>
    5e52:	6d e1       	ldi	r22, 0x1D	; 29
    5e54:	72 e0       	ldi	r23, 0x02	; 2
    5e56:	89 ee       	ldi	r24, 0xE9	; 233
    5e58:	92 e0       	ldi	r25, 0x02	; 2
    5e5a:	0e 94 6e 32 	call	0x64dc	; 0x64dc <strcmp>
    5e5e:	89 2b       	or	r24, r25
    5e60:	09 f5       	brne	.+66     	; 0x5ea4 <DrawWeatherVane+0x62a>
    5e62:	0f 2e       	mov	r0, r31
    5e64:	f0 ee       	ldi	r31, 0xE0	; 224
    5e66:	cf 2e       	mov	r12, r31
    5e68:	ff e1       	ldi	r31, 0x1F	; 31
    5e6a:	df 2e       	mov	r13, r31
    5e6c:	f0 2d       	mov	r31, r0
    5e6e:	68 94       	set
    5e70:	ee 24       	eor	r14, r14
    5e72:	e7 f8       	bld	r14, 7
    5e74:	f1 2c       	mov	r15, r1
    5e76:	0e e0       	ldi	r16, 0x0E	; 14
    5e78:	11 e0       	ldi	r17, 0x01	; 1
    5e7a:	22 e8       	ldi	r18, 0x82	; 130
    5e7c:	30 e0       	ldi	r19, 0x00	; 0
    5e7e:	43 e0       	ldi	r20, 0x03	; 3
    5e80:	51 e0       	ldi	r21, 0x01	; 1
    5e82:	65 e7       	ldi	r22, 0x75	; 117
    5e84:	70 e0       	ldi	r23, 0x00	; 0
    5e86:	89 e1       	ldi	r24, 0x19	; 25
    5e88:	91 e0       	ldi	r25, 0x01	; 1
    5e8a:	0e 94 38 1c 	call	0x3870	; 0x3870 <ILI9486_fillTriangle>
    5e8e:	2b e8       	ldi	r18, 0x8B	; 139
    5e90:	30 e0       	ldi	r19, 0x00	; 0
    5e92:	4c e0       	ldi	r20, 0x0C	; 12
    5e94:	51 e0       	ldi	r21, 0x01	; 1
    5e96:	65 e7       	ldi	r22, 0x75	; 117
    5e98:	70 e0       	ldi	r23, 0x00	; 0
    5e9a:	89 e1       	ldi	r24, 0x19	; 25
    5e9c:	91 e0       	ldi	r25, 0x01	; 1
    5e9e:	0e 94 38 1c 	call	0x3870	; 0x3870 <ILI9486_fillTriangle>
    5ea2:	8a c0       	rjmp	.+276    	; 0x5fb8 <DrawWeatherVane+0x73e>
    5ea4:	61 e2       	ldi	r22, 0x21	; 33
    5ea6:	72 e0       	ldi	r23, 0x02	; 2
    5ea8:	89 ee       	ldi	r24, 0xE9	; 233
    5eaa:	92 e0       	ldi	r25, 0x02	; 2
    5eac:	0e 94 6e 32 	call	0x64dc	; 0x64dc <strcmp>
    5eb0:	89 2b       	or	r24, r25
    5eb2:	41 f5       	brne	.+80     	; 0x5f04 <DrawWeatherVane+0x68a>
    5eb4:	0f 2e       	mov	r0, r31
    5eb6:	f0 ee       	ldi	r31, 0xE0	; 224
    5eb8:	cf 2e       	mov	r12, r31
    5eba:	ff e1       	ldi	r31, 0x1F	; 31
    5ebc:	df 2e       	mov	r13, r31
    5ebe:	f0 2d       	mov	r31, r0
    5ec0:	68 94       	set
    5ec2:	ee 24       	eor	r14, r14
    5ec4:	e7 f8       	bld	r14, 7
    5ec6:	f1 2c       	mov	r15, r1
    5ec8:	00 ed       	ldi	r16, 0xD0	; 208
    5eca:	10 e0       	ldi	r17, 0x00	; 0
    5ecc:	2b e8       	ldi	r18, 0x8B	; 139
    5ece:	30 e0       	ldi	r19, 0x00	; 0
    5ed0:	42 ed       	ldi	r20, 0xD2	; 210
    5ed2:	50 e0       	ldi	r21, 0x00	; 0
    5ed4:	65 e7       	ldi	r22, 0x75	; 117
    5ed6:	70 e0       	ldi	r23, 0x00	; 0
    5ed8:	85 ec       	ldi	r24, 0xC5	; 197
    5eda:	90 e0       	ldi	r25, 0x00	; 0
    5edc:	0e 94 38 1c 	call	0x3870	; 0x3870 <ILI9486_fillTriangle>
    5ee0:	0f 2e       	mov	r0, r31
    5ee2:	f2 e8       	ldi	r31, 0x82	; 130
    5ee4:	ef 2e       	mov	r14, r31
    5ee6:	f1 2c       	mov	r15, r1
    5ee8:	f0 2d       	mov	r31, r0
    5eea:	0b ed       	ldi	r16, 0xDB	; 219
    5eec:	10 e0       	ldi	r17, 0x00	; 0
    5eee:	20 e8       	ldi	r18, 0x80	; 128
    5ef0:	30 e0       	ldi	r19, 0x00	; 0
    5ef2:	40 ed       	ldi	r20, 0xD0	; 208
    5ef4:	50 e0       	ldi	r21, 0x00	; 0
    5ef6:	65 e7       	ldi	r22, 0x75	; 117
    5ef8:	70 e0       	ldi	r23, 0x00	; 0
    5efa:	85 ec       	ldi	r24, 0xC5	; 197
    5efc:	90 e0       	ldi	r25, 0x00	; 0
    5efe:	0e 94 38 1c 	call	0x3870	; 0x3870 <ILI9486_fillTriangle>
    5f02:	5a c0       	rjmp	.+180    	; 0x5fb8 <DrawWeatherVane+0x73e>
    5f04:	65 e2       	ldi	r22, 0x25	; 37
    5f06:	72 e0       	ldi	r23, 0x02	; 2
    5f08:	89 ee       	ldi	r24, 0xE9	; 233
    5f0a:	92 e0       	ldi	r25, 0x02	; 2
    5f0c:	0e 94 6e 32 	call	0x64dc	; 0x64dc <strcmp>
    5f10:	89 2b       	or	r24, r25
    5f12:	49 f5       	brne	.+82     	; 0x5f66 <DrawWeatherVane+0x6ec>
    5f14:	0f 2e       	mov	r0, r31
    5f16:	f0 ee       	ldi	r31, 0xE0	; 224
    5f18:	cf 2e       	mov	r12, r31
    5f1a:	ff e1       	ldi	r31, 0x1F	; 31
    5f1c:	df 2e       	mov	r13, r31
    5f1e:	f0 2d       	mov	r31, r0
    5f20:	0f 2e       	mov	r0, r31
    5f22:	fe eb       	ldi	r31, 0xBE	; 190
    5f24:	ef 2e       	mov	r14, r31
    5f26:	f1 2c       	mov	r15, r1
    5f28:	f0 2d       	mov	r31, r0
    5f2a:	0e e0       	ldi	r16, 0x0E	; 14
    5f2c:	11 e0       	ldi	r17, 0x01	; 1
    5f2e:	2c eb       	ldi	r18, 0xBC	; 188
    5f30:	30 e0       	ldi	r19, 0x00	; 0
    5f32:	43 e0       	ldi	r20, 0x03	; 3
    5f34:	51 e0       	ldi	r21, 0x01	; 1
    5f36:	69 ec       	ldi	r22, 0xC9	; 201
    5f38:	70 e0       	ldi	r23, 0x00	; 0
    5f3a:	89 e1       	ldi	r24, 0x19	; 25
    5f3c:	91 e0       	ldi	r25, 0x01	; 1
    5f3e:	0e 94 38 1c 	call	0x3870	; 0x3870 <ILI9486_fillTriangle>
    5f42:	0f 2e       	mov	r0, r31
    5f44:	f3 eb       	ldi	r31, 0xB3	; 179
    5f46:	ef 2e       	mov	r14, r31
    5f48:	f1 2c       	mov	r15, r1
    5f4a:	f0 2d       	mov	r31, r0
    5f4c:	0c e0       	ldi	r16, 0x0C	; 12
    5f4e:	11 e0       	ldi	r17, 0x01	; 1
    5f50:	2e eb       	ldi	r18, 0xBE	; 190
    5f52:	30 e0       	ldi	r19, 0x00	; 0
    5f54:	4e e0       	ldi	r20, 0x0E	; 14
    5f56:	51 e0       	ldi	r21, 0x01	; 1
    5f58:	69 ec       	ldi	r22, 0xC9	; 201
    5f5a:	70 e0       	ldi	r23, 0x00	; 0
    5f5c:	89 e1       	ldi	r24, 0x19	; 25
    5f5e:	91 e0       	ldi	r25, 0x01	; 1
    5f60:	0e 94 38 1c 	call	0x3870	; 0x3870 <ILI9486_fillTriangle>
    5f64:	29 c0       	rjmp	.+82     	; 0x5fb8 <DrawWeatherVane+0x73e>
    5f66:	69 e2       	ldi	r22, 0x29	; 41
    5f68:	72 e0       	ldi	r23, 0x02	; 2
    5f6a:	89 ee       	ldi	r24, 0xE9	; 233
    5f6c:	92 e0       	ldi	r25, 0x02	; 2
    5f6e:	0e 94 6e 32 	call	0x64dc	; 0x64dc <strcmp>
    5f72:	89 2b       	or	r24, r25
    5f74:	09 f5       	brne	.+66     	; 0x5fb8 <DrawWeatherVane+0x73e>
    5f76:	0f 2e       	mov	r0, r31
    5f78:	f0 ee       	ldi	r31, 0xE0	; 224
    5f7a:	cf 2e       	mov	r12, r31
    5f7c:	ff e1       	ldi	r31, 0x1F	; 31
    5f7e:	df 2e       	mov	r13, r31
    5f80:	f0 2d       	mov	r31, r0
    5f82:	0f 2e       	mov	r0, r31
    5f84:	fe eb       	ldi	r31, 0xBE	; 190
    5f86:	ef 2e       	mov	r14, r31
    5f88:	f1 2c       	mov	r15, r1
    5f8a:	f0 2d       	mov	r31, r0
    5f8c:	00 ed       	ldi	r16, 0xD0	; 208
    5f8e:	10 e0       	ldi	r17, 0x00	; 0
    5f90:	2c eb       	ldi	r18, 0xBC	; 188
    5f92:	30 e0       	ldi	r19, 0x00	; 0
    5f94:	4b ed       	ldi	r20, 0xDB	; 219
    5f96:	50 e0       	ldi	r21, 0x00	; 0
    5f98:	69 ec       	ldi	r22, 0xC9	; 201
    5f9a:	70 e0       	ldi	r23, 0x00	; 0
    5f9c:	85 ec       	ldi	r24, 0xC5	; 197
    5f9e:	90 e0       	ldi	r25, 0x00	; 0
    5fa0:	0e 94 38 1c 	call	0x3870	; 0x3870 <ILI9486_fillTriangle>
    5fa4:	23 eb       	ldi	r18, 0xB3	; 179
    5fa6:	30 e0       	ldi	r19, 0x00	; 0
    5fa8:	42 ed       	ldi	r20, 0xD2	; 210
    5faa:	50 e0       	ldi	r21, 0x00	; 0
    5fac:	69 ec       	ldi	r22, 0xC9	; 201
    5fae:	70 e0       	ldi	r23, 0x00	; 0
    5fb0:	85 ec       	ldi	r24, 0xC5	; 197
    5fb2:	90 e0       	ldi	r25, 0x00	; 0
    5fb4:	0e 94 38 1c 	call	0x3870	; 0x3870 <ILI9486_fillTriangle>
    5fb8:	1f 91       	pop	r17
    5fba:	0f 91       	pop	r16
    5fbc:	ff 90       	pop	r15
    5fbe:	ef 90       	pop	r14
    5fc0:	df 90       	pop	r13
    5fc2:	cf 90       	pop	r12
    5fc4:	08 95       	ret

00005fc6 <Print_Home_Page>:
    5fc6:	0f 93       	push	r16
    5fc8:	1f 93       	push	r17
    5fca:	cf 93       	push	r28
    5fcc:	df 93       	push	r29
    5fce:	cd b7       	in	r28, 0x3d	; 61
    5fd0:	de b7       	in	r29, 0x3e	; 62
    5fd2:	2a 97       	sbiw	r28, 0x0a	; 10
    5fd4:	0f b6       	in	r0, 0x3f	; 63
    5fd6:	f8 94       	cli
    5fd8:	de bf       	out	0x3e, r29	; 62
    5fda:	0f be       	out	0x3f, r0	; 63
    5fdc:	cd bf       	out	0x3d, r28	; 61
    5fde:	0e 94 3d 2c 	call	0x587a	; 0x587a <DrawWeatherVane>
    5fe2:	60 e0       	ldi	r22, 0x00	; 0
    5fe4:	70 e0       	ldi	r23, 0x00	; 0
    5fe6:	8f ef       	ldi	r24, 0xFF	; 255
    5fe8:	9f ef       	ldi	r25, 0xFF	; 255
    5fea:	0e 94 d0 1d 	call	0x3ba0	; 0x3ba0 <ILI9486_SetTextColor>
    5fee:	64 e1       	ldi	r22, 0x14	; 20
    5ff0:	70 e0       	ldi	r23, 0x00	; 0
    5ff2:	8a e0       	ldi	r24, 0x0A	; 10
    5ff4:	90 e0       	ldi	r25, 0x00	; 0
    5ff6:	0e 94 dd 1f 	call	0x3fba	; 0x3fba <ILI9486_SetCursor>
    5ffa:	60 e0       	ldi	r22, 0x00	; 0
    5ffc:	70 e0       	ldi	r23, 0x00	; 0
    5ffe:	82 ea       	ldi	r24, 0xA2	; 162
    6000:	9b ef       	ldi	r25, 0xFB	; 251
    6002:	0e 94 d0 1d 	call	0x3ba0	; 0x3ba0 <ILI9486_SetTextColor>
    6006:	80 91 0c 03 	lds	r24, 0x030C	; 0x80030c <home_temp_sign>
    600a:	88 23       	and	r24, r24
    600c:	09 f4       	brne	.+2      	; 0x6010 <Print_Home_Page+0x4a>
    600e:	70 c0       	rjmp	.+224    	; 0x60f0 <Print_Home_Page+0x12a>
    6010:	80 91 ef 02 	lds	r24, 0x02EF	; 0x8002ef <home_temp_integer>
    6014:	1f 92       	push	r1
    6016:	8f 93       	push	r24
    6018:	80 e3       	ldi	r24, 0x30	; 48
    601a:	92 e0       	ldi	r25, 0x02	; 2
    601c:	9f 93       	push	r25
    601e:	8f 93       	push	r24
    6020:	ce 01       	movw	r24, r28
    6022:	01 96       	adiw	r24, 0x01	; 1
    6024:	9f 93       	push	r25
    6026:	8f 93       	push	r24
    6028:	0e 94 77 32 	call	0x64ee	; 0x64ee <sprintf>
    602c:	80 91 ef 02 	lds	r24, 0x02EF	; 0x8002ef <home_temp_integer>
    6030:	0f 90       	pop	r0
    6032:	0f 90       	pop	r0
    6034:	0f 90       	pop	r0
    6036:	0f 90       	pop	r0
    6038:	0f 90       	pop	r0
    603a:	0f 90       	pop	r0
    603c:	8a 30       	cpi	r24, 0x0A	; 10
    603e:	b8 f4       	brcc	.+46     	; 0x606e <Print_Home_Page+0xa8>
    6040:	6a ef       	ldi	r22, 0xFA	; 250
    6042:	70 e0       	ldi	r23, 0x00	; 0
    6044:	83 e2       	ldi	r24, 0x23	; 35
    6046:	90 e0       	ldi	r25, 0x00	; 0
    6048:	0e 94 dd 1f 	call	0x3fba	; 0x3fba <ILI9486_SetCursor>
    604c:	61 e0       	ldi	r22, 0x01	; 1
    604e:	8a e6       	ldi	r24, 0x6A	; 106
    6050:	91 e0       	ldi	r25, 0x01	; 1
    6052:	0e 94 58 20 	call	0x40b0	; 0x40b0 <ILI9486_Print_String32x48>
    6056:	6a ef       	ldi	r22, 0xFA	; 250
    6058:	70 e0       	ldi	r23, 0x00	; 0
    605a:	81 e4       	ldi	r24, 0x41	; 65
    605c:	90 e0       	ldi	r25, 0x00	; 0
    605e:	0e 94 dd 1f 	call	0x3fba	; 0x3fba <ILI9486_SetCursor>
    6062:	61 e0       	ldi	r22, 0x01	; 1
    6064:	ce 01       	movw	r24, r28
    6066:	01 96       	adiw	r24, 0x01	; 1
    6068:	0e 94 58 20 	call	0x40b0	; 0x40b0 <ILI9486_Print_String32x48>
    606c:	16 c0       	rjmp	.+44     	; 0x609a <Print_Home_Page+0xd4>
    606e:	6a ef       	ldi	r22, 0xFA	; 250
    6070:	70 e0       	ldi	r23, 0x00	; 0
    6072:	83 e0       	ldi	r24, 0x03	; 3
    6074:	90 e0       	ldi	r25, 0x00	; 0
    6076:	0e 94 dd 1f 	call	0x3fba	; 0x3fba <ILI9486_SetCursor>
    607a:	61 e0       	ldi	r22, 0x01	; 1
    607c:	8a e6       	ldi	r24, 0x6A	; 106
    607e:	91 e0       	ldi	r25, 0x01	; 1
    6080:	0e 94 58 20 	call	0x40b0	; 0x40b0 <ILI9486_Print_String32x48>
    6084:	6a ef       	ldi	r22, 0xFA	; 250
    6086:	70 e0       	ldi	r23, 0x00	; 0
    6088:	8e e1       	ldi	r24, 0x1E	; 30
    608a:	90 e0       	ldi	r25, 0x00	; 0
    608c:	0e 94 dd 1f 	call	0x3fba	; 0x3fba <ILI9486_SetCursor>
    6090:	61 e0       	ldi	r22, 0x01	; 1
    6092:	ce 01       	movw	r24, r28
    6094:	01 96       	adiw	r24, 0x01	; 1
    6096:	0e 94 58 20 	call	0x40b0	; 0x40b0 <ILI9486_Print_String32x48>
    609a:	6a ef       	ldi	r22, 0xFA	; 250
    609c:	70 e0       	ldi	r23, 0x00	; 0
    609e:	87 e5       	ldi	r24, 0x57	; 87
    60a0:	90 e0       	ldi	r25, 0x00	; 0
    60a2:	0e 94 dd 1f 	call	0x3fba	; 0x3fba <ILI9486_SetCursor>
    60a6:	61 e0       	ldi	r22, 0x01	; 1
    60a8:	81 ee       	ldi	r24, 0xE1	; 225
    60aa:	90 e0       	ldi	r25, 0x00	; 0
    60ac:	0e 94 58 20 	call	0x40b0	; 0x40b0 <ILI9486_Print_String32x48>
    60b0:	80 91 e8 02 	lds	r24, 0x02E8	; 0x8002e8 <home_temp_fraction>
    60b4:	1f 92       	push	r1
    60b6:	8f 93       	push	r24
    60b8:	80 e3       	ldi	r24, 0x30	; 48
    60ba:	92 e0       	ldi	r25, 0x02	; 2
    60bc:	9f 93       	push	r25
    60be:	8f 93       	push	r24
    60c0:	8e 01       	movw	r16, r28
    60c2:	0f 5f       	subi	r16, 0xFF	; 255
    60c4:	1f 4f       	sbci	r17, 0xFF	; 255
    60c6:	1f 93       	push	r17
    60c8:	0f 93       	push	r16
    60ca:	0e 94 77 32 	call	0x64ee	; 0x64ee <sprintf>
    60ce:	6a ef       	ldi	r22, 0xFA	; 250
    60d0:	70 e0       	ldi	r23, 0x00	; 0
    60d2:	8e e6       	ldi	r24, 0x6E	; 110
    60d4:	90 e0       	ldi	r25, 0x00	; 0
    60d6:	0e 94 dd 1f 	call	0x3fba	; 0x3fba <ILI9486_SetCursor>
    60da:	61 e0       	ldi	r22, 0x01	; 1
    60dc:	c8 01       	movw	r24, r16
    60de:	0e 94 58 20 	call	0x40b0	; 0x40b0 <ILI9486_Print_String32x48>
    60e2:	0f 90       	pop	r0
    60e4:	0f 90       	pop	r0
    60e6:	0f 90       	pop	r0
    60e8:	0f 90       	pop	r0
    60ea:	0f 90       	pop	r0
    60ec:	0f 90       	pop	r0
    60ee:	59 c0       	rjmp	.+178    	; 0x61a2 <Print_Home_Page+0x1dc>
    60f0:	80 91 ef 02 	lds	r24, 0x02EF	; 0x8002ef <home_temp_integer>
    60f4:	1f 92       	push	r1
    60f6:	8f 93       	push	r24
    60f8:	80 e3       	ldi	r24, 0x30	; 48
    60fa:	92 e0       	ldi	r25, 0x02	; 2
    60fc:	9f 93       	push	r25
    60fe:	8f 93       	push	r24
    6100:	ce 01       	movw	r24, r28
    6102:	01 96       	adiw	r24, 0x01	; 1
    6104:	9f 93       	push	r25
    6106:	8f 93       	push	r24
    6108:	0e 94 77 32 	call	0x64ee	; 0x64ee <sprintf>
    610c:	80 91 ef 02 	lds	r24, 0x02EF	; 0x8002ef <home_temp_integer>
    6110:	0f 90       	pop	r0
    6112:	0f 90       	pop	r0
    6114:	0f 90       	pop	r0
    6116:	0f 90       	pop	r0
    6118:	0f 90       	pop	r0
    611a:	0f 90       	pop	r0
    611c:	8a 30       	cpi	r24, 0x0A	; 10
    611e:	60 f4       	brcc	.+24     	; 0x6138 <Print_Home_Page+0x172>
    6120:	6a ef       	ldi	r22, 0xFA	; 250
    6122:	70 e0       	ldi	r23, 0x00	; 0
    6124:	81 e4       	ldi	r24, 0x41	; 65
    6126:	90 e0       	ldi	r25, 0x00	; 0
    6128:	0e 94 dd 1f 	call	0x3fba	; 0x3fba <ILI9486_SetCursor>
    612c:	61 e0       	ldi	r22, 0x01	; 1
    612e:	ce 01       	movw	r24, r28
    6130:	01 96       	adiw	r24, 0x01	; 1
    6132:	0e 94 58 20 	call	0x40b0	; 0x40b0 <ILI9486_Print_String32x48>
    6136:	0b c0       	rjmp	.+22     	; 0x614e <Print_Home_Page+0x188>
    6138:	6a ef       	ldi	r22, 0xFA	; 250
    613a:	70 e0       	ldi	r23, 0x00	; 0
    613c:	8e e1       	ldi	r24, 0x1E	; 30
    613e:	90 e0       	ldi	r25, 0x00	; 0
    6140:	0e 94 dd 1f 	call	0x3fba	; 0x3fba <ILI9486_SetCursor>
    6144:	61 e0       	ldi	r22, 0x01	; 1
    6146:	ce 01       	movw	r24, r28
    6148:	01 96       	adiw	r24, 0x01	; 1
    614a:	0e 94 58 20 	call	0x40b0	; 0x40b0 <ILI9486_Print_String32x48>
    614e:	6a ef       	ldi	r22, 0xFA	; 250
    6150:	70 e0       	ldi	r23, 0x00	; 0
    6152:	87 e5       	ldi	r24, 0x57	; 87
    6154:	90 e0       	ldi	r25, 0x00	; 0
    6156:	0e 94 dd 1f 	call	0x3fba	; 0x3fba <ILI9486_SetCursor>
    615a:	61 e0       	ldi	r22, 0x01	; 1
    615c:	81 ee       	ldi	r24, 0xE1	; 225
    615e:	90 e0       	ldi	r25, 0x00	; 0
    6160:	0e 94 58 20 	call	0x40b0	; 0x40b0 <ILI9486_Print_String32x48>
    6164:	80 91 e8 02 	lds	r24, 0x02E8	; 0x8002e8 <home_temp_fraction>
    6168:	1f 92       	push	r1
    616a:	8f 93       	push	r24
    616c:	80 e3       	ldi	r24, 0x30	; 48
    616e:	92 e0       	ldi	r25, 0x02	; 2
    6170:	9f 93       	push	r25
    6172:	8f 93       	push	r24
    6174:	8e 01       	movw	r16, r28
    6176:	0f 5f       	subi	r16, 0xFF	; 255
    6178:	1f 4f       	sbci	r17, 0xFF	; 255
    617a:	1f 93       	push	r17
    617c:	0f 93       	push	r16
    617e:	0e 94 77 32 	call	0x64ee	; 0x64ee <sprintf>
    6182:	6a ef       	ldi	r22, 0xFA	; 250
    6184:	70 e0       	ldi	r23, 0x00	; 0
    6186:	8e e6       	ldi	r24, 0x6E	; 110
    6188:	90 e0       	ldi	r25, 0x00	; 0
    618a:	0e 94 dd 1f 	call	0x3fba	; 0x3fba <ILI9486_SetCursor>
    618e:	61 e0       	ldi	r22, 0x01	; 1
    6190:	c8 01       	movw	r24, r16
    6192:	0e 94 58 20 	call	0x40b0	; 0x40b0 <ILI9486_Print_String32x48>
    6196:	0f 90       	pop	r0
    6198:	0f 90       	pop	r0
    619a:	0f 90       	pop	r0
    619c:	0f 90       	pop	r0
    619e:	0f 90       	pop	r0
    61a0:	0f 90       	pop	r0
    61a2:	6c e0       	ldi	r22, 0x0C	; 12
    61a4:	71 e0       	ldi	r23, 0x01	; 1
    61a6:	8f e8       	ldi	r24, 0x8F	; 143
    61a8:	90 e0       	ldi	r25, 0x00	; 0
    61aa:	0e 94 dd 1f 	call	0x3fba	; 0x3fba <ILI9486_SetCursor>
    61ae:	61 e0       	ldi	r22, 0x01	; 1
    61b0:	8d e2       	ldi	r24, 0x2D	; 45
    61b2:	92 e0       	ldi	r25, 0x02	; 2
    61b4:	0e 94 e6 1f 	call	0x3fcc	; 0x3fcc <ILI9486_Print_String18x32>
    61b8:	60 e0       	ldi	r22, 0x00	; 0
    61ba:	70 e0       	ldi	r23, 0x00	; 0
    61bc:	80 ee       	ldi	r24, 0xE0	; 224
    61be:	9f ef       	ldi	r25, 0xFF	; 255
    61c0:	0e 94 d0 1d 	call	0x3ba0	; 0x3ba0 <ILI9486_SetTextColor>
    61c4:	80 91 0c 03 	lds	r24, 0x030C	; 0x80030c <home_temp_sign>
    61c8:	88 23       	and	r24, r24
    61ca:	09 f4       	brne	.+2      	; 0x61ce <Print_Home_Page+0x208>
    61cc:	70 c0       	rjmp	.+224    	; 0x62ae <Print_Home_Page+0x2e8>
    61ce:	80 91 ef 02 	lds	r24, 0x02EF	; 0x8002ef <home_temp_integer>
    61d2:	1f 92       	push	r1
    61d4:	8f 93       	push	r24
    61d6:	80 e3       	ldi	r24, 0x30	; 48
    61d8:	92 e0       	ldi	r25, 0x02	; 2
    61da:	9f 93       	push	r25
    61dc:	8f 93       	push	r24
    61de:	ce 01       	movw	r24, r28
    61e0:	01 96       	adiw	r24, 0x01	; 1
    61e2:	9f 93       	push	r25
    61e4:	8f 93       	push	r24
    61e6:	0e 94 77 32 	call	0x64ee	; 0x64ee <sprintf>
    61ea:	80 91 ef 02 	lds	r24, 0x02EF	; 0x8002ef <home_temp_integer>
    61ee:	0f 90       	pop	r0
    61f0:	0f 90       	pop	r0
    61f2:	0f 90       	pop	r0
    61f4:	0f 90       	pop	r0
    61f6:	0f 90       	pop	r0
    61f8:	0f 90       	pop	r0
    61fa:	8a 30       	cpi	r24, 0x0A	; 10
    61fc:	b8 f4       	brcc	.+46     	; 0x622c <Print_Home_Page+0x266>
    61fe:	6a ef       	ldi	r22, 0xFA	; 250
    6200:	70 e0       	ldi	r23, 0x00	; 0
    6202:	8d e5       	ldi	r24, 0x5D	; 93
    6204:	91 e0       	ldi	r25, 0x01	; 1
    6206:	0e 94 dd 1f 	call	0x3fba	; 0x3fba <ILI9486_SetCursor>
    620a:	61 e0       	ldi	r22, 0x01	; 1
    620c:	8a e6       	ldi	r24, 0x6A	; 106
    620e:	91 e0       	ldi	r25, 0x01	; 1
    6210:	0e 94 58 20 	call	0x40b0	; 0x40b0 <ILI9486_Print_String32x48>
    6214:	6a ef       	ldi	r22, 0xFA	; 250
    6216:	70 e0       	ldi	r23, 0x00	; 0
    6218:	8b e7       	ldi	r24, 0x7B	; 123
    621a:	91 e0       	ldi	r25, 0x01	; 1
    621c:	0e 94 dd 1f 	call	0x3fba	; 0x3fba <ILI9486_SetCursor>
    6220:	61 e0       	ldi	r22, 0x01	; 1
    6222:	ce 01       	movw	r24, r28
    6224:	01 96       	adiw	r24, 0x01	; 1
    6226:	0e 94 58 20 	call	0x40b0	; 0x40b0 <ILI9486_Print_String32x48>
    622a:	16 c0       	rjmp	.+44     	; 0x6258 <Print_Home_Page+0x292>
    622c:	6a ef       	ldi	r22, 0xFA	; 250
    622e:	70 e0       	ldi	r23, 0x00	; 0
    6230:	8d e3       	ldi	r24, 0x3D	; 61
    6232:	91 e0       	ldi	r25, 0x01	; 1
    6234:	0e 94 dd 1f 	call	0x3fba	; 0x3fba <ILI9486_SetCursor>
    6238:	61 e0       	ldi	r22, 0x01	; 1
    623a:	8a e6       	ldi	r24, 0x6A	; 106
    623c:	91 e0       	ldi	r25, 0x01	; 1
    623e:	0e 94 58 20 	call	0x40b0	; 0x40b0 <ILI9486_Print_String32x48>
    6242:	6a ef       	ldi	r22, 0xFA	; 250
    6244:	70 e0       	ldi	r23, 0x00	; 0
    6246:	88 e5       	ldi	r24, 0x58	; 88
    6248:	91 e0       	ldi	r25, 0x01	; 1
    624a:	0e 94 dd 1f 	call	0x3fba	; 0x3fba <ILI9486_SetCursor>
    624e:	61 e0       	ldi	r22, 0x01	; 1
    6250:	ce 01       	movw	r24, r28
    6252:	01 96       	adiw	r24, 0x01	; 1
    6254:	0e 94 58 20 	call	0x40b0	; 0x40b0 <ILI9486_Print_String32x48>
    6258:	6a ef       	ldi	r22, 0xFA	; 250
    625a:	70 e0       	ldi	r23, 0x00	; 0
    625c:	81 e9       	ldi	r24, 0x91	; 145
    625e:	91 e0       	ldi	r25, 0x01	; 1
    6260:	0e 94 dd 1f 	call	0x3fba	; 0x3fba <ILI9486_SetCursor>
    6264:	61 e0       	ldi	r22, 0x01	; 1
    6266:	81 ee       	ldi	r24, 0xE1	; 225
    6268:	90 e0       	ldi	r25, 0x00	; 0
    626a:	0e 94 58 20 	call	0x40b0	; 0x40b0 <ILI9486_Print_String32x48>
    626e:	80 91 e8 02 	lds	r24, 0x02E8	; 0x8002e8 <home_temp_fraction>
    6272:	1f 92       	push	r1
    6274:	8f 93       	push	r24
    6276:	80 e3       	ldi	r24, 0x30	; 48
    6278:	92 e0       	ldi	r25, 0x02	; 2
    627a:	9f 93       	push	r25
    627c:	8f 93       	push	r24
    627e:	8e 01       	movw	r16, r28
    6280:	0f 5f       	subi	r16, 0xFF	; 255
    6282:	1f 4f       	sbci	r17, 0xFF	; 255
    6284:	1f 93       	push	r17
    6286:	0f 93       	push	r16
    6288:	0e 94 77 32 	call	0x64ee	; 0x64ee <sprintf>
    628c:	6a ef       	ldi	r22, 0xFA	; 250
    628e:	70 e0       	ldi	r23, 0x00	; 0
    6290:	88 ea       	ldi	r24, 0xA8	; 168
    6292:	91 e0       	ldi	r25, 0x01	; 1
    6294:	0e 94 dd 1f 	call	0x3fba	; 0x3fba <ILI9486_SetCursor>
    6298:	61 e0       	ldi	r22, 0x01	; 1
    629a:	c8 01       	movw	r24, r16
    629c:	0e 94 58 20 	call	0x40b0	; 0x40b0 <ILI9486_Print_String32x48>
    62a0:	0f 90       	pop	r0
    62a2:	0f 90       	pop	r0
    62a4:	0f 90       	pop	r0
    62a6:	0f 90       	pop	r0
    62a8:	0f 90       	pop	r0
    62aa:	0f 90       	pop	r0
    62ac:	59 c0       	rjmp	.+178    	; 0x6360 <Print_Home_Page+0x39a>
    62ae:	80 91 ef 02 	lds	r24, 0x02EF	; 0x8002ef <home_temp_integer>
    62b2:	1f 92       	push	r1
    62b4:	8f 93       	push	r24
    62b6:	80 e3       	ldi	r24, 0x30	; 48
    62b8:	92 e0       	ldi	r25, 0x02	; 2
    62ba:	9f 93       	push	r25
    62bc:	8f 93       	push	r24
    62be:	ce 01       	movw	r24, r28
    62c0:	01 96       	adiw	r24, 0x01	; 1
    62c2:	9f 93       	push	r25
    62c4:	8f 93       	push	r24
    62c6:	0e 94 77 32 	call	0x64ee	; 0x64ee <sprintf>
    62ca:	80 91 ef 02 	lds	r24, 0x02EF	; 0x8002ef <home_temp_integer>
    62ce:	0f 90       	pop	r0
    62d0:	0f 90       	pop	r0
    62d2:	0f 90       	pop	r0
    62d4:	0f 90       	pop	r0
    62d6:	0f 90       	pop	r0
    62d8:	0f 90       	pop	r0
    62da:	8a 30       	cpi	r24, 0x0A	; 10
    62dc:	60 f4       	brcc	.+24     	; 0x62f6 <Print_Home_Page+0x330>
    62de:	6a ef       	ldi	r22, 0xFA	; 250
    62e0:	70 e0       	ldi	r23, 0x00	; 0
    62e2:	8b e7       	ldi	r24, 0x7B	; 123
    62e4:	91 e0       	ldi	r25, 0x01	; 1
    62e6:	0e 94 dd 1f 	call	0x3fba	; 0x3fba <ILI9486_SetCursor>
    62ea:	61 e0       	ldi	r22, 0x01	; 1
    62ec:	ce 01       	movw	r24, r28
    62ee:	01 96       	adiw	r24, 0x01	; 1
    62f0:	0e 94 58 20 	call	0x40b0	; 0x40b0 <ILI9486_Print_String32x48>
    62f4:	0b c0       	rjmp	.+22     	; 0x630c <Print_Home_Page+0x346>
    62f6:	6a ef       	ldi	r22, 0xFA	; 250
    62f8:	70 e0       	ldi	r23, 0x00	; 0
    62fa:	88 e5       	ldi	r24, 0x58	; 88
    62fc:	91 e0       	ldi	r25, 0x01	; 1
    62fe:	0e 94 dd 1f 	call	0x3fba	; 0x3fba <ILI9486_SetCursor>
    6302:	61 e0       	ldi	r22, 0x01	; 1
    6304:	ce 01       	movw	r24, r28
    6306:	01 96       	adiw	r24, 0x01	; 1
    6308:	0e 94 58 20 	call	0x40b0	; 0x40b0 <ILI9486_Print_String32x48>
    630c:	6a ef       	ldi	r22, 0xFA	; 250
    630e:	70 e0       	ldi	r23, 0x00	; 0
    6310:	81 e9       	ldi	r24, 0x91	; 145
    6312:	91 e0       	ldi	r25, 0x01	; 1
    6314:	0e 94 dd 1f 	call	0x3fba	; 0x3fba <ILI9486_SetCursor>
    6318:	61 e0       	ldi	r22, 0x01	; 1
    631a:	81 ee       	ldi	r24, 0xE1	; 225
    631c:	90 e0       	ldi	r25, 0x00	; 0
    631e:	0e 94 58 20 	call	0x40b0	; 0x40b0 <ILI9486_Print_String32x48>
    6322:	80 91 e8 02 	lds	r24, 0x02E8	; 0x8002e8 <home_temp_fraction>
    6326:	1f 92       	push	r1
    6328:	8f 93       	push	r24
    632a:	80 e3       	ldi	r24, 0x30	; 48
    632c:	92 e0       	ldi	r25, 0x02	; 2
    632e:	9f 93       	push	r25
    6330:	8f 93       	push	r24
    6332:	8e 01       	movw	r16, r28
    6334:	0f 5f       	subi	r16, 0xFF	; 255
    6336:	1f 4f       	sbci	r17, 0xFF	; 255
    6338:	1f 93       	push	r17
    633a:	0f 93       	push	r16
    633c:	0e 94 77 32 	call	0x64ee	; 0x64ee <sprintf>
    6340:	6a ef       	ldi	r22, 0xFA	; 250
    6342:	70 e0       	ldi	r23, 0x00	; 0
    6344:	88 ea       	ldi	r24, 0xA8	; 168
    6346:	91 e0       	ldi	r25, 0x01	; 1
    6348:	0e 94 dd 1f 	call	0x3fba	; 0x3fba <ILI9486_SetCursor>
    634c:	61 e0       	ldi	r22, 0x01	; 1
    634e:	c8 01       	movw	r24, r16
    6350:	0e 94 58 20 	call	0x40b0	; 0x40b0 <ILI9486_Print_String32x48>
    6354:	0f 90       	pop	r0
    6356:	0f 90       	pop	r0
    6358:	0f 90       	pop	r0
    635a:	0f 90       	pop	r0
    635c:	0f 90       	pop	r0
    635e:	0f 90       	pop	r0
    6360:	6c e0       	ldi	r22, 0x0C	; 12
    6362:	71 e0       	ldi	r23, 0x01	; 1
    6364:	89 ec       	ldi	r24, 0xC9	; 201
    6366:	91 e0       	ldi	r25, 0x01	; 1
    6368:	0e 94 dd 1f 	call	0x3fba	; 0x3fba <ILI9486_SetCursor>
    636c:	61 e0       	ldi	r22, 0x01	; 1
    636e:	8d e2       	ldi	r24, 0x2D	; 45
    6370:	92 e0       	ldi	r25, 0x02	; 2
    6372:	0e 94 e6 1f 	call	0x3fcc	; 0x3fcc <ILI9486_Print_String18x32>
    6376:	2a 96       	adiw	r28, 0x0a	; 10
    6378:	0f b6       	in	r0, 0x3f	; 63
    637a:	f8 94       	cli
    637c:	de bf       	out	0x3e, r29	; 62
    637e:	0f be       	out	0x3f, r0	; 63
    6380:	cd bf       	out	0x3d, r28	; 61
    6382:	df 91       	pop	r29
    6384:	cf 91       	pop	r28
    6386:	1f 91       	pop	r17
    6388:	0f 91       	pop	r16
    638a:	08 95       	ret

0000638c <sprintf_HOME_Weath_Param>:
void sprintf_HOME_Weath_Param(void)
{
	wdt_reset();
    638c:	a8 95       	wdr
	sprintf(hum_home,"%d",home_hum);
	pressure_home = BMP180_calculation()*0.0075;
	sprintf(Press_home,"%d",pressure_home);*/
	
	int tt=0; //переменна¤ дл¤ хранени¤ температуры в сыром виде
	tt = dt_check(); //измер¤ем температуру
    638e:	0e 94 5d 15 	call	0x2aba	; 0x2aba <dt_check>

	home_temp_sign = tt>>11;//вычисление знака температуры
    6392:	29 2f       	mov	r18, r25
    6394:	25 95       	asr	r18
    6396:	25 95       	asr	r18
    6398:	25 95       	asr	r18
    639a:	20 93 0c 03 	sts	0x030C, r18	; 0x80030c <home_temp_sign>
	if (home_temp_sign == 0x00)
    639e:	21 11       	cpse	r18, r1
    63a0:	18 c0       	rjmp	.+48     	; 0x63d2 <sprintf_HOME_Weath_Param+0x46>
	{
		home_temp_fraction = tt & 0xF;
    63a2:	28 2f       	mov	r18, r24
    63a4:	2f 70       	andi	r18, 0x0F	; 15
		home_temp_fraction = (home_temp_fraction<<1) + (home_temp_fraction<<3);// ”множаем на 10
    63a6:	32 2f       	mov	r19, r18
    63a8:	33 0f       	add	r19, r19
    63aa:	22 0f       	add	r18, r18
    63ac:	22 0f       	add	r18, r18
    63ae:	22 0f       	add	r18, r18
    63b0:	23 0f       	add	r18, r19
		home_temp_fraction = (home_temp_fraction>>4);//делим на 16 или умножаем на 0.0625
    63b2:	22 95       	swap	r18
    63b4:	2f 70       	andi	r18, 0x0F	; 15
    63b6:	20 93 e8 02 	sts	0x02E8, r18	; 0x8002e8 <home_temp_fraction>
		home_temp_integer = (tt&0x07FF)>>4;
    63ba:	97 70       	andi	r25, 0x07	; 7
    63bc:	95 95       	asr	r25
    63be:	87 95       	ror	r24
    63c0:	95 95       	asr	r25
    63c2:	87 95       	ror	r24
    63c4:	95 95       	asr	r25
    63c6:	87 95       	ror	r24
    63c8:	95 95       	asr	r25
    63ca:	87 95       	ror	r24
    63cc:	80 93 ef 02 	sts	0x02EF, r24	; 0x8002ef <home_temp_integer>
    63d0:	1a c0       	rjmp	.+52     	; 0x6406 <sprintf_HOME_Weath_Param+0x7a>
		//sprintf(data,"%d,%d\r",buf[1],buf[0]);
	}
	else
	{
		home_temp_fraction = ((~tt) & 0xF);
    63d2:	28 2f       	mov	r18, r24
    63d4:	20 95       	com	r18
    63d6:	2f 70       	andi	r18, 0x0F	; 15
		home_temp_fraction = (home_temp_fraction<<1) + (home_temp_fraction<<3);// ”множаем на 10
    63d8:	32 2f       	mov	r19, r18
    63da:	33 0f       	add	r19, r19
    63dc:	22 0f       	add	r18, r18
    63de:	22 0f       	add	r18, r18
    63e0:	22 0f       	add	r18, r18
    63e2:	23 0f       	add	r18, r19
		home_temp_fraction = (home_temp_fraction>>4);//делим на 16 или умножаем на 0.0625
    63e4:	22 95       	swap	r18
    63e6:	2f 70       	andi	r18, 0x0F	; 15
    63e8:	20 93 e8 02 	sts	0x02E8, r18	; 0x8002e8 <home_temp_fraction>
		home_temp_integer = ((~(tt))&0x07FF)>>4;
    63ec:	80 95       	com	r24
    63ee:	90 95       	com	r25
    63f0:	97 70       	andi	r25, 0x07	; 7
    63f2:	95 95       	asr	r25
    63f4:	87 95       	ror	r24
    63f6:	95 95       	asr	r25
    63f8:	87 95       	ror	r24
    63fa:	95 95       	asr	r25
    63fc:	87 95       	ror	r24
    63fe:	95 95       	asr	r25
    6400:	87 95       	ror	r24
    6402:	80 93 ef 02 	sts	0x02EF, r24	; 0x8002ef <home_temp_integer>
		//sprintf(data,"-%d,%d\r",buf[1],buf[0]);
	}
	wdt_reset();
    6406:	a8 95       	wdr
    6408:	08 95       	ret

0000640a <__udivmodsi4>:
    640a:	a1 e2       	ldi	r26, 0x21	; 33
    640c:	1a 2e       	mov	r1, r26
    640e:	aa 1b       	sub	r26, r26
    6410:	bb 1b       	sub	r27, r27
    6412:	fd 01       	movw	r30, r26
    6414:	0d c0       	rjmp	.+26     	; 0x6430 <__udivmodsi4_ep>

00006416 <__udivmodsi4_loop>:
    6416:	aa 1f       	adc	r26, r26
    6418:	bb 1f       	adc	r27, r27
    641a:	ee 1f       	adc	r30, r30
    641c:	ff 1f       	adc	r31, r31
    641e:	a2 17       	cp	r26, r18
    6420:	b3 07       	cpc	r27, r19
    6422:	e4 07       	cpc	r30, r20
    6424:	f5 07       	cpc	r31, r21
    6426:	20 f0       	brcs	.+8      	; 0x6430 <__udivmodsi4_ep>
    6428:	a2 1b       	sub	r26, r18
    642a:	b3 0b       	sbc	r27, r19
    642c:	e4 0b       	sbc	r30, r20
    642e:	f5 0b       	sbc	r31, r21

00006430 <__udivmodsi4_ep>:
    6430:	66 1f       	adc	r22, r22
    6432:	77 1f       	adc	r23, r23
    6434:	88 1f       	adc	r24, r24
    6436:	99 1f       	adc	r25, r25
    6438:	1a 94       	dec	r1
    643a:	69 f7       	brne	.-38     	; 0x6416 <__udivmodsi4_loop>
    643c:	60 95       	com	r22
    643e:	70 95       	com	r23
    6440:	80 95       	com	r24
    6442:	90 95       	com	r25
    6444:	9b 01       	movw	r18, r22
    6446:	ac 01       	movw	r20, r24
    6448:	bd 01       	movw	r22, r26
    644a:	cf 01       	movw	r24, r30
    644c:	08 95       	ret

0000644e <__divmodsi4>:
    644e:	05 2e       	mov	r0, r21
    6450:	97 fb       	bst	r25, 7
    6452:	1e f4       	brtc	.+6      	; 0x645a <__divmodsi4+0xc>
    6454:	00 94       	com	r0
    6456:	0e 94 3e 32 	call	0x647c	; 0x647c <__negsi2>
    645a:	57 fd       	sbrc	r21, 7
    645c:	07 d0       	rcall	.+14     	; 0x646c <__divmodsi4_neg2>
    645e:	0e 94 05 32 	call	0x640a	; 0x640a <__udivmodsi4>
    6462:	07 fc       	sbrc	r0, 7
    6464:	03 d0       	rcall	.+6      	; 0x646c <__divmodsi4_neg2>
    6466:	4e f4       	brtc	.+18     	; 0x647a <__divmodsi4_exit>
    6468:	0c 94 3e 32 	jmp	0x647c	; 0x647c <__negsi2>

0000646c <__divmodsi4_neg2>:
    646c:	50 95       	com	r21
    646e:	40 95       	com	r20
    6470:	30 95       	com	r19
    6472:	21 95       	neg	r18
    6474:	3f 4f       	sbci	r19, 0xFF	; 255
    6476:	4f 4f       	sbci	r20, 0xFF	; 255
    6478:	5f 4f       	sbci	r21, 0xFF	; 255

0000647a <__divmodsi4_exit>:
    647a:	08 95       	ret

0000647c <__negsi2>:
    647c:	90 95       	com	r25
    647e:	80 95       	com	r24
    6480:	70 95       	com	r23
    6482:	61 95       	neg	r22
    6484:	7f 4f       	sbci	r23, 0xFF	; 255
    6486:	8f 4f       	sbci	r24, 0xFF	; 255
    6488:	9f 4f       	sbci	r25, 0xFF	; 255
    648a:	08 95       	ret

0000648c <__tablejump2__>:
    648c:	ee 0f       	add	r30, r30
    648e:	ff 1f       	adc	r31, r31
    6490:	05 90       	lpm	r0, Z+
    6492:	f4 91       	lpm	r31, Z
    6494:	e0 2d       	mov	r30, r0
    6496:	09 94       	ijmp

00006498 <__muluhisi3>:
    6498:	0e 94 5f 32 	call	0x64be	; 0x64be <__umulhisi3>
    649c:	a5 9f       	mul	r26, r21
    649e:	90 0d       	add	r25, r0
    64a0:	b4 9f       	mul	r27, r20
    64a2:	90 0d       	add	r25, r0
    64a4:	a4 9f       	mul	r26, r20
    64a6:	80 0d       	add	r24, r0
    64a8:	91 1d       	adc	r25, r1
    64aa:	11 24       	eor	r1, r1
    64ac:	08 95       	ret

000064ae <__mulshisi3>:
    64ae:	b7 ff       	sbrs	r27, 7
    64b0:	0c 94 4c 32 	jmp	0x6498	; 0x6498 <__muluhisi3>

000064b4 <__mulohisi3>:
    64b4:	0e 94 4c 32 	call	0x6498	; 0x6498 <__muluhisi3>
    64b8:	82 1b       	sub	r24, r18
    64ba:	93 0b       	sbc	r25, r19
    64bc:	08 95       	ret

000064be <__umulhisi3>:
    64be:	a2 9f       	mul	r26, r18
    64c0:	b0 01       	movw	r22, r0
    64c2:	b3 9f       	mul	r27, r19
    64c4:	c0 01       	movw	r24, r0
    64c6:	a3 9f       	mul	r26, r19
    64c8:	70 0d       	add	r23, r0
    64ca:	81 1d       	adc	r24, r1
    64cc:	11 24       	eor	r1, r1
    64ce:	91 1d       	adc	r25, r1
    64d0:	b2 9f       	mul	r27, r18
    64d2:	70 0d       	add	r23, r0
    64d4:	81 1d       	adc	r24, r1
    64d6:	11 24       	eor	r1, r1
    64d8:	91 1d       	adc	r25, r1
    64da:	08 95       	ret

000064dc <strcmp>:
    64dc:	fb 01       	movw	r30, r22
    64de:	dc 01       	movw	r26, r24
    64e0:	8d 91       	ld	r24, X+
    64e2:	01 90       	ld	r0, Z+
    64e4:	80 19       	sub	r24, r0
    64e6:	01 10       	cpse	r0, r1
    64e8:	d9 f3       	breq	.-10     	; 0x64e0 <strcmp+0x4>
    64ea:	99 0b       	sbc	r25, r25
    64ec:	08 95       	ret

000064ee <sprintf>:
    64ee:	ae e0       	ldi	r26, 0x0E	; 14
    64f0:	b0 e0       	ldi	r27, 0x00	; 0
    64f2:	ed e7       	ldi	r30, 0x7D	; 125
    64f4:	f2 e3       	ldi	r31, 0x32	; 50
    64f6:	0c 94 38 35 	jmp	0x6a70	; 0x6a70 <__prologue_saves__+0x1c>
    64fa:	0d 89       	ldd	r16, Y+21	; 0x15
    64fc:	1e 89       	ldd	r17, Y+22	; 0x16
    64fe:	86 e0       	ldi	r24, 0x06	; 6
    6500:	8c 83       	std	Y+4, r24	; 0x04
    6502:	1a 83       	std	Y+2, r17	; 0x02
    6504:	09 83       	std	Y+1, r16	; 0x01
    6506:	8f ef       	ldi	r24, 0xFF	; 255
    6508:	9f e7       	ldi	r25, 0x7F	; 127
    650a:	9e 83       	std	Y+6, r25	; 0x06
    650c:	8d 83       	std	Y+5, r24	; 0x05
    650e:	ae 01       	movw	r20, r28
    6510:	47 5e       	subi	r20, 0xE7	; 231
    6512:	5f 4f       	sbci	r21, 0xFF	; 255
    6514:	6f 89       	ldd	r22, Y+23	; 0x17
    6516:	78 8d       	ldd	r23, Y+24	; 0x18
    6518:	ce 01       	movw	r24, r28
    651a:	01 96       	adiw	r24, 0x01	; 1
    651c:	0e 94 99 32 	call	0x6532	; 0x6532 <vfprintf>
    6520:	ef 81       	ldd	r30, Y+7	; 0x07
    6522:	f8 85       	ldd	r31, Y+8	; 0x08
    6524:	e0 0f       	add	r30, r16
    6526:	f1 1f       	adc	r31, r17
    6528:	10 82       	st	Z, r1
    652a:	2e 96       	adiw	r28, 0x0e	; 14
    652c:	e4 e0       	ldi	r30, 0x04	; 4
    652e:	0c 94 54 35 	jmp	0x6aa8	; 0x6aa8 <__epilogue_restores__+0x1c>

00006532 <vfprintf>:
    6532:	ab e0       	ldi	r26, 0x0B	; 11
    6534:	b0 e0       	ldi	r27, 0x00	; 0
    6536:	ef e9       	ldi	r30, 0x9F	; 159
    6538:	f2 e3       	ldi	r31, 0x32	; 50
    653a:	0c 94 2a 35 	jmp	0x6a54	; 0x6a54 <__prologue_saves__>
    653e:	6c 01       	movw	r12, r24
    6540:	7b 01       	movw	r14, r22
    6542:	8a 01       	movw	r16, r20
    6544:	fc 01       	movw	r30, r24
    6546:	17 82       	std	Z+7, r1	; 0x07
    6548:	16 82       	std	Z+6, r1	; 0x06
    654a:	83 81       	ldd	r24, Z+3	; 0x03
    654c:	81 ff       	sbrs	r24, 1
    654e:	cc c1       	rjmp	.+920    	; 0x68e8 <vfprintf+0x3b6>
    6550:	ce 01       	movw	r24, r28
    6552:	01 96       	adiw	r24, 0x01	; 1
    6554:	3c 01       	movw	r6, r24
    6556:	f6 01       	movw	r30, r12
    6558:	93 81       	ldd	r25, Z+3	; 0x03
    655a:	f7 01       	movw	r30, r14
    655c:	93 fd       	sbrc	r25, 3
    655e:	85 91       	lpm	r24, Z+
    6560:	93 ff       	sbrs	r25, 3
    6562:	81 91       	ld	r24, Z+
    6564:	7f 01       	movw	r14, r30
    6566:	88 23       	and	r24, r24
    6568:	09 f4       	brne	.+2      	; 0x656c <vfprintf+0x3a>
    656a:	ba c1       	rjmp	.+884    	; 0x68e0 <vfprintf+0x3ae>
    656c:	85 32       	cpi	r24, 0x25	; 37
    656e:	39 f4       	brne	.+14     	; 0x657e <vfprintf+0x4c>
    6570:	93 fd       	sbrc	r25, 3
    6572:	85 91       	lpm	r24, Z+
    6574:	93 ff       	sbrs	r25, 3
    6576:	81 91       	ld	r24, Z+
    6578:	7f 01       	movw	r14, r30
    657a:	85 32       	cpi	r24, 0x25	; 37
    657c:	29 f4       	brne	.+10     	; 0x6588 <vfprintf+0x56>
    657e:	b6 01       	movw	r22, r12
    6580:	90 e0       	ldi	r25, 0x00	; 0
    6582:	0e 94 90 34 	call	0x6920	; 0x6920 <fputc>
    6586:	e7 cf       	rjmp	.-50     	; 0x6556 <vfprintf+0x24>
    6588:	91 2c       	mov	r9, r1
    658a:	21 2c       	mov	r2, r1
    658c:	31 2c       	mov	r3, r1
    658e:	ff e1       	ldi	r31, 0x1F	; 31
    6590:	f3 15       	cp	r31, r3
    6592:	d8 f0       	brcs	.+54     	; 0x65ca <vfprintf+0x98>
    6594:	8b 32       	cpi	r24, 0x2B	; 43
    6596:	79 f0       	breq	.+30     	; 0x65b6 <vfprintf+0x84>
    6598:	38 f4       	brcc	.+14     	; 0x65a8 <vfprintf+0x76>
    659a:	80 32       	cpi	r24, 0x20	; 32
    659c:	79 f0       	breq	.+30     	; 0x65bc <vfprintf+0x8a>
    659e:	83 32       	cpi	r24, 0x23	; 35
    65a0:	a1 f4       	brne	.+40     	; 0x65ca <vfprintf+0x98>
    65a2:	23 2d       	mov	r18, r3
    65a4:	20 61       	ori	r18, 0x10	; 16
    65a6:	1d c0       	rjmp	.+58     	; 0x65e2 <vfprintf+0xb0>
    65a8:	8d 32       	cpi	r24, 0x2D	; 45
    65aa:	61 f0       	breq	.+24     	; 0x65c4 <vfprintf+0x92>
    65ac:	80 33       	cpi	r24, 0x30	; 48
    65ae:	69 f4       	brne	.+26     	; 0x65ca <vfprintf+0x98>
    65b0:	23 2d       	mov	r18, r3
    65b2:	21 60       	ori	r18, 0x01	; 1
    65b4:	16 c0       	rjmp	.+44     	; 0x65e2 <vfprintf+0xb0>
    65b6:	83 2d       	mov	r24, r3
    65b8:	82 60       	ori	r24, 0x02	; 2
    65ba:	38 2e       	mov	r3, r24
    65bc:	e3 2d       	mov	r30, r3
    65be:	e4 60       	ori	r30, 0x04	; 4
    65c0:	3e 2e       	mov	r3, r30
    65c2:	2a c0       	rjmp	.+84     	; 0x6618 <vfprintf+0xe6>
    65c4:	f3 2d       	mov	r31, r3
    65c6:	f8 60       	ori	r31, 0x08	; 8
    65c8:	1d c0       	rjmp	.+58     	; 0x6604 <vfprintf+0xd2>
    65ca:	37 fc       	sbrc	r3, 7
    65cc:	2d c0       	rjmp	.+90     	; 0x6628 <vfprintf+0xf6>
    65ce:	20 ed       	ldi	r18, 0xD0	; 208
    65d0:	28 0f       	add	r18, r24
    65d2:	2a 30       	cpi	r18, 0x0A	; 10
    65d4:	40 f0       	brcs	.+16     	; 0x65e6 <vfprintf+0xb4>
    65d6:	8e 32       	cpi	r24, 0x2E	; 46
    65d8:	b9 f4       	brne	.+46     	; 0x6608 <vfprintf+0xd6>
    65da:	36 fc       	sbrc	r3, 6
    65dc:	81 c1       	rjmp	.+770    	; 0x68e0 <vfprintf+0x3ae>
    65de:	23 2d       	mov	r18, r3
    65e0:	20 64       	ori	r18, 0x40	; 64
    65e2:	32 2e       	mov	r3, r18
    65e4:	19 c0       	rjmp	.+50     	; 0x6618 <vfprintf+0xe6>
    65e6:	36 fe       	sbrs	r3, 6
    65e8:	06 c0       	rjmp	.+12     	; 0x65f6 <vfprintf+0xc4>
    65ea:	8a e0       	ldi	r24, 0x0A	; 10
    65ec:	98 9e       	mul	r9, r24
    65ee:	20 0d       	add	r18, r0
    65f0:	11 24       	eor	r1, r1
    65f2:	92 2e       	mov	r9, r18
    65f4:	11 c0       	rjmp	.+34     	; 0x6618 <vfprintf+0xe6>
    65f6:	ea e0       	ldi	r30, 0x0A	; 10
    65f8:	2e 9e       	mul	r2, r30
    65fa:	20 0d       	add	r18, r0
    65fc:	11 24       	eor	r1, r1
    65fe:	22 2e       	mov	r2, r18
    6600:	f3 2d       	mov	r31, r3
    6602:	f0 62       	ori	r31, 0x20	; 32
    6604:	3f 2e       	mov	r3, r31
    6606:	08 c0       	rjmp	.+16     	; 0x6618 <vfprintf+0xe6>
    6608:	8c 36       	cpi	r24, 0x6C	; 108
    660a:	21 f4       	brne	.+8      	; 0x6614 <vfprintf+0xe2>
    660c:	83 2d       	mov	r24, r3
    660e:	80 68       	ori	r24, 0x80	; 128
    6610:	38 2e       	mov	r3, r24
    6612:	02 c0       	rjmp	.+4      	; 0x6618 <vfprintf+0xe6>
    6614:	88 36       	cpi	r24, 0x68	; 104
    6616:	41 f4       	brne	.+16     	; 0x6628 <vfprintf+0xf6>
    6618:	f7 01       	movw	r30, r14
    661a:	93 fd       	sbrc	r25, 3
    661c:	85 91       	lpm	r24, Z+
    661e:	93 ff       	sbrs	r25, 3
    6620:	81 91       	ld	r24, Z+
    6622:	7f 01       	movw	r14, r30
    6624:	81 11       	cpse	r24, r1
    6626:	b3 cf       	rjmp	.-154    	; 0x658e <vfprintf+0x5c>
    6628:	98 2f       	mov	r25, r24
    662a:	9f 7d       	andi	r25, 0xDF	; 223
    662c:	95 54       	subi	r25, 0x45	; 69
    662e:	93 30       	cpi	r25, 0x03	; 3
    6630:	28 f4       	brcc	.+10     	; 0x663c <vfprintf+0x10a>
    6632:	0c 5f       	subi	r16, 0xFC	; 252
    6634:	1f 4f       	sbci	r17, 0xFF	; 255
    6636:	9f e3       	ldi	r25, 0x3F	; 63
    6638:	99 83       	std	Y+1, r25	; 0x01
    663a:	0d c0       	rjmp	.+26     	; 0x6656 <vfprintf+0x124>
    663c:	83 36       	cpi	r24, 0x63	; 99
    663e:	31 f0       	breq	.+12     	; 0x664c <vfprintf+0x11a>
    6640:	83 37       	cpi	r24, 0x73	; 115
    6642:	71 f0       	breq	.+28     	; 0x6660 <vfprintf+0x12e>
    6644:	83 35       	cpi	r24, 0x53	; 83
    6646:	09 f0       	breq	.+2      	; 0x664a <vfprintf+0x118>
    6648:	59 c0       	rjmp	.+178    	; 0x66fc <vfprintf+0x1ca>
    664a:	21 c0       	rjmp	.+66     	; 0x668e <vfprintf+0x15c>
    664c:	f8 01       	movw	r30, r16
    664e:	80 81       	ld	r24, Z
    6650:	89 83       	std	Y+1, r24	; 0x01
    6652:	0e 5f       	subi	r16, 0xFE	; 254
    6654:	1f 4f       	sbci	r17, 0xFF	; 255
    6656:	88 24       	eor	r8, r8
    6658:	83 94       	inc	r8
    665a:	91 2c       	mov	r9, r1
    665c:	53 01       	movw	r10, r6
    665e:	13 c0       	rjmp	.+38     	; 0x6686 <vfprintf+0x154>
    6660:	28 01       	movw	r4, r16
    6662:	f2 e0       	ldi	r31, 0x02	; 2
    6664:	4f 0e       	add	r4, r31
    6666:	51 1c       	adc	r5, r1
    6668:	f8 01       	movw	r30, r16
    666a:	a0 80       	ld	r10, Z
    666c:	b1 80       	ldd	r11, Z+1	; 0x01
    666e:	36 fe       	sbrs	r3, 6
    6670:	03 c0       	rjmp	.+6      	; 0x6678 <vfprintf+0x146>
    6672:	69 2d       	mov	r22, r9
    6674:	70 e0       	ldi	r23, 0x00	; 0
    6676:	02 c0       	rjmp	.+4      	; 0x667c <vfprintf+0x14a>
    6678:	6f ef       	ldi	r22, 0xFF	; 255
    667a:	7f ef       	ldi	r23, 0xFF	; 255
    667c:	c5 01       	movw	r24, r10
    667e:	0e 94 85 34 	call	0x690a	; 0x690a <strnlen>
    6682:	4c 01       	movw	r8, r24
    6684:	82 01       	movw	r16, r4
    6686:	f3 2d       	mov	r31, r3
    6688:	ff 77       	andi	r31, 0x7F	; 127
    668a:	3f 2e       	mov	r3, r31
    668c:	16 c0       	rjmp	.+44     	; 0x66ba <vfprintf+0x188>
    668e:	28 01       	movw	r4, r16
    6690:	22 e0       	ldi	r18, 0x02	; 2
    6692:	42 0e       	add	r4, r18
    6694:	51 1c       	adc	r5, r1
    6696:	f8 01       	movw	r30, r16
    6698:	a0 80       	ld	r10, Z
    669a:	b1 80       	ldd	r11, Z+1	; 0x01
    669c:	36 fe       	sbrs	r3, 6
    669e:	03 c0       	rjmp	.+6      	; 0x66a6 <vfprintf+0x174>
    66a0:	69 2d       	mov	r22, r9
    66a2:	70 e0       	ldi	r23, 0x00	; 0
    66a4:	02 c0       	rjmp	.+4      	; 0x66aa <vfprintf+0x178>
    66a6:	6f ef       	ldi	r22, 0xFF	; 255
    66a8:	7f ef       	ldi	r23, 0xFF	; 255
    66aa:	c5 01       	movw	r24, r10
    66ac:	0e 94 7a 34 	call	0x68f4	; 0x68f4 <strnlen_P>
    66b0:	4c 01       	movw	r8, r24
    66b2:	f3 2d       	mov	r31, r3
    66b4:	f0 68       	ori	r31, 0x80	; 128
    66b6:	3f 2e       	mov	r3, r31
    66b8:	82 01       	movw	r16, r4
    66ba:	33 fc       	sbrc	r3, 3
    66bc:	1b c0       	rjmp	.+54     	; 0x66f4 <vfprintf+0x1c2>
    66be:	82 2d       	mov	r24, r2
    66c0:	90 e0       	ldi	r25, 0x00	; 0
    66c2:	88 16       	cp	r8, r24
    66c4:	99 06       	cpc	r9, r25
    66c6:	b0 f4       	brcc	.+44     	; 0x66f4 <vfprintf+0x1c2>
    66c8:	b6 01       	movw	r22, r12
    66ca:	80 e2       	ldi	r24, 0x20	; 32
    66cc:	90 e0       	ldi	r25, 0x00	; 0
    66ce:	0e 94 90 34 	call	0x6920	; 0x6920 <fputc>
    66d2:	2a 94       	dec	r2
    66d4:	f4 cf       	rjmp	.-24     	; 0x66be <vfprintf+0x18c>
    66d6:	f5 01       	movw	r30, r10
    66d8:	37 fc       	sbrc	r3, 7
    66da:	85 91       	lpm	r24, Z+
    66dc:	37 fe       	sbrs	r3, 7
    66de:	81 91       	ld	r24, Z+
    66e0:	5f 01       	movw	r10, r30
    66e2:	b6 01       	movw	r22, r12
    66e4:	90 e0       	ldi	r25, 0x00	; 0
    66e6:	0e 94 90 34 	call	0x6920	; 0x6920 <fputc>
    66ea:	21 10       	cpse	r2, r1
    66ec:	2a 94       	dec	r2
    66ee:	21 e0       	ldi	r18, 0x01	; 1
    66f0:	82 1a       	sub	r8, r18
    66f2:	91 08       	sbc	r9, r1
    66f4:	81 14       	cp	r8, r1
    66f6:	91 04       	cpc	r9, r1
    66f8:	71 f7       	brne	.-36     	; 0x66d6 <vfprintf+0x1a4>
    66fa:	e8 c0       	rjmp	.+464    	; 0x68cc <vfprintf+0x39a>
    66fc:	84 36       	cpi	r24, 0x64	; 100
    66fe:	11 f0       	breq	.+4      	; 0x6704 <vfprintf+0x1d2>
    6700:	89 36       	cpi	r24, 0x69	; 105
    6702:	41 f5       	brne	.+80     	; 0x6754 <vfprintf+0x222>
    6704:	f8 01       	movw	r30, r16
    6706:	37 fe       	sbrs	r3, 7
    6708:	07 c0       	rjmp	.+14     	; 0x6718 <vfprintf+0x1e6>
    670a:	60 81       	ld	r22, Z
    670c:	71 81       	ldd	r23, Z+1	; 0x01
    670e:	82 81       	ldd	r24, Z+2	; 0x02
    6710:	93 81       	ldd	r25, Z+3	; 0x03
    6712:	0c 5f       	subi	r16, 0xFC	; 252
    6714:	1f 4f       	sbci	r17, 0xFF	; 255
    6716:	08 c0       	rjmp	.+16     	; 0x6728 <vfprintf+0x1f6>
    6718:	60 81       	ld	r22, Z
    671a:	71 81       	ldd	r23, Z+1	; 0x01
    671c:	07 2e       	mov	r0, r23
    671e:	00 0c       	add	r0, r0
    6720:	88 0b       	sbc	r24, r24
    6722:	99 0b       	sbc	r25, r25
    6724:	0e 5f       	subi	r16, 0xFE	; 254
    6726:	1f 4f       	sbci	r17, 0xFF	; 255
    6728:	f3 2d       	mov	r31, r3
    672a:	ff 76       	andi	r31, 0x6F	; 111
    672c:	3f 2e       	mov	r3, r31
    672e:	97 ff       	sbrs	r25, 7
    6730:	09 c0       	rjmp	.+18     	; 0x6744 <vfprintf+0x212>
    6732:	90 95       	com	r25
    6734:	80 95       	com	r24
    6736:	70 95       	com	r23
    6738:	61 95       	neg	r22
    673a:	7f 4f       	sbci	r23, 0xFF	; 255
    673c:	8f 4f       	sbci	r24, 0xFF	; 255
    673e:	9f 4f       	sbci	r25, 0xFF	; 255
    6740:	f0 68       	ori	r31, 0x80	; 128
    6742:	3f 2e       	mov	r3, r31
    6744:	2a e0       	ldi	r18, 0x0A	; 10
    6746:	30 e0       	ldi	r19, 0x00	; 0
    6748:	a3 01       	movw	r20, r6
    674a:	0e 94 cc 34 	call	0x6998	; 0x6998 <__ultoa_invert>
    674e:	88 2e       	mov	r8, r24
    6750:	86 18       	sub	r8, r6
    6752:	45 c0       	rjmp	.+138    	; 0x67de <vfprintf+0x2ac>
    6754:	85 37       	cpi	r24, 0x75	; 117
    6756:	31 f4       	brne	.+12     	; 0x6764 <vfprintf+0x232>
    6758:	23 2d       	mov	r18, r3
    675a:	2f 7e       	andi	r18, 0xEF	; 239
    675c:	b2 2e       	mov	r11, r18
    675e:	2a e0       	ldi	r18, 0x0A	; 10
    6760:	30 e0       	ldi	r19, 0x00	; 0
    6762:	25 c0       	rjmp	.+74     	; 0x67ae <vfprintf+0x27c>
    6764:	93 2d       	mov	r25, r3
    6766:	99 7f       	andi	r25, 0xF9	; 249
    6768:	b9 2e       	mov	r11, r25
    676a:	8f 36       	cpi	r24, 0x6F	; 111
    676c:	c1 f0       	breq	.+48     	; 0x679e <vfprintf+0x26c>
    676e:	18 f4       	brcc	.+6      	; 0x6776 <vfprintf+0x244>
    6770:	88 35       	cpi	r24, 0x58	; 88
    6772:	79 f0       	breq	.+30     	; 0x6792 <vfprintf+0x260>
    6774:	b5 c0       	rjmp	.+362    	; 0x68e0 <vfprintf+0x3ae>
    6776:	80 37       	cpi	r24, 0x70	; 112
    6778:	19 f0       	breq	.+6      	; 0x6780 <vfprintf+0x24e>
    677a:	88 37       	cpi	r24, 0x78	; 120
    677c:	21 f0       	breq	.+8      	; 0x6786 <vfprintf+0x254>
    677e:	b0 c0       	rjmp	.+352    	; 0x68e0 <vfprintf+0x3ae>
    6780:	e9 2f       	mov	r30, r25
    6782:	e0 61       	ori	r30, 0x10	; 16
    6784:	be 2e       	mov	r11, r30
    6786:	b4 fe       	sbrs	r11, 4
    6788:	0d c0       	rjmp	.+26     	; 0x67a4 <vfprintf+0x272>
    678a:	fb 2d       	mov	r31, r11
    678c:	f4 60       	ori	r31, 0x04	; 4
    678e:	bf 2e       	mov	r11, r31
    6790:	09 c0       	rjmp	.+18     	; 0x67a4 <vfprintf+0x272>
    6792:	34 fe       	sbrs	r3, 4
    6794:	0a c0       	rjmp	.+20     	; 0x67aa <vfprintf+0x278>
    6796:	29 2f       	mov	r18, r25
    6798:	26 60       	ori	r18, 0x06	; 6
    679a:	b2 2e       	mov	r11, r18
    679c:	06 c0       	rjmp	.+12     	; 0x67aa <vfprintf+0x278>
    679e:	28 e0       	ldi	r18, 0x08	; 8
    67a0:	30 e0       	ldi	r19, 0x00	; 0
    67a2:	05 c0       	rjmp	.+10     	; 0x67ae <vfprintf+0x27c>
    67a4:	20 e1       	ldi	r18, 0x10	; 16
    67a6:	30 e0       	ldi	r19, 0x00	; 0
    67a8:	02 c0       	rjmp	.+4      	; 0x67ae <vfprintf+0x27c>
    67aa:	20 e1       	ldi	r18, 0x10	; 16
    67ac:	32 e0       	ldi	r19, 0x02	; 2
    67ae:	f8 01       	movw	r30, r16
    67b0:	b7 fe       	sbrs	r11, 7
    67b2:	07 c0       	rjmp	.+14     	; 0x67c2 <vfprintf+0x290>
    67b4:	60 81       	ld	r22, Z
    67b6:	71 81       	ldd	r23, Z+1	; 0x01
    67b8:	82 81       	ldd	r24, Z+2	; 0x02
    67ba:	93 81       	ldd	r25, Z+3	; 0x03
    67bc:	0c 5f       	subi	r16, 0xFC	; 252
    67be:	1f 4f       	sbci	r17, 0xFF	; 255
    67c0:	06 c0       	rjmp	.+12     	; 0x67ce <vfprintf+0x29c>
    67c2:	60 81       	ld	r22, Z
    67c4:	71 81       	ldd	r23, Z+1	; 0x01
    67c6:	80 e0       	ldi	r24, 0x00	; 0
    67c8:	90 e0       	ldi	r25, 0x00	; 0
    67ca:	0e 5f       	subi	r16, 0xFE	; 254
    67cc:	1f 4f       	sbci	r17, 0xFF	; 255
    67ce:	a3 01       	movw	r20, r6
    67d0:	0e 94 cc 34 	call	0x6998	; 0x6998 <__ultoa_invert>
    67d4:	88 2e       	mov	r8, r24
    67d6:	86 18       	sub	r8, r6
    67d8:	fb 2d       	mov	r31, r11
    67da:	ff 77       	andi	r31, 0x7F	; 127
    67dc:	3f 2e       	mov	r3, r31
    67de:	36 fe       	sbrs	r3, 6
    67e0:	0d c0       	rjmp	.+26     	; 0x67fc <vfprintf+0x2ca>
    67e2:	23 2d       	mov	r18, r3
    67e4:	2e 7f       	andi	r18, 0xFE	; 254
    67e6:	a2 2e       	mov	r10, r18
    67e8:	89 14       	cp	r8, r9
    67ea:	58 f4       	brcc	.+22     	; 0x6802 <vfprintf+0x2d0>
    67ec:	34 fe       	sbrs	r3, 4
    67ee:	0b c0       	rjmp	.+22     	; 0x6806 <vfprintf+0x2d4>
    67f0:	32 fc       	sbrc	r3, 2
    67f2:	09 c0       	rjmp	.+18     	; 0x6806 <vfprintf+0x2d4>
    67f4:	83 2d       	mov	r24, r3
    67f6:	8e 7e       	andi	r24, 0xEE	; 238
    67f8:	a8 2e       	mov	r10, r24
    67fa:	05 c0       	rjmp	.+10     	; 0x6806 <vfprintf+0x2d4>
    67fc:	b8 2c       	mov	r11, r8
    67fe:	a3 2c       	mov	r10, r3
    6800:	03 c0       	rjmp	.+6      	; 0x6808 <vfprintf+0x2d6>
    6802:	b8 2c       	mov	r11, r8
    6804:	01 c0       	rjmp	.+2      	; 0x6808 <vfprintf+0x2d6>
    6806:	b9 2c       	mov	r11, r9
    6808:	a4 fe       	sbrs	r10, 4
    680a:	0f c0       	rjmp	.+30     	; 0x682a <vfprintf+0x2f8>
    680c:	fe 01       	movw	r30, r28
    680e:	e8 0d       	add	r30, r8
    6810:	f1 1d       	adc	r31, r1
    6812:	80 81       	ld	r24, Z
    6814:	80 33       	cpi	r24, 0x30	; 48
    6816:	21 f4       	brne	.+8      	; 0x6820 <vfprintf+0x2ee>
    6818:	9a 2d       	mov	r25, r10
    681a:	99 7e       	andi	r25, 0xE9	; 233
    681c:	a9 2e       	mov	r10, r25
    681e:	09 c0       	rjmp	.+18     	; 0x6832 <vfprintf+0x300>
    6820:	a2 fe       	sbrs	r10, 2
    6822:	06 c0       	rjmp	.+12     	; 0x6830 <vfprintf+0x2fe>
    6824:	b3 94       	inc	r11
    6826:	b3 94       	inc	r11
    6828:	04 c0       	rjmp	.+8      	; 0x6832 <vfprintf+0x300>
    682a:	8a 2d       	mov	r24, r10
    682c:	86 78       	andi	r24, 0x86	; 134
    682e:	09 f0       	breq	.+2      	; 0x6832 <vfprintf+0x300>
    6830:	b3 94       	inc	r11
    6832:	a3 fc       	sbrc	r10, 3
    6834:	11 c0       	rjmp	.+34     	; 0x6858 <vfprintf+0x326>
    6836:	a0 fe       	sbrs	r10, 0
    6838:	06 c0       	rjmp	.+12     	; 0x6846 <vfprintf+0x314>
    683a:	b2 14       	cp	r11, r2
    683c:	88 f4       	brcc	.+34     	; 0x6860 <vfprintf+0x32e>
    683e:	28 0c       	add	r2, r8
    6840:	92 2c       	mov	r9, r2
    6842:	9b 18       	sub	r9, r11
    6844:	0e c0       	rjmp	.+28     	; 0x6862 <vfprintf+0x330>
    6846:	b2 14       	cp	r11, r2
    6848:	60 f4       	brcc	.+24     	; 0x6862 <vfprintf+0x330>
    684a:	b6 01       	movw	r22, r12
    684c:	80 e2       	ldi	r24, 0x20	; 32
    684e:	90 e0       	ldi	r25, 0x00	; 0
    6850:	0e 94 90 34 	call	0x6920	; 0x6920 <fputc>
    6854:	b3 94       	inc	r11
    6856:	f7 cf       	rjmp	.-18     	; 0x6846 <vfprintf+0x314>
    6858:	b2 14       	cp	r11, r2
    685a:	18 f4       	brcc	.+6      	; 0x6862 <vfprintf+0x330>
    685c:	2b 18       	sub	r2, r11
    685e:	02 c0       	rjmp	.+4      	; 0x6864 <vfprintf+0x332>
    6860:	98 2c       	mov	r9, r8
    6862:	21 2c       	mov	r2, r1
    6864:	a4 fe       	sbrs	r10, 4
    6866:	10 c0       	rjmp	.+32     	; 0x6888 <vfprintf+0x356>
    6868:	b6 01       	movw	r22, r12
    686a:	80 e3       	ldi	r24, 0x30	; 48
    686c:	90 e0       	ldi	r25, 0x00	; 0
    686e:	0e 94 90 34 	call	0x6920	; 0x6920 <fputc>
    6872:	a2 fe       	sbrs	r10, 2
    6874:	17 c0       	rjmp	.+46     	; 0x68a4 <vfprintf+0x372>
    6876:	a1 fc       	sbrc	r10, 1
    6878:	03 c0       	rjmp	.+6      	; 0x6880 <vfprintf+0x34e>
    687a:	88 e7       	ldi	r24, 0x78	; 120
    687c:	90 e0       	ldi	r25, 0x00	; 0
    687e:	02 c0       	rjmp	.+4      	; 0x6884 <vfprintf+0x352>
    6880:	88 e5       	ldi	r24, 0x58	; 88
    6882:	90 e0       	ldi	r25, 0x00	; 0
    6884:	b6 01       	movw	r22, r12
    6886:	0c c0       	rjmp	.+24     	; 0x68a0 <vfprintf+0x36e>
    6888:	8a 2d       	mov	r24, r10
    688a:	86 78       	andi	r24, 0x86	; 134
    688c:	59 f0       	breq	.+22     	; 0x68a4 <vfprintf+0x372>
    688e:	a1 fe       	sbrs	r10, 1
    6890:	02 c0       	rjmp	.+4      	; 0x6896 <vfprintf+0x364>
    6892:	8b e2       	ldi	r24, 0x2B	; 43
    6894:	01 c0       	rjmp	.+2      	; 0x6898 <vfprintf+0x366>
    6896:	80 e2       	ldi	r24, 0x20	; 32
    6898:	a7 fc       	sbrc	r10, 7
    689a:	8d e2       	ldi	r24, 0x2D	; 45
    689c:	b6 01       	movw	r22, r12
    689e:	90 e0       	ldi	r25, 0x00	; 0
    68a0:	0e 94 90 34 	call	0x6920	; 0x6920 <fputc>
    68a4:	89 14       	cp	r8, r9
    68a6:	38 f4       	brcc	.+14     	; 0x68b6 <vfprintf+0x384>
    68a8:	b6 01       	movw	r22, r12
    68aa:	80 e3       	ldi	r24, 0x30	; 48
    68ac:	90 e0       	ldi	r25, 0x00	; 0
    68ae:	0e 94 90 34 	call	0x6920	; 0x6920 <fputc>
    68b2:	9a 94       	dec	r9
    68b4:	f7 cf       	rjmp	.-18     	; 0x68a4 <vfprintf+0x372>
    68b6:	8a 94       	dec	r8
    68b8:	f3 01       	movw	r30, r6
    68ba:	e8 0d       	add	r30, r8
    68bc:	f1 1d       	adc	r31, r1
    68be:	80 81       	ld	r24, Z
    68c0:	b6 01       	movw	r22, r12
    68c2:	90 e0       	ldi	r25, 0x00	; 0
    68c4:	0e 94 90 34 	call	0x6920	; 0x6920 <fputc>
    68c8:	81 10       	cpse	r8, r1
    68ca:	f5 cf       	rjmp	.-22     	; 0x68b6 <vfprintf+0x384>
    68cc:	22 20       	and	r2, r2
    68ce:	09 f4       	brne	.+2      	; 0x68d2 <vfprintf+0x3a0>
    68d0:	42 ce       	rjmp	.-892    	; 0x6556 <vfprintf+0x24>
    68d2:	b6 01       	movw	r22, r12
    68d4:	80 e2       	ldi	r24, 0x20	; 32
    68d6:	90 e0       	ldi	r25, 0x00	; 0
    68d8:	0e 94 90 34 	call	0x6920	; 0x6920 <fputc>
    68dc:	2a 94       	dec	r2
    68de:	f6 cf       	rjmp	.-20     	; 0x68cc <vfprintf+0x39a>
    68e0:	f6 01       	movw	r30, r12
    68e2:	86 81       	ldd	r24, Z+6	; 0x06
    68e4:	97 81       	ldd	r25, Z+7	; 0x07
    68e6:	02 c0       	rjmp	.+4      	; 0x68ec <vfprintf+0x3ba>
    68e8:	8f ef       	ldi	r24, 0xFF	; 255
    68ea:	9f ef       	ldi	r25, 0xFF	; 255
    68ec:	2b 96       	adiw	r28, 0x0b	; 11
    68ee:	e2 e1       	ldi	r30, 0x12	; 18
    68f0:	0c 94 46 35 	jmp	0x6a8c	; 0x6a8c <__epilogue_restores__>

000068f4 <strnlen_P>:
    68f4:	fc 01       	movw	r30, r24
    68f6:	05 90       	lpm	r0, Z+
    68f8:	61 50       	subi	r22, 0x01	; 1
    68fa:	70 40       	sbci	r23, 0x00	; 0
    68fc:	01 10       	cpse	r0, r1
    68fe:	d8 f7       	brcc	.-10     	; 0x68f6 <strnlen_P+0x2>
    6900:	80 95       	com	r24
    6902:	90 95       	com	r25
    6904:	8e 0f       	add	r24, r30
    6906:	9f 1f       	adc	r25, r31
    6908:	08 95       	ret

0000690a <strnlen>:
    690a:	fc 01       	movw	r30, r24
    690c:	61 50       	subi	r22, 0x01	; 1
    690e:	70 40       	sbci	r23, 0x00	; 0
    6910:	01 90       	ld	r0, Z+
    6912:	01 10       	cpse	r0, r1
    6914:	d8 f7       	brcc	.-10     	; 0x690c <strnlen+0x2>
    6916:	80 95       	com	r24
    6918:	90 95       	com	r25
    691a:	8e 0f       	add	r24, r30
    691c:	9f 1f       	adc	r25, r31
    691e:	08 95       	ret

00006920 <fputc>:
    6920:	0f 93       	push	r16
    6922:	1f 93       	push	r17
    6924:	cf 93       	push	r28
    6926:	df 93       	push	r29
    6928:	fb 01       	movw	r30, r22
    692a:	23 81       	ldd	r18, Z+3	; 0x03
    692c:	21 fd       	sbrc	r18, 1
    692e:	03 c0       	rjmp	.+6      	; 0x6936 <fputc+0x16>
    6930:	8f ef       	ldi	r24, 0xFF	; 255
    6932:	9f ef       	ldi	r25, 0xFF	; 255
    6934:	2c c0       	rjmp	.+88     	; 0x698e <fputc+0x6e>
    6936:	22 ff       	sbrs	r18, 2
    6938:	16 c0       	rjmp	.+44     	; 0x6966 <fputc+0x46>
    693a:	46 81       	ldd	r20, Z+6	; 0x06
    693c:	57 81       	ldd	r21, Z+7	; 0x07
    693e:	24 81       	ldd	r18, Z+4	; 0x04
    6940:	35 81       	ldd	r19, Z+5	; 0x05
    6942:	42 17       	cp	r20, r18
    6944:	53 07       	cpc	r21, r19
    6946:	44 f4       	brge	.+16     	; 0x6958 <fputc+0x38>
    6948:	a0 81       	ld	r26, Z
    694a:	b1 81       	ldd	r27, Z+1	; 0x01
    694c:	9d 01       	movw	r18, r26
    694e:	2f 5f       	subi	r18, 0xFF	; 255
    6950:	3f 4f       	sbci	r19, 0xFF	; 255
    6952:	31 83       	std	Z+1, r19	; 0x01
    6954:	20 83       	st	Z, r18
    6956:	8c 93       	st	X, r24
    6958:	26 81       	ldd	r18, Z+6	; 0x06
    695a:	37 81       	ldd	r19, Z+7	; 0x07
    695c:	2f 5f       	subi	r18, 0xFF	; 255
    695e:	3f 4f       	sbci	r19, 0xFF	; 255
    6960:	37 83       	std	Z+7, r19	; 0x07
    6962:	26 83       	std	Z+6, r18	; 0x06
    6964:	14 c0       	rjmp	.+40     	; 0x698e <fputc+0x6e>
    6966:	8b 01       	movw	r16, r22
    6968:	ec 01       	movw	r28, r24
    696a:	fb 01       	movw	r30, r22
    696c:	00 84       	ldd	r0, Z+8	; 0x08
    696e:	f1 85       	ldd	r31, Z+9	; 0x09
    6970:	e0 2d       	mov	r30, r0
    6972:	09 95       	icall
    6974:	89 2b       	or	r24, r25
    6976:	e1 f6       	brne	.-72     	; 0x6930 <fputc+0x10>
    6978:	d8 01       	movw	r26, r16
    697a:	16 96       	adiw	r26, 0x06	; 6
    697c:	8d 91       	ld	r24, X+
    697e:	9c 91       	ld	r25, X
    6980:	17 97       	sbiw	r26, 0x07	; 7
    6982:	01 96       	adiw	r24, 0x01	; 1
    6984:	17 96       	adiw	r26, 0x07	; 7
    6986:	9c 93       	st	X, r25
    6988:	8e 93       	st	-X, r24
    698a:	16 97       	sbiw	r26, 0x06	; 6
    698c:	ce 01       	movw	r24, r28
    698e:	df 91       	pop	r29
    6990:	cf 91       	pop	r28
    6992:	1f 91       	pop	r17
    6994:	0f 91       	pop	r16
    6996:	08 95       	ret

00006998 <__ultoa_invert>:
    6998:	fa 01       	movw	r30, r20
    699a:	aa 27       	eor	r26, r26
    699c:	28 30       	cpi	r18, 0x08	; 8
    699e:	51 f1       	breq	.+84     	; 0x69f4 <__ultoa_invert+0x5c>
    69a0:	20 31       	cpi	r18, 0x10	; 16
    69a2:	81 f1       	breq	.+96     	; 0x6a04 <__ultoa_invert+0x6c>
    69a4:	e8 94       	clt
    69a6:	6f 93       	push	r22
    69a8:	6e 7f       	andi	r22, 0xFE	; 254
    69aa:	6e 5f       	subi	r22, 0xFE	; 254
    69ac:	7f 4f       	sbci	r23, 0xFF	; 255
    69ae:	8f 4f       	sbci	r24, 0xFF	; 255
    69b0:	9f 4f       	sbci	r25, 0xFF	; 255
    69b2:	af 4f       	sbci	r26, 0xFF	; 255
    69b4:	b1 e0       	ldi	r27, 0x01	; 1
    69b6:	3e d0       	rcall	.+124    	; 0x6a34 <__ultoa_invert+0x9c>
    69b8:	b4 e0       	ldi	r27, 0x04	; 4
    69ba:	3c d0       	rcall	.+120    	; 0x6a34 <__ultoa_invert+0x9c>
    69bc:	67 0f       	add	r22, r23
    69be:	78 1f       	adc	r23, r24
    69c0:	89 1f       	adc	r24, r25
    69c2:	9a 1f       	adc	r25, r26
    69c4:	a1 1d       	adc	r26, r1
    69c6:	68 0f       	add	r22, r24
    69c8:	79 1f       	adc	r23, r25
    69ca:	8a 1f       	adc	r24, r26
    69cc:	91 1d       	adc	r25, r1
    69ce:	a1 1d       	adc	r26, r1
    69d0:	6a 0f       	add	r22, r26
    69d2:	71 1d       	adc	r23, r1
    69d4:	81 1d       	adc	r24, r1
    69d6:	91 1d       	adc	r25, r1
    69d8:	a1 1d       	adc	r26, r1
    69da:	20 d0       	rcall	.+64     	; 0x6a1c <__ultoa_invert+0x84>
    69dc:	09 f4       	brne	.+2      	; 0x69e0 <__ultoa_invert+0x48>
    69de:	68 94       	set
    69e0:	3f 91       	pop	r19
    69e2:	2a e0       	ldi	r18, 0x0A	; 10
    69e4:	26 9f       	mul	r18, r22
    69e6:	11 24       	eor	r1, r1
    69e8:	30 19       	sub	r19, r0
    69ea:	30 5d       	subi	r19, 0xD0	; 208
    69ec:	31 93       	st	Z+, r19
    69ee:	de f6       	brtc	.-74     	; 0x69a6 <__ultoa_invert+0xe>
    69f0:	cf 01       	movw	r24, r30
    69f2:	08 95       	ret
    69f4:	46 2f       	mov	r20, r22
    69f6:	47 70       	andi	r20, 0x07	; 7
    69f8:	40 5d       	subi	r20, 0xD0	; 208
    69fa:	41 93       	st	Z+, r20
    69fc:	b3 e0       	ldi	r27, 0x03	; 3
    69fe:	0f d0       	rcall	.+30     	; 0x6a1e <__ultoa_invert+0x86>
    6a00:	c9 f7       	brne	.-14     	; 0x69f4 <__ultoa_invert+0x5c>
    6a02:	f6 cf       	rjmp	.-20     	; 0x69f0 <__ultoa_invert+0x58>
    6a04:	46 2f       	mov	r20, r22
    6a06:	4f 70       	andi	r20, 0x0F	; 15
    6a08:	40 5d       	subi	r20, 0xD0	; 208
    6a0a:	4a 33       	cpi	r20, 0x3A	; 58
    6a0c:	18 f0       	brcs	.+6      	; 0x6a14 <__ultoa_invert+0x7c>
    6a0e:	49 5d       	subi	r20, 0xD9	; 217
    6a10:	31 fd       	sbrc	r19, 1
    6a12:	40 52       	subi	r20, 0x20	; 32
    6a14:	41 93       	st	Z+, r20
    6a16:	02 d0       	rcall	.+4      	; 0x6a1c <__ultoa_invert+0x84>
    6a18:	a9 f7       	brne	.-22     	; 0x6a04 <__ultoa_invert+0x6c>
    6a1a:	ea cf       	rjmp	.-44     	; 0x69f0 <__ultoa_invert+0x58>
    6a1c:	b4 e0       	ldi	r27, 0x04	; 4
    6a1e:	a6 95       	lsr	r26
    6a20:	97 95       	ror	r25
    6a22:	87 95       	ror	r24
    6a24:	77 95       	ror	r23
    6a26:	67 95       	ror	r22
    6a28:	ba 95       	dec	r27
    6a2a:	c9 f7       	brne	.-14     	; 0x6a1e <__ultoa_invert+0x86>
    6a2c:	00 97       	sbiw	r24, 0x00	; 0
    6a2e:	61 05       	cpc	r22, r1
    6a30:	71 05       	cpc	r23, r1
    6a32:	08 95       	ret
    6a34:	9b 01       	movw	r18, r22
    6a36:	ac 01       	movw	r20, r24
    6a38:	0a 2e       	mov	r0, r26
    6a3a:	06 94       	lsr	r0
    6a3c:	57 95       	ror	r21
    6a3e:	47 95       	ror	r20
    6a40:	37 95       	ror	r19
    6a42:	27 95       	ror	r18
    6a44:	ba 95       	dec	r27
    6a46:	c9 f7       	brne	.-14     	; 0x6a3a <__ultoa_invert+0xa2>
    6a48:	62 0f       	add	r22, r18
    6a4a:	73 1f       	adc	r23, r19
    6a4c:	84 1f       	adc	r24, r20
    6a4e:	95 1f       	adc	r25, r21
    6a50:	a0 1d       	adc	r26, r0
    6a52:	08 95       	ret

00006a54 <__prologue_saves__>:
    6a54:	2f 92       	push	r2
    6a56:	3f 92       	push	r3
    6a58:	4f 92       	push	r4
    6a5a:	5f 92       	push	r5
    6a5c:	6f 92       	push	r6
    6a5e:	7f 92       	push	r7
    6a60:	8f 92       	push	r8
    6a62:	9f 92       	push	r9
    6a64:	af 92       	push	r10
    6a66:	bf 92       	push	r11
    6a68:	cf 92       	push	r12
    6a6a:	df 92       	push	r13
    6a6c:	ef 92       	push	r14
    6a6e:	ff 92       	push	r15
    6a70:	0f 93       	push	r16
    6a72:	1f 93       	push	r17
    6a74:	cf 93       	push	r28
    6a76:	df 93       	push	r29
    6a78:	cd b7       	in	r28, 0x3d	; 61
    6a7a:	de b7       	in	r29, 0x3e	; 62
    6a7c:	ca 1b       	sub	r28, r26
    6a7e:	db 0b       	sbc	r29, r27
    6a80:	0f b6       	in	r0, 0x3f	; 63
    6a82:	f8 94       	cli
    6a84:	de bf       	out	0x3e, r29	; 62
    6a86:	0f be       	out	0x3f, r0	; 63
    6a88:	cd bf       	out	0x3d, r28	; 61
    6a8a:	09 94       	ijmp

00006a8c <__epilogue_restores__>:
    6a8c:	2a 88       	ldd	r2, Y+18	; 0x12
    6a8e:	39 88       	ldd	r3, Y+17	; 0x11
    6a90:	48 88       	ldd	r4, Y+16	; 0x10
    6a92:	5f 84       	ldd	r5, Y+15	; 0x0f
    6a94:	6e 84       	ldd	r6, Y+14	; 0x0e
    6a96:	7d 84       	ldd	r7, Y+13	; 0x0d
    6a98:	8c 84       	ldd	r8, Y+12	; 0x0c
    6a9a:	9b 84       	ldd	r9, Y+11	; 0x0b
    6a9c:	aa 84       	ldd	r10, Y+10	; 0x0a
    6a9e:	b9 84       	ldd	r11, Y+9	; 0x09
    6aa0:	c8 84       	ldd	r12, Y+8	; 0x08
    6aa2:	df 80       	ldd	r13, Y+7	; 0x07
    6aa4:	ee 80       	ldd	r14, Y+6	; 0x06
    6aa6:	fd 80       	ldd	r15, Y+5	; 0x05
    6aa8:	0c 81       	ldd	r16, Y+4	; 0x04
    6aaa:	1b 81       	ldd	r17, Y+3	; 0x03
    6aac:	aa 81       	ldd	r26, Y+2	; 0x02
    6aae:	b9 81       	ldd	r27, Y+1	; 0x01
    6ab0:	ce 0f       	add	r28, r30
    6ab2:	d1 1d       	adc	r29, r1
    6ab4:	0f b6       	in	r0, 0x3f	; 63
    6ab6:	f8 94       	cli
    6ab8:	de bf       	out	0x3e, r29	; 62
    6aba:	0f be       	out	0x3f, r0	; 63
    6abc:	cd bf       	out	0x3d, r28	; 61
    6abe:	ed 01       	movw	r28, r26
    6ac0:	08 95       	ret

00006ac2 <_exit>:
    6ac2:	f8 94       	cli

00006ac4 <__stop_program>:
    6ac4:	ff cf       	rjmp	.-2      	; 0x6ac4 <__stop_program>
