
RECEIVER.elf:     file format elf32-avr

Sections:
Idx Name          Size      VMA       LMA       File off  Algn
  0 .data         000001de  00800200  00014400  00014494  2**0
                  CONTENTS, ALLOC, LOAD, DATA
  1 .text         00014400  00000000  00000000  00000094  2**1
                  CONTENTS, ALLOC, LOAD, READONLY, CODE
  2 .bss          000000cf  008003de  008003de  00014672  2**0
                  ALLOC
  3 .comment      0000005c  00000000  00000000  00014672  2**0
                  CONTENTS, READONLY
  4 .note.gnu.avr.deviceinfo 00000040  00000000  00000000  000146d0  2**2
                  CONTENTS, READONLY
  5 .debug_aranges 00000578  00000000  00000000  00014710  2**0
                  CONTENTS, READONLY, DEBUGGING
  6 .debug_info   00010e2f  00000000  00000000  00014c88  2**0
                  CONTENTS, READONLY, DEBUGGING
  7 .debug_abbrev 00001ea0  00000000  00000000  00025ab7  2**0
                  CONTENTS, READONLY, DEBUGGING
  8 .debug_line   00005ab7  00000000  00000000  00027957  2**0
                  CONTENTS, READONLY, DEBUGGING
  9 .debug_frame  000018b4  00000000  00000000  0002d410  2**2
                  CONTENTS, READONLY, DEBUGGING
 10 .debug_str    00001694  00000000  00000000  0002ecc4  2**0
                  CONTENTS, READONLY, DEBUGGING
 11 .debug_loc    00008fc0  00000000  00000000  00030358  2**0
                  CONTENTS, READONLY, DEBUGGING
 12 .debug_ranges 00000508  00000000  00000000  00039318  2**0
                  CONTENTS, READONLY, DEBUGGING

Disassembly of section .text:

00000000 <__vectors>:
       0:	0c 94 1f 68 	jmp	0xd03e	; 0xd03e <__ctors_end>
       4:	0c 94 93 7d 	jmp	0xfb26	; 0xfb26 <__vector_1>
       8:	0c 94 40 68 	jmp	0xd080	; 0xd080 <__bad_interrupt>
       c:	0c 94 40 68 	jmp	0xd080	; 0xd080 <__bad_interrupt>
      10:	0c 94 40 68 	jmp	0xd080	; 0xd080 <__bad_interrupt>
      14:	0c 94 52 78 	jmp	0xf0a4	; 0xf0a4 <__vector_5>
      18:	0c 94 cb 78 	jmp	0xf196	; 0xf196 <__vector_6>
      1c:	0c 94 f3 78 	jmp	0xf1e6	; 0xf1e6 <__vector_7>
      20:	0c 94 24 79 	jmp	0xf248	; 0xf248 <__vector_8>
      24:	0c 94 40 68 	jmp	0xd080	; 0xd080 <__bad_interrupt>
      28:	0c 94 40 68 	jmp	0xd080	; 0xd080 <__bad_interrupt>
      2c:	0c 94 40 68 	jmp	0xd080	; 0xd080 <__bad_interrupt>
      30:	0c 94 40 68 	jmp	0xd080	; 0xd080 <__bad_interrupt>
      34:	0c 94 40 68 	jmp	0xd080	; 0xd080 <__bad_interrupt>
      38:	0c 94 40 68 	jmp	0xd080	; 0xd080 <__bad_interrupt>
      3c:	0c 94 40 68 	jmp	0xd080	; 0xd080 <__bad_interrupt>
      40:	0c 94 40 68 	jmp	0xd080	; 0xd080 <__bad_interrupt>
      44:	0c 94 23 78 	jmp	0xf046	; 0xf046 <__vector_17>
      48:	0c 94 40 68 	jmp	0xd080	; 0xd080 <__bad_interrupt>
      4c:	0c 94 40 68 	jmp	0xd080	; 0xd080 <__bad_interrupt>
      50:	0c 94 40 68 	jmp	0xd080	; 0xd080 <__bad_interrupt>
      54:	0c 94 48 78 	jmp	0xf090	; 0xf090 <__vector_21>
      58:	0c 94 40 68 	jmp	0xd080	; 0xd080 <__bad_interrupt>
      5c:	0c 94 40 68 	jmp	0xd080	; 0xd080 <__bad_interrupt>
      60:	0c 94 40 68 	jmp	0xd080	; 0xd080 <__bad_interrupt>
      64:	0c 94 40 68 	jmp	0xd080	; 0xd080 <__bad_interrupt>
      68:	0c 94 40 68 	jmp	0xd080	; 0xd080 <__bad_interrupt>
      6c:	0c 94 40 68 	jmp	0xd080	; 0xd080 <__bad_interrupt>
      70:	0c 94 40 68 	jmp	0xd080	; 0xd080 <__bad_interrupt>
      74:	0c 94 40 68 	jmp	0xd080	; 0xd080 <__bad_interrupt>
      78:	0c 94 40 68 	jmp	0xd080	; 0xd080 <__bad_interrupt>
      7c:	0c 94 40 68 	jmp	0xd080	; 0xd080 <__bad_interrupt>
      80:	0c 94 40 68 	jmp	0xd080	; 0xd080 <__bad_interrupt>
      84:	0c 94 40 68 	jmp	0xd080	; 0xd080 <__bad_interrupt>
      88:	0c 94 40 68 	jmp	0xd080	; 0xd080 <__bad_interrupt>
      8c:	0c 94 40 68 	jmp	0xd080	; 0xd080 <__bad_interrupt>
      90:	0c 94 40 68 	jmp	0xd080	; 0xd080 <__bad_interrupt>
      94:	0c 94 40 68 	jmp	0xd080	; 0xd080 <__bad_interrupt>
      98:	0c 94 40 68 	jmp	0xd080	; 0xd080 <__bad_interrupt>
      9c:	0c 94 40 68 	jmp	0xd080	; 0xd080 <__bad_interrupt>
      a0:	0c 94 40 68 	jmp	0xd080	; 0xd080 <__bad_interrupt>
      a4:	0c 94 40 68 	jmp	0xd080	; 0xd080 <__bad_interrupt>
      a8:	0c 94 40 68 	jmp	0xd080	; 0xd080 <__bad_interrupt>
      ac:	0c 94 40 68 	jmp	0xd080	; 0xd080 <__bad_interrupt>
      b0:	0c 94 40 68 	jmp	0xd080	; 0xd080 <__bad_interrupt>
      b4:	0c 94 40 68 	jmp	0xd080	; 0xd080 <__bad_interrupt>
      b8:	0c 94 40 68 	jmp	0xd080	; 0xd080 <__bad_interrupt>
      bc:	0c 94 40 68 	jmp	0xd080	; 0xd080 <__bad_interrupt>
      c0:	0c 94 40 68 	jmp	0xd080	; 0xd080 <__bad_interrupt>
      c4:	0c 94 40 68 	jmp	0xd080	; 0xd080 <__bad_interrupt>
      c8:	0c 94 40 68 	jmp	0xd080	; 0xd080 <__bad_interrupt>
      cc:	0c 94 40 68 	jmp	0xd080	; 0xd080 <__bad_interrupt>
      d0:	0c 94 40 68 	jmp	0xd080	; 0xd080 <__bad_interrupt>
      d4:	0c 94 40 68 	jmp	0xd080	; 0xd080 <__bad_interrupt>
      d8:	0c 94 40 68 	jmp	0xd080	; 0xd080 <__bad_interrupt>
      dc:	0c 94 40 68 	jmp	0xd080	; 0xd080 <__bad_interrupt>
      e0:	0c 94 40 68 	jmp	0xd080	; 0xd080 <__bad_interrupt>
      e4:	c2 8b       	std	Z+18, r28	; 0x12
      e6:	67 8c       	ldd	r6, Z+31	; 0x1f
      e8:	0e 8d       	ldd	r16, Y+30	; 0x1e
      ea:	b5 8d       	ldd	r27, Z+29	; 0x1d
      ec:	5c 8e       	std	Y+28, r5	; 0x1c
      ee:	03 8f       	std	Z+27, r16	; 0x1b
      f0:	aa 8f       	std	Y+26, r26	; 0x1a
      f2:	51 90       	ld	r5, Z+
      f4:	7f 99       	sbic	0x0f, 7	; 15
      f6:	89 99       	sbic	0x11, 1	; 17
      f8:	93 99       	sbic	0x12, 3	; 18
      fa:	9d 99       	sbic	0x13, 5	; 19
      fc:	a7 99       	sbic	0x14, 7	; 20
      fe:	b1 99       	sbic	0x16, 1	; 22
     100:	bb 99       	sbic	0x17, 3	; 23
     102:	d3 99       	sbic	0x1a, 3	; 26
     104:	db 99       	sbic	0x1b, 3	; 27
     106:	e3 99       	sbic	0x1c, 3	; 28
     108:	eb 99       	sbic	0x1d, 3	; 29
     10a:	f3 99       	sbic	0x1e, 3	; 30
     10c:	fb 99       	sbic	0x1f, 3	; 31
     10e:	03 9a       	sbi	0x00, 3	; 0
     110:	0b 9a       	sbi	0x01, 3	; 1
     112:	13 9a       	sbi	0x02, 3	; 2
     114:	1b 9a       	sbi	0x03, 3	; 3
     116:	23 9a       	sbi	0x04, 3	; 4
     118:	2b 9a       	sbi	0x05, 3	; 5

0000011a <Syffaen40x40>:
	...
     13a:	00 00 01 00 00 00 00 01 00 00 00 00 01 00 00 00     ................
     14a:	80 01 00 00 00 e0 01 00 00 00 7c 01 00 00 00 1f     ..........|.....
     15a:	01 00 00 e0 03 01 00 00 f8 00 01 00 00 9f 00 00     ................
     16a:	00 c0 87 00 00 00 f8 80 00 00 00 3e 80 00 00 00     ...........>....
     17a:	7f 80 00 00 00 ff 83 00 00 00 fe 9f 00 00 00 f0     ................
     18a:	ff 00 01 00 80 ff 03 01 00 00 fe 1f 01 00 00 f0     ................
     19a:	7f 01 00 00 80 ff 01 00 00 00 fc 01 00 00 00 f0     ................
     1aa:	01 00 00 00 80 01 00 00 00 00 01 00 00 00 00 01     ................
     1ba:	00 00 00 00 01 00 00 00 00 00 00 00 00 00 00 00     ................
	...
     212:	00 00 00 01 00 00 01 00 01 00 00 01 00 01 00 00     ................
     222:	01 00 ff ff ff 01 00 ff ff ff 01 00 ff ff ff 01     ................
     232:	00 ff ff ff 01 00 01 04 00 01 00 01 04 00 01 00     ................
     242:	01 04 00 01 00 01 04 00 01 00 01 04 00 01 00 01     ................
     252:	0c 80 01 00 01 0c 80 01 00 07 1c c0 00 00 3f 78     ..............?x
     262:	e0 00 00 3f f8 ff 00 00 3f f0 7f 00 00 00 e0 3f     ...?....?......?
     272:	00 00 00 80 0f 00 00 00 00 00 00 00 00 00 00 00     ................
	...
     2da:	00 00 00 01 00 00 01 00 01 00 00 01 00 01 00 00     ................
     2ea:	01 00 ff ff ff 01 00 ff ff ff 01 00 ff ff ff 01     ................
     2fa:	00 ff ff ff 01 00 01 08 00 01 00 01 08 00 01 00     ................
     30a:	01 08 00 01 00 01 08 00 01 00 03 0c 00 01 00 03     ................
     31a:	1c 80 01 00 07 1f 80 01 00 fe 3f c0 01 00 fe f3     ..........?.....
     32a:	e0 00 00 fc f3 ff 00 00 f8 e0 7f 00 00 00 c0 3f     ...............?
     33a:	00 00 00 80 1f 00 00 00 00 00 00 00 00 00 00 00     ................
	...
     3aa:	01 00 00 01 00 01 00 00 01 00 01 00 00 01 00 ff     ................
     3ba:	ff ff 01 00 ff ff ff 01 00 ff ff ff 01 00 ff ff     ................
     3ca:	ff 01 00 01 00 00 01 00 01 00 00 01 00 01 00 00     ................
     3da:	01 00 01 00 00 00 00 01 00 00 00 00 01 00 00 00     ................
     3ea:	00 01 00 00 00 00 07 00 00 00 00 3f 00 00 00 00     ...........?....
     3fa:	3f 00 00 00 00 3f 00 00 00 00 00 00 00 00 00 00     ?....?..........
	...
     45e:	00 00 00 ff 00 00 00 00 ff 00 00 00 00 ff 00 00     ................
     46e:	00 00 1f 00 00 00 80 01 00 00 00 e0 01 00 01 00     ................
     47e:	78 01 00 01 00 1f 01 00 01 e0 07 01 00 81 ff 00     x...............
     48e:	01 00 ff 1f 00 01 00 7f 00 00 01 00 01 00 00 01     ................
     49e:	00 01 00 00 01 00 01 00 00 01 00 01 00 00 01 00     ................
     4ae:	01 00 00 01 00 01 00 00 01 00 ff ff ff 01 00 ff     ................
     4be:	ff ff 01 00 ff ff ff 01 00 ff ff ff 01 00 01 00     ................
     4ce:	00 1f 00 01 00 00 ff 00 01 00 00 ff 00 00 00 00     ................
     4de:	ff 00 00 00 00 00 00 00 00 00 00 00 00 00 00 00     ................
	...
     532:	00 00 00 01 00 00 01 00 01 00 00 01 00 01 00 00     ................
     542:	01 00 ff ff ff 01 00 ff ff ff 01 00 ff ff ff 01     ................
     552:	00 ff ff ff 01 00 01 10 00 01 00 01 10 00 01 00     ................
     562:	01 10 00 01 00 01 10 00 01 00 01 10 00 01 00 01     ................
     572:	fe 00 01 00 01 fe 00 01 00 07 00 00 01 00 3f 00     ..............?.
     582:	c0 01 00 3f 00 f8 01 00 3f 00 f8 01 00 00 00 f8     ...?....?.......
     592:	01 00 00 00 00 00 00 00 00 00 00 00 00 00 00 00     ................
	...
     5d2:	00 01 00 02 00 00 01 00 07 00 00 01 00 0f 00 80     ................
     5e2:	01 00 0f 00 e0 01 00 07 00 f8 01 00 0e 00 fe 01     ................
     5f2:	00 3c 00 7f 00 00 f0 c0 3f 00 00 c0 e3 0f 00 00     .<......?.......
     602:	00 e7 03 00 00 00 fc 00 00 00 00 78 00 00 00 01     ...........x....
     612:	38 00 01 00 01 10 00 01 00 01 10 00 01 00 ff ff     8...............
     622:	ff 01 00 ff ff ff 01 00 ff ff ff 01 00 ff ff ff     ................
     632:	01 00 01 10 00 01 00 01 10 00 01 00 01 38 00 01     .............8..
     642:	00 00 78 00 00 00 00 fc 00 00 00 00 e7 03 00 00     ..x.............
     652:	c0 e3 0f 00 00 f0 c0 3f 00 00 3c 00 ff 00 00 0e     .......?..<.....
     662:	00 fe 01 00 07 00 f8 01 00 0f 00 e0 01 00 0f 00     ................
     672:	80 01 00 07 00 00 01 00 02 00 00 01 00 00 00 00     ................
     682:	01 00 00 00 00 00 00 00 00 00 00 00 00 00 00 00     ................
	...
     6ce:	00 7e 00 fc 00 00 7e 00 fc 00 00 7f 00 fc 01 00     .~....~.........
     6de:	0f 00 e0 01 00 03 08 80 01 00 01 08 00 01 00 01     ................
     6ee:	08 00 01 00 01 08 00 01 00 01 08 00 01 00 03 0c     ................
     6fe:	80 01 00 03 1c 80 01 00 0f 3f c0 00 00 fe 7f e0     .........?......
     70e:	00 00 fe f7 7f 00 00 fc e3 7f 00 00 f0 c0 3f 00     ..............?.
     71e:	00 00 80 0f 00 00 00 00 00 00 00 00 00 00 00 00     ................
	...
     77e:	01 00 00 01 00 01 00 00 01 00 01 00 00 01 00 ff     ................
     78e:	ff ff 01 00 ff ff ff 01 00 ff ff ff 01 00 ff ff     ................
     79e:	ff 01 00 01 00 1c 01 00 01 00 06 01 00 01 80 03     ................
     7ae:	01 00 00 c0 01 00 00 00 60 00 00 00 00 30 00 00     ........`....0..
     7be:	00 00 1c 00 00 00 00 0e 00 00 00 00 03 00 00 00     ................
     7ce:	c1 01 00 01 00 e1 00 00 01 00 31 00 00 01 00 ff     ..........1.....
     7de:	ff ff 01 00 ff ff ff 01 00 ff ff ff 01 00 ff ff     ................
     7ee:	ff 01 00 01 00 00 01 00 01 00 00 01 00 01 00 00     ................
     7fe:	01 00 00 00 00 00 00 00 00 00 00 00 00 00 00 00     ................
	...
     846:	01 00 00 01 00 01 00 00 01 00 01 00 00 01 00 ff     ................
     856:	ff ff 01 00 ff ff ff 01 00 ff ff ff 01 00 ff ff     ................
     866:	ff 01 0e 01 00 1c 01 1e 01 00 06 01 1e 01 80 03     ................
     876:	01 3e 00 c0 01 00 20 00 60 00 00 20 00 30 00 00     .>.... .`.. .0..
     886:	20 00 1c 00 00 20 00 0e 00 00 20 00 03 00 00 3e      .... .... ....>
     896:	c1 01 00 01 1e e1 00 00 01 1e 31 00 00 01 0e ff     ..........1.....
     8a6:	ff ff 01 00 ff ff ff 01 00 ff ff ff 01 00 ff ff     ................
     8b6:	ff 01 00 01 00 00 01 00 01 00 00 01 00 01 00 00     ................
     8c6:	01 00 00 00 00 00 00 00 00 00 00 00 00 00 00 00     ................
	...
     916:	00 00 01 00 00 01 00 01 00 00 01 00 01 00 00 01     ................
     926:	00 ff ff ff 01 00 ff ff ff 01 00 ff ff ff 01 00     ................
     936:	ff ff ff 01 00 01 10 00 01 00 01 10 00 01 00 01     ................
     946:	38 00 01 00 00 78 00 00 00 00 fc 00 00 00 00 e6     8....x..........
     956:	01 00 00 80 e3 07 00 00 f0 c1 1f 00 00 7c 80 7f     .............|..
     966:	00 00 0e 00 fe 01 00 07 00 f8 01 00 0f 00 e0 01     ................
     976:	00 0f 00 80 01 00 07 00 00 01 00 02 00 00 01 00     ................
     986:	00 00 00 01 00 00 00 00 00 00 00 00 00 00 00 00     ................
	...
     9d6:	00 00 80 00 00 00 00 e0 01 00 00 00 e0 01 00 00     ................
     9e6:	00 e0 01 00 00 00 c0 01 00 01 00 e0 01 00 01 00     ................
     9f6:	f0 00 00 01 00 7e 00 00 01 fc 1f 00 00 ff ff 01     .....~..........
     a06:	00 00 ff 03 00 00 00 01 00 00 00 00 01 00 00 00     ................
     a16:	00 01 00 00 00 00 01 00 00 01 00 01 00 00 01 00     ................
     a26:	01 00 00 01 00 ff ff ff 01 00 ff ff ff 01 00 ff     ................
     a36:	ff ff 01 00 ff ff ff 01 00 01 00 00 01 00 01 00     ................
     a46:	00 01 00 01 00 00 01 00 00 00 00 00 00 00 00 00     ................
	...
     a92:	00 00 01 00 00 01 00 01 00 00 01 00 01 00 00 01     ................
     aa2:	00 ff ff ff 01 00 ff ff ff 01 00 3f 00 00 01 00     ...........?....
     ab2:	ff 00 00 01 00 fe 07 00 01 00 f8 1f 00 00 00 c0     ................
     ac2:	7f 00 00 00 00 ff 03 00 00 00 fc 0f 00 00 00 e0     ................
     ad2:	7f 00 00 00 80 ff 01 00 00 00 fe 01 00 00 00 f8     ................
     ae2:	00 00 00 00 3f 00 00 00 c0 07 00 00 00 f8 00 00     ....?...........
     af2:	00 00 3e 00 00 00 c0 07 00 01 00 f8 01 00 01 00     ..>.............
     b02:	3e 00 00 01 00 ff ff ff 01 00 ff ff ff 01 00 ff     >...............
     b12:	ff ff 01 00 ff ff ff 01 00 01 00 00 01 00 01 00     ................
     b22:	00 01 00 01 00 00 01 00 00 00 00 00 00 00 00 00     ................
	...
     b66:	01 00 00 01 00 01 00 00 01 00 01 00 00 01 00 ff     ................
     b76:	ff ff 01 00 ff ff ff 01 00 ff ff ff 01 00 ff ff     ................
     b86:	ff 01 00 01 10 00 01 00 01 10 00 01 00 01 10 00     ................
     b96:	01 00 00 10 00 00 00 00 10 00 00 00 00 10 00 00     ................
     ba6:	00 00 10 00 00 00 00 10 00 00 00 01 10 00 01 00     ................
     bb6:	01 10 00 01 00 01 10 00 01 00 ff ff ff 01 00 ff     ................
     bc6:	ff ff 01 00 ff ff ff 01 00 ff ff ff 01 00 01 00     ................
     bd6:	00 01 00 01 00 00 01 00 01 00 00 01 00 00 00 00     ................
	...
     c2a:	fe 00 00 00 c0 ff 07 00 00 e0 ff 0f 00 00 f0 ff     ................
     c3a:	1f 00 00 f8 00 3f 00 00 3c 00 7c 00 00 0c 00 70     .....?..<.|....p
     c4a:	00 00 06 00 e0 00 00 02 00 c0 00 00 03 00 80 01     ................
     c5a:	00 01 00 80 01 00 01 00 00 01 00 01 00 00 01 00     ................
     c6a:	01 00 00 01 00 01 00 00 01 00 01 00 00 01 00 03     ................
     c7a:	00 00 01 00 03 00 80 01 00 06 00 80 00 00 0e 00     ................
     c8a:	c0 00 00 1e 00 e0 00 00 7c 00 70 00 00 f8 01 3e     ........|.p....>
     c9a:	00 00 f0 ff 1f 00 00 e0 ff 0f 00 00 c0 ff 07 00     ................
     caa:	00 00 fe 00 00 00 00 00 00 00 00 00 00 00 00 00     ................
	...
     cf6:	01 00 00 01 00 01 00 00 01 00 01 00 00 01 00 ff     ................
     d06:	ff ff 01 00 ff ff ff 01 00 ff ff ff 01 00 ff ff     ................
     d16:	ff 01 00 01 00 00 01 00 01 00 00 01 00 01 00 00     ................
     d26:	01 00 01 00 00 00 00 01 00 00 00 00 01 00 00 00     ................
     d36:	00 01 00 00 00 00 01 00 00 00 00 01 00 00 01 00     ................
     d46:	01 00 00 01 00 01 00 00 01 00 ff ff ff 01 00 ff     ................
     d56:	ff ff 01 00 ff ff ff 01 00 ff ff ff 01 00 01 00     ................
     d66:	00 01 00 01 00 00 01 00 01 00 00 01 00 00 00 00     ................
	...
     dca:	00 00 00 01 00 00 01 00 01 00 00 01 00 01 00 00     ................
     dda:	01 00 ff ff ff 01 00 ff ff ff 01 00 ff ff ff 01     ................
     dea:	00 ff ff ff 01 00 01 20 00 01 00 01 20 00 01 00     ....... .... ...
     dfa:	01 20 00 01 00 01 20 00 00 00 01 20 00 00 00 03     . .... .... ....
     e0a:	30 00 00 00 03 30 00 00 00 07 18 00 00 00 0e 1c     0....0..........
     e1a:	00 00 00 fe 0f 00 00 00 fc 0f 00 00 00 fc 07 00     ................
     e2a:	00 00 f0 01 00 00 00 00 00 00 00 00 00 00 00 00     ................
	...
     e8a:	00 00 fe 00 00 00 80 ff 03 00 00 e0 ff 0f 00 00     ................
     e9a:	f0 ff 1f 00 00 f8 80 3f 00 00 38 00 7c 00 00 0c     .......?..8.|...
     eaa:	00 70 00 00 0e 00 e0 00 00 06 00 c0 00 00 02 00     .p..............
     eba:	c0 00 00 03 00 80 01 00 01 00 80 01 00 01 00 00     ................
     eca:	01 00 01 00 00 01 00 01 00 00 01 00 01 00 00 01     ................
     eda:	00 01 00 00 01 00 01 00 00 01 00 03 00 80 01 00     ................
     eea:	0f 00 e0 01 00 7f 00 fc 00 00 7e 00 fc 00 00 7e     ..........~....~
     efa:	00 fc 00 00 00 00 00 00 00 00 00 00 00 00 00 00     ................
	...
     f52:	00 3f 00 00 00 00 3f 00 00 00 00 3f 00 00 00 00     .?....?....?....
     f62:	07 00 00 00 00 01 00 00 00 00 01 00 00 00 00 01     ................
     f72:	00 00 01 00 01 00 00 01 00 01 00 00 01 00 ff ff     ................
     f82:	ff 01 00 ff ff ff 01 00 ff ff ff 01 00 ff ff ff     ................
     f92:	01 00 01 00 00 01 00 01 00 00 01 00 01 00 00 01     ................
     fa2:	00 01 00 00 00 00 01 00 00 00 00 07 00 00 00 00     ................
     fb2:	3f 00 00 00 00 3f 00 00 00 00 3f 00 00 00 00 00     ?....?....?.....
	...
    1016:	01 00 00 00 00 01 00 00 00 00 01 00 00 00 00 03     ................
    1026:	00 00 00 00 0f 00 80 00 00 3f 00 e0 01 00 ff 00     .........?......
    1036:	e0 01 00 ff 03 e0 01 00 f9 0f c0 01 00 e1 3f c0     ..............?.
    1046:	01 00 81 ff e0 00 00 00 fe 7b 00 00 00 f8 3f 00     .........{....?.
    1056:	00 00 e0 0f 00 00 00 e0 01 00 00 00 78 00 00 00     ............x...
    1066:	00 1f 00 00 00 c1 07 00 00 00 f1 00 00 00 00 3d     ...............=
    1076:	00 00 00 00 0f 00 00 00 00 03 00 00 00 00 01 00     ................
    1086:	00 00 00 01 00 00 00 00 01 00 00 00 00 01 00 00     ................
	...
    10de:	00 7f 00 00 00 c0 ff 01 00 00 e0 ff 03 00 00 f0     ................
    10ee:	ff 07 00 00 f8 80 0f 00 00 38 00 0e 00 00 18 00     .........8......
    10fe:	0c 00 40 0c 00 18 01 40 0c 00 18 01 40 04 00 10     ..@....@....@...
    110e:	01 c0 ff ff ff 01 c0 ff ff ff 01 c0 ff ff ff 01     ................
    111e:	c0 ff ff ff 01 40 04 00 10 01 40 04 00 10 01 40     .....@....@....@
    112e:	0c 00 18 01 00 0c 00 08 00 00 18 00 0c 00 00 38     ...............8
    113e:	00 0e 00 00 f8 80 07 00 00 f0 ff 07 00 00 e0 ff     ................
    114e:	03 00 00 c0 ff 01 00 00 00 7f 00 00 00 00 00 00     ................
	...
    11a6:	01 00 00 01 00 01 00 00 01 00 01 00 00 01 00 01     ................
    11b6:	00 80 01 00 07 00 c0 01 00 1f 00 70 01 00 3f 00     ...........p..?.
    11c6:	38 01 00 ff 00 0e 01 00 f9 03 07 00 00 f1 87 01     8...............
    11d6:	00 00 c1 ff 00 00 00 80 7f 00 00 00 00 fe 00 00     ................
    11e6:	00 00 fe 03 00 00 00 f3 07 01 00 c0 c1 1f 01 00     ................
    11f6:	e1 80 3f 01 00 39 00 fe 01 00 1d 00 f8 01 00 07     ..?..9..........
    1206:	00 f0 01 00 03 00 c0 01 00 01 00 00 01 00 01 00     ................
    1216:	00 01 00 01 00 00 01 00 00 00 00 01 00 00 00 00     ................
	...
    126e:	01 00 00 01 00 01 00 00 01 00 01 00 00 01 00 ff     ................
    127e:	ff ff 01 00 ff ff ff 01 00 ff ff ff 01 00 ff ff     ................
    128e:	ff 01 00 01 00 00 01 00 01 00 00 01 00 01 00 00     ................
    129e:	01 00 00 00 00 01 00 00 00 00 01 00 00 00 00 01     ................
    12ae:	00 00 00 00 01 00 00 00 00 01 00 01 00 00 01 00     ................
    12be:	01 00 00 01 00 01 00 00 01 00 ff ff ff 01 00 ff     ................
    12ce:	ff ff 01 00 ff ff ff 01 00 ff ff ff 01 00 01 00     ................
    12de:	00 1f 00 01 00 00 ff 00 01 00 00 ff 00 00 00 00     ................
    12ee:	ff 00 00 00 00 00 00 00 00 00 00 00 00 00 00 00     ................
	...
    133a:	00 01 00 00 00 00 01 00 00 00 00 01 00 00 00 00     ................
    134a:	ff 0f 00 00 00 ff 1f 00 00 00 ff 3f 00 00 00 ff     ...........?....
    135a:	3f 00 00 00 01 78 00 00 00 01 70 00 00 00 01 60     ?....x....p....`
    136a:	00 00 00 00 60 00 00 00 00 60 00 00 00 00 60 00     ....`....`....`.
    137a:	01 00 01 60 00 01 00 01 60 00 01 00 01 20 00 01     ...`....`.... ..
    138a:	00 ff ff ff 01 00 ff ff ff 01 00 ff ff ff 01 00     ................
    139a:	ff ff ff 01 00 01 00 00 01 00 01 00 00 01 00 01     ................
    13aa:	00 00 01 00 00 00 00 00 00 00 00 00 00 00 00 00     ................
	...
    13ea:	01 00 00 01 00 01 00 00 01 00 01 00 00 01 00 ff     ................
    13fa:	ff ff 01 00 ff ff ff 01 00 ff ff ff 01 00 ff ff     ................
    140a:	ff 01 00 01 00 00 01 00 01 00 00 01 00 01 00 00     ................
    141a:	01 00 00 00 00 01 00 00 00 00 01 00 01 00 00 01     ................
    142a:	00 01 00 00 01 00 01 00 00 01 00 ff ff ff 01 00     ................
    143a:	ff ff ff 01 00 ff ff ff 01 00 ff ff ff 01 00 01     ................
    144a:	00 00 01 00 01 00 00 01 00 01 00 00 01 00 00 00     ................
    145a:	00 01 00 00 00 00 01 00 01 00 00 01 00 01 00 00     ................
    146a:	01 00 01 00 00 01 00 ff ff ff 01 00 ff ff ff 01     ................
    147a:	00 ff ff ff 01 00 ff ff ff 01 00 01 00 00 01 00     ................
    148a:	01 00 00 01 00 01 00 00 01 00 00 00 00 00 00 00     ................
	...
    14aa:	00 00 00 01 00 00 01 00 01 00 00 01 00 01 00 00     ................
    14ba:	01 00 ff ff ff 01 00 ff ff ff 01 00 ff ff ff 01     ................
    14ca:	00 ff ff ff 01 00 01 00 00 01 00 01 00 00 01 00     ................
    14da:	01 00 00 01 00 00 00 00 01 00 00 00 00 01 00 01     ................
    14ea:	00 00 01 00 01 00 00 01 00 01 00 00 01 00 ff ff     ................
    14fa:	ff 01 00 ff ff ff 01 00 ff ff ff 01 00 ff ff ff     ................
    150a:	01 00 01 00 00 01 00 01 00 00 01 00 01 00 00 01     ................
    151a:	00 00 00 00 01 00 00 00 00 01 00 01 00 00 01 00     ................
    152a:	01 00 00 01 00 01 00 00 01 00 ff ff ff 01 00 ff     ................
    153a:	ff ff 01 00 ff ff ff 01 00 ff ff ff 01 00 01 00     ................
    154a:	00 01 00 01 00 00 1f 00 01 00 00 ff 00 00 00 00     ................
    155a:	ff 00 00 00 00 ff 00 00 00 00 00 00 00 00 00 00     ................
	...
    1586:	00 00 00 3f 00 00 00 00 3f 00 00 00 00 3f 00 00     ...?....?....?..
    1596:	00 00 07 00 00 00 00 01 00 00 00 00 01 00 00 00     ................
    15a6:	00 01 00 00 00 00 01 00 00 01 00 01 00 00 01 00     ................
    15b6:	01 00 00 01 00 ff ff ff 01 00 ff ff ff 01 00 ff     ................
    15c6:	ff ff 01 00 ff ff ff 01 00 01 04 00 01 00 01 04     ................
    15d6:	00 01 00 01 04 00 01 00 00 04 00 01 00 00 0c 00     ................
    15e6:	01 00 00 0c 80 01 00 00 0c 80 01 00 00 1c c0 00     ................
    15f6:	00 00 78 e0 00 00 00 f8 ff 00 00 00 f0 7f 00 00     ..x.............
    1606:	00 e0 3f 00 00 00 80 0f 00 00 00 00 00 00 00 00     ..?.............
	...
    164a:	00 00 01 00 00 01 00 01 00 00 01 00 01 00 00 01     ................
    165a:	00 ff ff ff 01 00 ff ff ff 01 00 ff ff ff 01 00     ................
    166a:	ff ff ff 01 00 01 04 00 01 00 01 04 00 01 00 01     ................
    167a:	04 00 01 00 00 04 00 01 00 00 0c 80 01 00 00 0c     ................
    168a:	80 01 00 00 1c c0 01 00 00 78 e0 00 00 00 f8 ff     .........x......
    169a:	00 00 00 f0 7f 00 00 00 e0 3f 00 00 00 80 0f 00     .........?......
    16aa:	00 01 00 00 01 00 01 00 00 01 00 01 00 00 01 00     ................
    16ba:	ff ff ff 01 00 ff ff ff 01 00 ff ff ff 01 00 ff     ................
    16ca:	ff ff 01 00 01 00 00 01 00 01 00 00 01 00 01 00     ................
    16da:	00 01 00 00 00 00 00 00 00 00 00 00 00 00 00 00     ................
	...
    172a:	00 00 00 01 00 00 01 00 01 00 00 01 00 01 00 00     ................
    173a:	01 00 ff ff ff 01 00 ff ff ff 01 00 ff ff ff 01     ................
    174a:	00 ff ff ff 01 00 01 04 00 01 00 01 04 00 01 00     ................
    175a:	01 04 00 01 00 00 04 00 01 00 00 04 00 01 00 00     ................
    176a:	0c 80 01 00 00 0c 80 01 00 00 1c c0 00 00 00 78     ...............x
    177a:	e0 00 00 00 f8 ff 00 00 00 f0 7f 00 00 00 e0 3f     ...............?
    178a:	00 00 00 80 0f 00 00 00 00 00 00 00 00 00 00 00     ................
	...
    17ee:	00 00 7e 00 fc 00 00 7e 00 fc 00 00 7f 00 fc 01     ..~....~........
    17fe:	00 0f 00 e0 01 00 03 00 80 01 00 01 10 00 01 00     ................
    180e:	01 10 00 01 00 01 10 00 01 00 01 10 00 01 00 01     ................
    181e:	10 00 01 00 01 10 00 01 00 03 10 80 01 00 03 10     ................
    182e:	80 00 00 06 10 80 00 00 0e 10 c0 00 00 1e 10 60     ...............`
    183e:	00 00 7c 10 70 00 00 f8 13 3e 00 00 f0 ff 1f 00     ..|.p....>......
    184e:	00 e0 ff 0f 00 00 c0 ff 07 00 00 00 fe 00 00 00     ................
	...
    188e:	00 00 01 00 00 01 00 01 00 00 01 00 01 00 00 01     ................
    189e:	00 ff ff ff 01 00 ff ff ff 01 00 ff ff ff 01 00     ................
    18ae:	ff ff ff 01 00 01 10 00 01 00 01 10 00 01 00 01     ................
    18be:	10 00 01 00 00 fc 01 00 00 80 ff 07 00 00 e0 ff     ................
    18ce:	0f 00 00 f0 ff 1f 00 00 f8 00 3f 00 00 1c 00 7c     ..........?....|
    18de:	00 00 0c 00 f0 00 00 06 00 e0 00 00 02 00 c0 00     ................
    18ee:	00 03 00 80 01 00 01 00 80 01 00 01 00 00 01 00     ................
    18fe:	01 00 00 01 00 01 00 00 01 00 01 00 00 01 00 01     ................
    190e:	00 00 01 00 03 00 00 01 00 03 00 80 01 00 06 00     ................
    191e:	80 00 00 0e 00 c0 00 00 1e 00 e0 00 00 3c 00 70     .............<.p
    192e:	00 00 f8 01 3e 00 00 f8 ff 1f 00 00 e0 ff 0f 00     ....>...........
    193e:	00 c0 ff 07 00 00 00 fe 00 00 00 00 00 00 00 00     ................
	...
    1976:	00 00 00 01 00 00 00 00 01 00 00 00 00 01 00 00     ................
    1986:	00 80 01 00 f0 01 e0 01 00 fc 03 f8 01 00 fe 07     ................
    1996:	fe 01 00 fe 8f 7f 00 00 0f ce 1f 00 00 03 fc 07     ................
    19a6:	00 00 03 f8 01 00 00 01 78 00 00 00 01 30 00 00     ........x....0..
    19b6:	00 01 30 00 01 00 01 10 00 01 00 01 10 00 01 00     ..0.............
    19c6:	ff ff ff 01 00 ff ff ff 01 00 ff ff ff 01 00 ff     ................
    19d6:	ff ff 01 00 01 00 00 01 00 01 00 00 01 00 01 00     ................
    19e6:	00 01 00 00 00 00 00 00 00 00 00 00 00 00 00 00     ................
	...
    1a56:	00 00 00 78 00 00 00 3c fc 00 00 00 3c fe 01 00     ...x...<....<...
    1a66:	00 3e fe 01 00 00 06 c6 01 00 00 02 83 01 00 00     .>..............
    1a76:	02 83 01 00 00 02 81 01 00 00 06 c1 00 00 00 fe     ................
    1a86:	ff 01 00 00 fe ff 01 00 00 fc ff 01 00 00 f8 ff     ................
    1a96:	01 00 00 00 80 01 00 00 00 00 01 00 00 00 00 00     ................
	...
    1b1a:	00 fc 07 00 00 80 ff 1f 00 00 e0 f7 7f 00 00 f0     ................
    1b2a:	f8 ff 00 00 78 1c f0 00 00 38 06 c0 01 00 1c 06     ....x....8......
    1b3a:	80 01 00 1c 02 00 01 00 1c 02 00 01 00 1e 02 00     ................
    1b4a:	01 00 0e 02 00 01 00 0e 06 80 01 00 0e 0e 80 01     ................
    1b5a:	00 0e 3c e0 00 00 0f fc ff 00 00 07 f8 7f 00 80     ..<.............
    1b6a:	03 f0 3f 00 80 01 c0 0f 00 00 00 00 00 00 00 00     ..?.............
	...
    1bea:	00 00 00 02 00 01 00 00 02 00 01 00 00 fe ff 01     ................
    1bfa:	00 00 fe ff 01 00 00 fe ff 01 00 00 fe ff 01 00     ................
    1c0a:	00 02 01 01 00 00 02 01 01 00 00 02 01 01 00 00     ................
    1c1a:	86 03 01 00 00 fe 87 01 00 00 fe ff 01 00 00 fc     ................
    1c2a:	fe 00 00 00 38 fe 00 00 00 00 3c 00 00 00 00 00     ....8.....<.....
	...
    1cb2:	00 00 00 02 00 01 00 00 02 00 01 00 00 fe ff 01     ................
    1cc2:	00 00 fe ff 01 00 00 fe ff 01 00 00 fe ff 01 00     ................
    1cd2:	00 02 00 01 00 00 02 00 01 00 00 02 00 00 00 00     ................
    1ce2:	02 00 00 00 00 06 00 00 00 00 3e 00 00 00 00 3e     ..........>....>
    1cf2:	00 00 00 00 3e 00 00 00 00 00 00 00 00 00 00 00     ....>...........
	...
    1d6e:	00 00 7f 00 00 00 00 7f 00 00 00 00 7f 00 00 02     ................
    1d7e:	c0 0f 00 00 02 f8 01 00 00 82 3f 01 00 00 fe 0f     ..........?.....
    1d8e:	01 00 00 7e 00 01 00 00 02 00 01 00 00 02 00 01     ...~............
    1d9e:	00 00 02 00 01 00 00 02 00 01 00 00 fe ff 01 00     ................
    1dae:	00 fe ff 01 00 00 fe ff 01 00 00 fe ff 0f 00 00     ................
    1dbe:	02 00 7f 00 00 02 00 7f 00 00 00 00 7f 00 00 00     ................
	...
    1e3e:	00 00 c0 0f 00 00 00 f0 3f 00 00 00 f8 7f 00 00     ........?.......
    1e4e:	00 fc ff 00 00 00 9c f8 00 00 00 86 e0 01 00 00     ................
    1e5e:	86 c0 01 00 00 82 c0 01 00 00 82 80 01 00 00 82     ................
    1e6e:	80 01 00 00 86 80 01 00 00 8e 80 01 00 00 fc 80     ................
    1e7e:	01 00 00 fc c0 00 00 00 f8 c0 00 00 00 f0 40 00     ..............@.
	...
    1eee:	00 00 00 01 00 00 06 00 01 00 00 1e 80 01 00 00     ................
    1efe:	1e e0 01 00 00 0e f8 01 00 00 1c fc 01 00 00 78     ...............x
    1f0e:	7e 00 00 00 e0 1f 00 00 00 80 07 00 00 00 02 03     ~...............
    1f1e:	01 00 00 02 01 01 00 00 fe ff 01 00 00 fe ff 01     ................
    1f2e:	00 00 fe ff 01 00 00 fe ff 01 00 00 02 01 01 00     ................
    1f3e:	00 02 03 01 00 00 80 07 00 00 00 e0 1e 00 00 00     ................
    1f4e:	78 7e 00 00 00 1c fc 01 00 00 0e f8 01 00 00 1e     x~..............
    1f5e:	e0 01 00 00 1e 80 01 00 00 06 00 01 00 00 00 00     ................
    1f6e:	01 00 00 00 00 00 00 00 00 00 00 00 00 00 00 00     ................
	...
    1fd2:	00 00 00 3c f0 00 00 00 3e f0 01 00 00 3e f0 01     ...<....>....>..
    1fe2:	00 00 06 81 01 00 00 02 01 01 00 00 02 01 01 00     ................
    1ff2:	00 02 01 01 00 00 86 03 01 00 00 fe 87 01 00 00     ................
    2002:	fc fe 00 00 00 fc fe 00 00 00 78 7e 00 00 00 00     ..........x~....
    2012:	3c 00 00 00 00 00 00 00 00 00 00 00 00 00 00 00     <...............
	...
    208e:	02 00 01 00 00 02 00 01 00 00 fe ff 01 00 00 fe     ................
    209e:	ff 01 00 00 fe ff 01 00 00 fe ff 01 00 00 02 18     ................
    20ae:	01 00 00 02 0c 01 00 00 00 06 00 00 00 80 03 00     ................
    20be:	00 00 c0 01 00 00 00 62 00 01 00 00 32 00 01 00     .......b....2...
    20ce:	00 fe ff 01 00 00 fe ff 01 00 00 fe ff 01 00 00     ................
    20de:	fe ff 01 00 00 02 00 01 00 00 02 00 01 00 00 00     ................
	...
    2156:	02 00 01 00 00 02 00 01 00 00 fe ff 01 00 00 fe     ................
    2166:	ff 01 00 1c fe ff 01 00 3c fe ff 01 00 7c 02 18     ........<....|..
    2176:	01 00 7c 02 0c 01 00 40 00 06 00 00 40 80 03 00     ..|....@....@...
    2186:	00 40 c0 01 00 00 40 62 00 01 00 7c 32 00 01 00     .@....@b...|2...
    2196:	7c fe ff 01 00 3c fe ff 01 00 1c fe ff 01 00 00     |....<..........
    21a6:	fe ff 01 00 00 02 00 01 00 00 02 00 01 00 00 00     ................
	...
    2226:	00 00 02 00 01 00 00 02 00 01 00 00 fe ff 01 00     ................
    2236:	00 fe ff 01 00 00 fe ff 01 00 00 fe ff 01 00 00     ................
    2246:	02 01 01 00 00 02 01 01 00 00 80 03 00 00 00 c0     ................
    2256:	0f 00 00 00 60 3e 00 00 00 38 fe 00 00 00 1c fc     ....`>...8......
    2266:	01 00 00 0e f0 01 00 00 1e c0 01 00 00 1e 00 01     ................
    2276:	00 00 06 00 01 00 00 00 00 01 00 00 00 00 00 00     ................
	...
    22e2:	80 00 00 00 00 e0 01 00 00 00 e0 01 00 00 00 c0     ................
    22f2:	01 00 00 02 c0 01 00 00 02 f0 00 00 00 02 7f 00     ................
    2302:	00 00 fe 1f 00 00 00 fe 00 00 00 00 02 00 00 00     ................
    2312:	00 02 00 00 00 00 02 00 01 00 00 02 00 01 00 00     ................
    2322:	fe ff 01 00 00 fe ff 01 00 00 fe ff 01 00 00 fe     ................
    2332:	ff 01 00 00 02 00 01 00 00 02 00 01 00 00 00 00     ................
	...
    23a6:	00 00 00 02 00 01 00 00 02 00 01 00 00 fe ff 01     ................
    23b6:	00 00 fe ff 01 00 00 7e 00 01 00 00 fe 01 01 00     .......~........
    23c6:	00 fe 0f 00 00 00 f0 3f 00 00 00 c0 ff 01 00 00     .......?........
    23d6:	00 fe 01 00 00 00 f0 01 00 00 00 3e 00 00 00 80     ...........>....
    23e6:	0f 00 00 00 f0 01 01 00 00 7e 00 01 00 00 fe ff     .........~......
    23f6:	01 00 00 fe ff 01 00 00 fe ff 01 00 00 fe ff 01     ................
    2406:	00 00 02 00 01 00 00 02 00 01 00 00 00 00 00 00     ................
	...
    2476:	02 00 01 00 00 02 00 01 00 00 fe ff 01 00 00 fe     ................
    2486:	ff 01 00 00 fe ff 01 00 00 fe ff 01 00 00 02 01     ................
    2496:	01 00 00 02 01 01 00 00 00 01 00 00 00 00 01 00     ................
    24a6:	00 00 00 01 00 00 00 02 01 01 00 00 02 01 01 00     ................
    24b6:	00 fe ff 01 00 00 fe ff 01 00 00 fe ff 01 00 00     ................
    24c6:	fe ff 01 00 00 02 00 01 00 00 02 00 01 00 00 00     ................
	...
    2542:	00 c0 0f 00 00 00 f0 3f 00 00 00 f8 7f 00 00 00     .......?........
    2552:	fc ff 00 00 00 1c f0 00 00 00 06 c0 01 00 00 06     ................
    2562:	80 01 00 00 02 00 01 00 00 02 00 01 00 00 02 00     ................
    2572:	01 00 00 02 00 01 00 00 06 80 01 00 00 0e 80 01     ................
    2582:	00 00 3c e0 00 00 00 fc ff 00 00 00 f8 7f 00 00     ..<.............
    2592:	00 f0 3f 00 00 00 c0 0f 00 00 00 00 00 00 00 00     ..?.............
	...
    260a:	00 02 00 01 00 00 02 00 01 00 00 fe ff 01 00 00     ................
    261a:	fe ff 01 00 00 fe ff 01 00 00 fe ff 01 00 00 02     ................
    262a:	00 01 00 00 02 00 01 00 00 02 00 00 00 00 02 00     ................
    263a:	00 00 00 02 00 01 00 00 02 00 01 00 00 fe ff 01     ................
    264a:	00 00 fe ff 01 00 00 fe ff 01 00 00 fe ff 01 00     ................
    265a:	00 02 00 01 00 00 02 00 01 00 00 00 00 00 00 00     ................
	...
    26d2:	00 04 00 00 00 00 04 00 00 00 00 fe ff ff 00 00     ................
    26e2:	fe ff ff 00 00 fe ff ff 00 00 fe ff ff 00 00 0c     ................
    26f2:	00 01 00 00 04 00 01 00 00 06 00 01 00 00 06 00     ................
    2702:	01 00 00 06 00 01 00 00 0e 80 01 00 00 0e c0 00     ................
    2712:	00 00 3e f0 00 00 00 fc 7f 00 00 00 fc 3f 00 00     ..>..........?..
    2722:	00 f8 1f 00 00 00 e0 07 00 00 00 00 00 00 00 00     ................
	...
    279e:	00 00 c0 0f 00 00 00 e0 3f 00 00 00 f8 7f 00 00     ........?.......
    27ae:	00 f8 ff 00 00 00 1c f8 00 00 00 0c e0 01 00 00     ................
    27be:	06 c0 01 00 00 02 c0 01 00 00 02 80 01 00 00 02     ................
    27ce:	80 01 00 00 02 80 01 00 00 02 80 01 00 00 0e 80     ................
    27de:	01 00 00 3e c0 00 00 00 3e c0 00 00 00 00 40 00     ...>....>.....@.
	...
    2866:	00 00 3e 00 00 00 00 3e 00 00 00 00 3e 00 00 00     ..>....>....>...
    2876:	00 06 00 00 00 00 02 00 01 00 00 02 00 01 00 00     ................
    2886:	fe ff 01 00 00 fe ff 01 00 00 fe ff 01 00 00 fe     ................
    2896:	ff 01 00 00 02 00 01 00 00 02 00 01 00 00 06 00     ................
    28a6:	00 00 00 3e 00 00 00 00 3e 00 00 00 00 3e 00 00     ...>....>....>..
	...
    2926:	02 00 00 00 00 02 00 00 00 00 06 00 80 00 00 1e     ................
    2936:	00 80 00 00 7e 00 80 00 00 fe 01 c0 00 00 fa 07     ....~...........
    2946:	c0 00 00 e2 1f f0 00 00 82 7f 78 00 00 00 fe 1f     ..........x.....
    2956:	00 00 00 f8 07 00 00 00 f0 00 00 00 00 3e 00 00     .............>..
    2966:	00 82 0f 00 00 00 e2 01 00 00 00 7a 00 00 00 00     ...........z....
    2976:	1e 00 00 00 00 06 00 00 00 00 02 00 00 00 00 02     ................
	...
    29e2:	00 00 c0 1f 00 00 00 f0 3f 00 00 00 f8 ff 00 00     ........?.......
    29f2:	00 fc ff 00 00 00 3c e0 01 00 00 0e 80 01 00 00     ......<.........
    2a02:	06 00 01 00 00 02 00 01 00 02 02 00 01 00 02 06     ................
    2a12:	80 01 00 ff ff ff ff 00 ff ff ff ff 00 ff ff ff     ................
    2a22:	ff 00 ff ff ff ff 00 00 06 80 01 00 00 02 00 01     ................
    2a32:	00 00 02 00 01 00 00 02 80 01 00 00 06 c0 01 00     ................
    2a42:	00 1e e0 00 00 00 fc ff 00 00 00 fc 7f 00 00 00     ................
    2a52:	f0 3f 00 00 00 e0 0f 00 00 00 00 00 00 00 00 00     .?..............
	...
    2ab6:	02 00 01 00 00 02 00 01 00 00 02 00 01 00 00 06     ................
    2ac6:	80 01 00 00 1e e0 01 00 00 3e 70 01 00 00 7e 18     .........>p...~.
    2ad6:	01 00 00 fa 0d 00 00 00 e0 07 00 00 00 c0 0f 00     ................
    2ae6:	00 00 c0 1f 00 00 00 72 3e 01 00 00 3a fc 01 00     .......r>...:...
    2af6:	00 0e f0 01 00 00 06 e0 01 00 00 02 c0 01 00 00     ................
    2b06:	02 00 01 00 00 02 00 01 00 00 00 00 01 00 00 00     ................
	...
    2b82:	00 02 00 01 00 00 02 00 01 00 00 fe ff 01 00 00     ................
    2b92:	fe ff 01 00 00 fe ff 01 00 00 fe ff 01 00 00 02     ................
    2ba2:	00 01 00 00 02 00 01 00 00 00 00 01 00 00 00 00     ................
    2bb2:	01 00 00 02 00 01 00 00 02 00 01 00 00 fe ff 01     ................
    2bc2:	00 00 fe ff 01 00 00 fe ff 01 00 00 fe ff 0f 00     ................
    2bd2:	00 02 00 7f 00 00 02 00 7f 00 00 00 00 7f 00 00     ................
	...
    2c46:	02 00 00 00 00 02 00 00 00 00 fe 00 00 00 00 fe     ................
    2c56:	03 00 00 00 fe 03 00 00 00 fe 07 00 00 00 02 07     ................
    2c66:	00 00 00 02 06 00 00 00 00 06 00 00 00 00 06 01     ................
    2c76:	00 00 02 06 01 00 00 02 06 01 00 00 fe ff 01 00     ................
    2c86:	00 fe ff 01 00 00 fe ff 01 00 00 fe ff 01 00 00     ................
    2c96:	02 00 01 00 00 02 00 01 00 00 00 00 00 00 00 00     ................
	...
    2cfe:	00 02 00 01 00 00 02 00 01 00 00 fe ff 01 00 00     ................
    2d0e:	fe ff 01 00 00 fe ff 01 00 00 fe ff 01 00 00 02     ................
    2d1e:	00 01 00 00 02 00 01 00 00 00 00 01 00 00 02 00     ................
    2d2e:	01 00 00 02 00 01 00 00 fe ff 01 00 00 fe ff 01     ................
    2d3e:	00 00 fe ff 01 00 00 fe ff 01 00 00 02 00 01 00     ................
    2d4e:	00 02 00 01 00 00 00 00 01 00 00 02 00 01 00 00     ................
    2d5e:	02 00 01 00 00 fe ff 01 00 00 fe ff 01 00 00 fe     ................
    2d6e:	ff 01 00 00 fe ff 01 00 00 02 00 01 00 00 02 00     ................
    2d7e:	01 00 00 00 00 00 00 00 00 00 00 00 00 00 00 00     ................
	...
    2dc2:	02 00 01 00 00 02 00 01 00 00 fe ff 01 00 00 fe     ................
    2dd2:	ff 01 00 00 fe ff 01 00 00 fe ff 01 00 00 02 00     ................
    2de2:	01 00 00 02 00 01 00 00 00 00 01 00 00 02 00 01     ................
    2df2:	00 00 02 00 01 00 00 fe ff 01 00 00 fe ff 01 00     ................
    2e02:	00 fe ff 01 00 00 fe ff 01 00 00 02 00 01 00 00     ................
    2e12:	02 00 01 00 00 00 00 01 00 00 02 00 01 00 00 02     ................
    2e22:	00 01 00 00 fe ff 01 00 00 fe ff 01 00 00 fe ff     ................
    2e32:	01 00 00 fe ff 0f 00 00 02 00 7f 00 00 02 00 7f     ................
    2e42:	00 00 00 00 7f 00 00 00 00 00 00 00 00 00 00 00     ................
	...
    2e9e:	3e 00 00 00 00 3e 00 00 00 00 3e 00 00 00 00 06     >....>....>.....
    2eae:	00 00 00 00 02 00 01 00 00 02 00 01 00 00 fe ff     ................
    2ebe:	01 00 00 fe ff 01 00 00 fe ff 01 00 00 fe ff 01     ................
    2ece:	00 00 02 01 01 00 00 02 01 01 00 00 00 01 01 00     ................
    2ede:	00 00 03 01 00 00 00 87 01 00 00 00 ff 01 00 00     ................
    2eee:	00 fe 00 00 00 00 fe 00 00 00 00 38 00 00 00 00     ...........8....
	...
    2f5a:	00 00 02 00 01 00 00 02 00 01 00 00 fe ff 01 00     ................
    2f6a:	00 fe ff 01 00 00 fe ff 01 00 00 fe ff 01 00 00     ................
    2f7a:	02 01 01 00 00 02 01 01 00 00 00 01 01 00 00 00     ................
    2f8a:	03 01 00 00 00 87 01 00 00 00 ff 01 00 00 00 fe     ................
    2f9a:	00 00 00 00 fe 00 00 00 00 38 00 00 00 02 00 01     .........8......
    2faa:	00 00 02 00 01 00 00 fe ff 01 00 00 fe ff 01 00     ................
    2fba:	00 fe ff 01 00 00 fe ff 01 00 00 02 00 01 00 00     ................
    2fca:	02 00 01 00 00 00 00 00 00 00 00 00 00 00 00 00     ................
	...
    303a:	00 00 00 02 00 01 00 00 02 00 01 00 00 fe ff 01     ................
    304a:	00 00 fe ff 01 00 00 fe ff 01 00 00 fe ff 01 00     ................
    305a:	00 02 01 01 00 00 02 01 01 00 00 00 01 01 00 00     ................
    306a:	00 03 01 00 00 00 87 01 00 00 00 ff 01 00 00 00     ................
    307a:	fe 00 00 00 00 fe 00 00 00 00 38 00 00 00 00 00     ..........8.....
	...
    30fe:	00 00 3c f0 00 00 00 3e f0 01 00 00 3e f0 01 00     ..<....>....>...
    310e:	00 0e c1 01 00 00 02 01 01 00 00 02 01 01 00 00     ................
    311e:	02 01 01 00 00 02 01 01 00 00 06 01 01 00 00 06     ................
    312e:	81 01 00 00 0e c1 00 00 00 3c f1 00 00 00 fc 7f     .........<......
    313e:	00 00 00 f8 7f 00 00 00 f0 1f 00 00 00 c0 0f 00     ................
	...
    31ae:	00 02 00 01 00 00 02 00 01 00 00 fe ff 01 00 00     ................
    31be:	fe ff 01 00 00 fe ff 01 00 00 fe ff 01 00 00 02     ................
    31ce:	01 01 00 00 02 01 01 00 00 c0 0f 00 00 00 f0 3f     ...............?
    31de:	00 00 00 f8 7f 00 00 00 fc ff 00 00 00 1c f0 00     ................
    31ee:	00 00 0e c0 01 00 00 06 80 01 00 00 02 80 01 00     ................
    31fe:	00 02 00 01 00 00 02 00 01 00 00 02 00 01 00 00     ................
    320e:	06 80 01 00 00 0e 80 01 00 00 3c e0 00 00 00 fc     ..........<.....
    321e:	ff 00 00 00 f8 7f 00 00 00 f0 3f 00 00 00 c0 0f     ..........?.....
	...
    3286:	00 00 01 00 00 00 00 01 00 00 00 00 01 00 00 f8     ................
    3296:	c0 01 00 00 fc f1 01 00 00 fc f9 01 00 00 fe ff     ................
    32a6:	00 00 00 06 3f 00 00 00 02 0f 00 00 00 02 06 01     ....?...........
    32b6:	00 00 02 02 01 00 00 fe ff 01 00 00 fe ff 01 00     ................
    32c6:	00 fe ff 01 00 00 fe ff 01 00 00 02 00 01 00 00     ................
    32d6:	02 00 01 00 00 00 00 00 00 00 00 00 00 00 00 00     ................
	...

0000331a <Syffaen32x32>:
	...
    33ce:	80 7f 00 07 80 ff 3f 07 80 ff 3f 07 80 7f 00 07     ......?...?.....
	...
    344a:	80 3f 00 00 80 3f 00 00 80 03 00 00 80 3f 00 00     .?...?.......?..
    345a:	80 3f 00 00 80 03 00 00 00 00 00 00 00 00 00 00     .?..............
	...
    34ba:	00 00 20 00 00 40 20 00 00 40 20 07 00 40 fc 07     .. ..@ ..@ ..@..
    34ca:	00 f0 ff 00 00 fe 23 00 00 4e 20 00 00 40 20 00     ......#..N ..@ .
    34da:	00 40 20 07 00 40 fc 07 00 f0 ff 00 00 fe 23 00     .@ ..@........#.
    34ea:	00 4e 20 00 00 40 20 00 00 40 20 00 00 40 00 00     .N ..@ ..@ ..@..
	...
    3542:	00 78 c0 03 00 fc c0 07 00 fe 01 06 00 fe 03 04     .x..............
    3552:	00 c3 03 04 c0 ff ff 1f c0 ff ff 1f 00 01 1e 06     ................
    3562:	00 03 fe 03 00 1f fc 03 00 1e fc 01 00 00 f0 00     ................
	...
    35aa:	00 fc 00 00 00 fe 03 00 00 ff 03 00 80 03 07 00     ................
    35ba:	80 01 06 00 80 00 04 00 80 01 04 06 80 03 87 07     ................
    35ca:	00 ff e3 01 00 ff 79 00 00 fc 1e 00 00 80 07 00     ......y.........
    35da:	00 e0 fd 00 00 78 fe 03 00 1e ff 03 80 87 03 07     .....x..........
    35ea:	80 81 01 06 00 80 00 04 00 80 01 04 00 80 03 07     ................
    35fa:	00 00 ff 03 00 00 ff 01 00 00 fc 00 00 00 00 00     ................
	...
    36d2:	80 3f 00 00 80 3f 00 00 80 03 00 00 00 00 00 00     .?...?..........
	...
    374e:	00 80 ff 00 00 f0 ff 07 00 fc ff 1f 00 7e 00 3f     .............~.?
    375e:	00 0f 00 78 80 03 00 e0 c0 00 00 80 40 00 00 00     ...x........@...
	...
    37c6:	40 00 00 00 c0 00 00 80 80 03 00 e0 00 0f 00 78     @..............x
    37d6:	00 7e 00 3f 00 fc ff 1f 00 f0 ff 07 00 80 ff 00     .~.?............
	...
    384a:	00 22 00 00 00 36 00 00 00 36 00 00 80 ff 00 00     ."...6...6......
    385a:	80 ff 00 00 80 ff 00 00 00 36 00 00 00 36 00 00     .........6...6..
    386a:	00 22 00 00 00 00 00 00 00 00 00 00 00 00 00 00     ."..............
	...
    38be:	00 00 10 00 00 00 10 00 00 00 10 00 00 00 10 00     ................
    38ce:	00 00 10 00 00 00 10 00 00 c0 ff 07 00 c0 ff 07     ................
    38de:	00 00 10 00 00 00 10 00 00 00 10 00 00 00 10 00     ................
    38ee:	00 00 10 00 00 00 10 00 00 00 00 00 00 00 00 00     ................
	...
    394e:	00 00 00 43 00 00 00 67 00 00 00 3f 00 00 00 3f     ...C...g...?...?
    395e:	00 00 00 1e 00 00 00 00 00 00 00 00 00 00 00 00     ................
	...
    39c6:	00 00 0c 00 00 00 0c 00 00 00 0c 00 00 00 0c 00     ................
    39d6:	00 00 0c 00 00 00 0c 00 00 00 0c 00 00 00 0c 00     ................
    39e6:	00 00 0c 00 00 00 0c 00 00 00 00 00 00 00 00 00     ................
	...
    3a52:	00 00 00 07 00 00 00 07 00 00 00 07 00 00 00 07     ................
	...
    3ac6:	00 00 00 18 00 00 00 1f 00 00 c0 07 00 00 f8 00     ................
    3ad6:	00 00 3f 00 00 e0 07 00 00 f8 00 00 00 1f 00 00     ..?.............
    3ae6:	c0 07 00 00 c0 00 00 00 00 00 00 00 00 00 00 00     ................
	...
    3b3e:	00 e0 3f 00 00 fc ff 01 00 fe ff 03 00 ff ff 03     ..?.............
    3b4e:	80 07 c0 07 80 01 00 06 80 00 00 04 80 00 00 04     ................
    3b5e:	80 01 00 06 80 0f 80 07 00 ff ff 03 00 ff ff 01     ................
    3b6e:	00 fe ff 00 00 f0 1f 00 00 00 00 00 00 00 00 00     ................
	...
    3bc6:	00 02 00 00 00 02 00 04 00 03 00 04 00 03 00 04     ................
    3bd6:	80 ff ff 07 80 ff ff 07 80 ff ff 07 80 ff ff 07     ................
    3be6:	00 00 00 04 00 00 00 04 00 00 00 04 00 00 00 00     ................
	...
    3c3e:	00 00 00 06 00 0f 00 07 80 0f 80 07 80 01 c0 07     ................
    3c4e:	80 00 e0 07 80 00 70 07 80 00 38 07 80 01 1e 07     ......p...8.....
    3c5e:	80 83 0f 07 80 ff 07 07 00 ff 03 07 00 ff 00 07     ................
    3c6e:	00 3c 00 07 00 00 00 07 00 00 00 00 00 00 00 00     .<..............
	...
    3cbe:	00 00 c0 03 00 0f c0 07 80 0f 00 06 80 01 00 04     ................
    3cce:	80 00 01 04 80 00 01 04 80 00 01 04 80 81 01 04     ................
    3cde:	80 c1 03 06 80 ff 07 03 00 7f ff 03 00 3f fe 01     .............?..
    3cee:	00 1e fe 01 00 00 78 00 00 00 00 00 00 00 00 00     ......x.........
	...
    3d3e:	00 00 30 00 00 00 38 00 00 00 3e 00 00 00 37 00     ..0...8...>...7.
    3d4e:	00 c0 31 00 00 f0 30 04 00 38 30 04 00 fe ff 07     ..1...0..80.....
    3d5e:	80 ff ff 07 80 ff ff 07 80 ff ff 07 00 00 30 04     ..............0.
    3d6e:	00 00 30 04 00 00 30 00 00 00 00 00 00 00 00 00     ..0...0.........
	...
    3dbe:	00 00 00 02 80 ff 01 06 80 ff 01 06 80 ff 01 04     ................
    3dce:	80 c3 01 04 80 c3 01 04 80 c3 01 06 80 c3 03 06     ................
    3dde:	80 c3 07 03 80 83 ff 03 80 83 ff 01 80 03 ff 00     ................
    3dee:	00 00 7e 00 00 00 00 00 00 00 00 00 00 00 00 00     ..~.............
	...
    3e3e:	00 00 7f 00 00 c0 ff 01 00 f0 ff 03 00 f8 ff 03     ................
    3e4e:	00 fc 83 07 00 be 01 06 00 8f 01 04 00 87 01 04     ................
    3e5e:	00 83 03 04 80 81 07 07 80 81 ff 03 80 00 ff 03     ................
    3e6e:	80 00 fe 01 00 00 7c 00 00 00 00 00 00 00 00 00     ......|.........
	...
    3ebe:	80 0f 00 00 80 0f 00 00 80 03 00 04 80 03 00 07     ................
    3ece:	80 03 c0 07 80 03 f0 07 80 03 fc 03 80 03 7f 00     ................
    3ede:	80 c3 1f 00 80 e3 07 00 80 fb 00 00 80 3f 00 00     .............?..
    3eee:	80 07 00 00 80 01 00 00 00 00 00 00 00 00 00 00     ................
	...
    3f3e:	00 00 f0 00 00 3c f8 01 00 7f fc 03 00 ff fe 07     .....<..........
    3f4e:	80 ff 0f 07 80 e1 03 06 80 c0 03 04 80 80 07 04     ................
    3f5e:	80 c1 07 04 80 ff 0f 07 00 7f fe 03 00 3f fe 03     .............?..
    3f6e:	00 1e fc 01 00 00 f8 00 00 00 00 00 00 00 00 00     ................
	...
    3fbe:	00 f8 00 00 00 fe 01 00 00 ff 03 04 00 ff 07 04     ................
    3fce:	80 83 07 06 80 00 07 06 80 00 06 03 80 00 c6 03     ................
    3fde:	80 01 f6 01 80 07 ff 00 00 ff ff 00 00 ff 3f 00     ..............?.
    3fee:	00 fe 1f 00 00 f8 03 00 00 00 00 00 00 00 00 00     ................
	...
    4052:	00 c0 01 07 00 c0 01 07 00 c0 01 07 00 c0 01 07     ................
	...
    40d2:	00 c0 01 43 00 c0 01 67 00 c0 01 3f 00 c0 01 3f     ...C...g...?...?
    40e2:	00 00 00 1e 00 00 00 00 00 00 00 00 00 00 00 00     ................
	...
    4142:	00 00 18 00 00 00 18 00 00 00 3c 00 00 00 24 00     ..........<...$.
    4152:	00 00 66 00 00 00 42 00 00 00 c3 00 00 00 81 00     ..f...B.........
    4162:	00 80 81 01 00 80 00 01 00 c0 00 03 00 40 00 02     .............@..
	...
    41be:	00 00 44 00 00 00 44 00 00 00 44 00 00 00 44 00     ..D...D...D...D.
    41ce:	00 00 44 00 00 00 44 00 00 00 44 00 00 00 44 00     ..D...D...D...D.
    41de:	00 00 44 00 00 00 44 00 00 00 44 00 00 00 44 00     ..D...D...D...D.
    41ee:	00 00 44 00 00 00 44 00 00 00 00 00 00 00 00 00     ..D...D.........
	...
    4242:	00 40 00 02 00 c0 00 03 00 80 00 01 00 80 81 01     .@..............
    4252:	00 00 81 00 00 00 c3 00 00 00 42 00 00 00 66 00     ..........B...f.
    4262:	00 00 24 00 00 00 3c 00 00 00 18 00 00 00 18 00     ..$...<.........
	...
    42c6:	00 07 00 00 80 07 00 00 80 00 00 07 80 00 3c 07     ..............<.
    42d6:	80 80 3f 07 80 e1 07 07 80 ff 01 00 80 ff 00 00     ..?.............
    42e6:	00 7f 00 00 00 1e 00 00 00 00 00 00 00 00 00 00     ................
	...
    432a:	00 00 fc 01 00 00 ff 0f 00 c0 ff 1f 00 e0 ff 3f     ...............?
    433a:	00 f0 03 7e 00 78 00 f0 00 38 f0 e1 00 0c fe c3     ...~.x...8......
    434a:	00 0c ff 87 00 86 ff 87 00 86 07 07 00 c2 00 07     ................
    435a:	00 42 80 03 00 42 f0 03 00 c2 ff 07 00 c2 ff 07     .B...B..........
    436a:	00 c6 ff 87 00 c4 07 84 00 0c 00 86 00 1c 00 03     ................
    437a:	00 78 c0 03 00 f0 ff 01 00 e0 7f 00 00 80 3f 00     .x............?.
	...
    43ae:	00 00 00 04 00 00 00 04 00 00 00 06 00 00 80 07     ................
    43be:	00 00 e0 05 00 00 7c 04 00 00 1f 04 00 c0 0b 00     ......|.........
    43ce:	00 f8 08 00 00 3e 08 00 80 1f 08 00 80 7f 08 00     .....>..........
    43de:	00 ff 0b 00 00 fc 0f 04 00 e0 7f 04 00 80 ff 05     ................
    43ee:	00 00 fc 07 00 00 f0 07 00 00 80 07 00 00 00 06     ................
    43fe:	00 00 00 04 00 00 00 04 00 00 00 00 00 00 00 00     ................
	...
    443a:	80 00 00 04 80 00 00 04 80 00 00 04 80 ff ff 07     ................
    444a:	80 ff ff 07 80 ff ff 07 80 ff ff 07 80 00 01 04     ................
    445a:	80 00 01 04 80 81 01 04 80 c3 03 06 80 ff 07 07     ................
    446a:	00 ff fe 03 00 7f fe 03 00 3e fc 01 00 00 f8 00     .........>......
	...
    44b6:	00 c0 0f 00 00 f0 3f 00 00 f8 ff 00 00 fc ff 01     ......?.........
    44c6:	00 1e f0 01 00 07 c0 03 00 03 80 03 00 01 00 07     ................
    44d6:	80 01 00 06 80 00 00 06 80 00 00 04 80 00 00 04     ................
    44e6:	80 00 00 04 80 00 00 04 80 00 00 04 80 01 00 06     ................
    44f6:	80 0f c0 07 80 0f c0 07 00 00 00 00 00 00 00 00     ................
	...
    4532:	80 00 00 04 80 00 00 04 80 00 00 04 80 ff ff 07     ................
    4542:	80 ff ff 07 80 ff ff 07 80 ff ff 07 80 00 00 04     ................
    4552:	80 00 00 04 80 00 00 04 80 00 00 04 80 01 00 04     ................
    4562:	80 01 00 06 00 03 00 02 00 07 00 03 00 1f c0 03     ................
    4572:	00 fe ff 01 00 fc ff 00 00 f8 7f 00 00 e0 1f 00     ................
	...
    45ba:	80 00 00 04 80 00 00 04 80 00 00 04 80 ff ff 07     ................
    45ca:	80 ff ff 07 80 ff ff 07 80 ff ff 07 80 00 01 04     ................
    45da:	80 00 01 04 80 00 01 04 80 e0 0f 04 80 e0 0f 04     ................
    45ea:	80 00 00 04 80 01 00 06 80 0f c0 07 80 0f c0 07     ................
	...
    463a:	80 00 00 04 80 00 00 04 80 00 00 04 80 ff ff 07     ................
    464a:	80 ff ff 07 80 ff ff 07 80 ff ff 07 80 00 02 04     ................
    465a:	80 00 02 04 80 00 02 04 80 c0 1f 00 80 c0 1f 00     ................
    466a:	80 00 00 00 80 0f 00 00 80 0f 00 00 00 00 00 00     ................
	...
    46b2:	00 c0 0f 00 00 f0 3f 00 00 f8 ff 00 00 fc ff 01     ......?.........
    46c2:	00 1e f0 01 00 07 c0 03 00 03 00 03 00 01 00 07     ................
    46d2:	80 01 00 06 80 00 00 04 80 00 00 04 80 00 04 04     ................
    46e2:	80 00 04 04 80 00 04 04 80 00 fc 07 80 01 fc 07     ................
    46f2:	80 0f fc 07 80 0f fc 03 00 00 04 00 00 00 04 00     ................
	...
    472e:	80 00 00 04 80 00 00 04 80 00 00 04 80 ff ff 07     ................
    473e:	80 ff ff 07 80 ff ff 07 80 ff ff 07 80 00 01 04     ................
    474e:	80 00 01 04 80 00 01 04 00 00 01 00 00 00 01 00     ................
    475e:	80 00 01 04 80 00 01 04 80 00 01 04 80 ff ff 07     ................
    476e:	80 ff ff 07 80 ff ff 07 80 ff ff 07 80 00 00 04     ................
    477e:	80 00 00 04 80 00 00 04 00 00 00 00 00 00 00 00     ................
	...
    47c6:	80 00 00 04 80 00 00 04 80 00 00 04 80 ff ff 07     ................
    47d6:	80 ff ff 07 80 ff ff 07 80 ff ff 07 80 00 00 04     ................
    47e6:	80 00 00 04 80 00 00 04 00 00 00 00 00 00 00 00     ................
	...
    4846:	80 00 00 80 80 00 00 c0 80 00 00 f0 80 ff ff 7f     ................
    4856:	80 ff ff 3f 80 ff ff 1f 80 ff ff 07 80 00 00 00     ...?............
    4866:	80 00 00 00 80 00 00 00 00 00 00 00 00 00 00 00     ................
	...
    48b6:	80 00 00 04 80 00 00 04 80 00 00 04 80 ff ff 07     ................
    48c6:	80 ff ff 07 80 ff ff 07 80 ff ff 07 80 80 03 04     ................
    48d6:	80 c0 0f 04 80 e0 1f 04 00 30 7e 00 00 1c fc 04     .........0~.....
    48e6:	80 0e f0 07 80 03 e0 07 80 01 80 07 80 00 00 07     ................
    48f6:	80 00 00 04 80 00 00 04 00 00 00 04 00 00 00 00     ................
	...
    493a:	80 00 00 04 80 00 00 04 80 00 00 04 80 ff ff 07     ................
    494a:	80 ff ff 07 80 ff ff 07 80 ff ff 07 80 00 00 04     ................
    495a:	80 00 00 04 80 00 00 04 00 00 00 04 00 00 00 04     ................
    496a:	00 00 00 04 00 00 c0 07 00 00 c0 07 00 00 00 00     ................
	...
    49a6:	80 00 00 04 80 00 00 04 80 00 00 04 80 ff ff 07     ................
    49b6:	80 ff ff 07 80 1f 00 04 80 ff 00 04 80 ff 07 04     ................
    49c6:	00 fc 1f 00 00 e0 ff 00 00 00 ff 07 00 00 f8 07     ................
    49d6:	00 00 e0 03 00 00 7c 00 00 80 1f 00 00 e0 03 04     ......|.........
    49e6:	00 7c 00 04 80 1f 00 04 80 ff ff 07 80 ff ff 07     .|..............
    49f6:	80 ff ff 07 80 ff ff 07 80 00 00 04 80 00 00 04     ................
    4a06:	80 00 00 04 00 00 00 00 00 00 00 00 00 00 00 00     ................
	...
    4a2e:	80 00 00 04 80 00 00 04 80 00 00 04 80 ff ff 07     ................
    4a3e:	80 ff ff 07 80 07 00 04 80 1f 00 04 00 3f 00 04     .............?..
    4a4e:	00 7c 00 00 00 f8 01 00 00 f0 03 00 00 c0 0f 00     .|..............
    4a5e:	00 80 1f 00 00 00 3f 00 80 00 fc 00 80 00 f8 01     ......?.........
    4a6e:	80 00 e0 03 80 ff ff 07 80 ff ff 07 80 00 00 00     ................
    4a7e:	80 00 00 00 80 00 00 00 00 00 00 00 00 00 00 00     ................
	...
    4aae:	00 c0 0f 00 00 f0 7f 00 00 fc ff 00 00 fe ff 01     ................
    4abe:	00 1e f0 01 00 07 c0 03 00 03 00 03 80 01 00 06     ................
    4ace:	80 00 00 06 80 00 00 04 80 00 00 04 80 00 00 04     ................
    4ade:	80 01 00 04 80 01 00 06 80 03 00 02 00 0f 80 03     ................
    4aee:	00 3f e0 03 00 fe ff 01 00 fc ff 00 00 f8 7f 00     .?..............
    4afe:	00 e0 0f 00 00 00 00 00 00 00 00 00 00 00 00 00     ................
	...
    4b3a:	80 00 00 04 80 00 00 04 80 00 00 04 80 ff ff 07     ................
    4b4a:	80 ff ff 07 80 ff ff 07 80 ff ff 07 80 00 02 04     ................
    4b5a:	80 00 02 04 80 00 02 04 80 01 03 00 80 83 03 00     ................
    4b6a:	80 ff 01 00 00 ff 01 00 00 fe 00 00 00 7c 00 00     .............|..
	...
    4bae:	00 c0 0f 00 00 f0 7f 00 00 fc ff 00 00 fe ff 01     ................
    4bbe:	00 1e f0 01 00 07 c0 03 00 03 00 03 80 01 00 06     ................
    4bce:	80 00 00 06 80 00 00 04 80 00 00 04 80 00 00 04     ................
    4bde:	80 01 00 0c 80 01 00 0e 80 03 00 1e 00 0f 80 3b     ...............;
    4bee:	00 3f e0 7b 00 fe ff 71 00 fc ff f0 00 f8 7f e0     .?.{...q........
    4bfe:	00 e0 0f e0 00 00 00 c0 00 00 00 c0 00 00 00 c0     ................
    4c0e:	00 00 00 c0 00 00 00 c0 00 00 00 40 00 00 00 00     ...........@....
	...
    4c36:	80 00 00 04 80 00 00 04 80 00 00 04 80 ff ff 07     ................
    4c46:	80 ff ff 07 80 ff ff 07 80 ff ff 07 80 00 02 04     ................
    4c56:	80 00 06 04 80 00 0e 04 80 01 1f 00 80 83 7f 00     ................
    4c66:	00 ff fd 01 00 ff f1 07 00 fe e0 07 00 7c 80 07     .............|..
    4c76:	00 00 00 06 00 00 00 04 00 00 00 04 00 00 00 00     ................
	...
    4cbe:	00 7c c0 07 00 fe c0 07 00 ff 01 06 00 ff 01 04     .|..............
    4cce:	80 c3 03 04 80 81 03 04 80 80 07 04 80 00 07 06     ................
    4cde:	80 00 0f 07 80 01 fe 03 80 0f fe 03 80 0f fc 01     ................
    4cee:	00 00 f8 00 00 00 00 00 00 00 00 00 00 00 00 00     ................
	...
    4d3a:	80 0f 00 00 80 0f 00 00 80 00 00 00 80 00 00 04     ................
    4d4a:	80 00 00 04 80 00 00 04 80 ff ff 07 80 ff ff 07     ................
    4d5a:	80 ff ff 07 80 ff ff 07 80 00 00 04 80 00 00 04     ................
    4d6a:	80 00 00 04 80 00 00 00 80 0f 00 00 80 0f 00 00     ................
	...
    4dae:	80 00 00 00 80 00 00 00 80 00 00 00 80 ff 7f 00     ................
    4dbe:	80 ff ff 01 80 ff ff 03 80 ff ff 03 80 00 80 07     ................
    4dce:	80 00 00 06 80 00 00 06 00 00 00 04 00 00 00 04     ................
    4dde:	00 00 00 04 00 00 00 04 80 00 00 06 80 00 00 02     ................
    4dee:	80 00 80 03 80 ff ff 01 80 ff 7f 00 80 00 00 00     ................
    4dfe:	80 00 00 00 80 00 00 00 00 00 00 00 00 00 00 00     ................
	...
    4e2e:	80 00 00 00 80 00 00 00 80 01 00 00 80 07 00 00     ................
    4e3e:	80 3f 00 00 80 ff 00 00 80 fe 07 00 80 f8 1f 00     .?..............
    4e4e:	80 c0 ff 00 00 00 ff 03 00 00 f8 07 00 00 e0 07     ................
    4e5e:	00 00 f0 01 00 00 7c 00 00 80 0f 00 80 e0 03 00     ......|.........
    4e6e:	80 7c 00 00 80 1f 00 00 80 03 00 00 80 00 00 00     .|..............
    4e7e:	80 00 00 00 80 00 00 00 00 00 00 00 00 00 00 00     ................
	...
    4e9a:	80 00 00 00 80 00 00 00 80 01 00 00 80 07 00 00     ................
    4eaa:	80 3f 00 00 80 ff 01 00 80 fe 07 00 80 f8 3f 00     .?............?.
    4eba:	80 c0 ff 00 00 00 ff 07 80 00 f8 07 80 00 e0 07     ................
    4eca:	80 00 fc 00 80 07 1f 00 80 ff 03 00 80 ff 00 00     ................
    4eda:	80 ff 07 00 80 f8 3f 00 80 c0 ff 01 00 00 ff 07     ......?.........
    4eea:	00 00 f8 07 00 00 e0 07 00 00 fc 00 00 00 1f 00     ................
    4efa:	80 e0 03 00 80 fc 00 00 80 1f 00 00 80 03 00 00     ................
    4f0a:	80 00 00 00 80 00 00 00 80 00 00 00 00 00 00 00     ................
	...
    4f32:	80 00 00 04 80 00 00 04 80 00 00 06 80 03 00 07     ................
    4f42:	80 07 80 05 80 1f e0 04 80 7f 70 04 80 fc 1c 00     ..........p.....
    4f52:	80 f8 0f 00 00 e0 0f 00 00 c0 1f 00 00 e0 7f 04     ................
    4f62:	00 30 fc 04 80 1c f8 07 80 0e e0 07 80 03 80 07     .0..............
    4f72:	80 01 00 07 80 00 00 04 80 00 00 04 00 00 00 04     ................
	...
    4fae:	80 00 00 00 80 00 00 00 80 00 00 00 80 01 00 00     ................
    4fbe:	80 07 00 00 80 1f 00 00 80 3f 00 04 80 fe 00 04     .........?......
    4fce:	80 f8 03 04 00 e0 ff 07 00 c0 ff 07 00 00 ff 07     ................
    4fde:	00 00 ff 07 00 c0 03 04 80 f0 00 04 80 3c 00 04     .............<..
    4fee:	80 0e 00 00 80 03 00 00 80 01 00 00 80 00 00 00     ................
    4ffe:	80 00 00 00 00 00 00 00 00 00 00 00 00 00 00 00     ................
	...
    5036:	00 00 00 04 80 0f 00 07 80 0f c0 07 80 01 e0 07     ................
    5046:	80 00 f8 07 80 00 fc 04 80 00 3f 04 80 80 1f 04     ..........?.....
    5056:	80 e0 07 04 80 f0 03 04 80 fc 00 04 80 7f 00 04     ................
    5066:	80 1f 00 04 80 0f 00 06 80 03 c0 07 80 00 c0 07     ................
	...
    50ce:	c0 ff ff ff c0 ff ff ff c0 ff ff ff 40 00 00 00     ............@...
    50de:	40 00 00 00 40 00 00 00 00 00 00 00 00 00 00 00     @...@...........
	...
    5146:	c0 00 00 00 c0 07 00 00 00 1f 00 00 00 f8 00 00     ................
    5156:	00 e0 07 00 00 00 3f 00 00 00 f8 00 00 00 c0 07     ......?.........
    5166:	00 00 00 1f 00 00 00 18 00 00 00 00 00 00 00 00     ................
	...
    51ca:	40 00 00 00 40 00 00 00 40 00 00 00 c0 ff ff ff     @...@...@.......
    51da:	c0 ff ff ff c0 ff ff ff 00 00 00 00 00 00 00 00     ................
	...
    5242:	00 00 02 00 00 80 03 00 00 f0 01 00 00 7c 00 00     .............|..
    5252:	00 0f 00 00 80 03 00 00 80 03 00 00 00 0f 00 00     ................
    5262:	00 7c 00 00 00 f0 01 00 00 80 03 00 00 00 02 00     .|..............
	...
    52ba:	00 00 00 40 00 00 00 40 00 00 00 40 00 00 00 40     ...@...@...@...@
    52ca:	00 00 00 40 00 00 00 40 00 00 00 40 00 00 00 40     ...@...@...@...@
    52da:	00 00 00 40 00 00 00 40 00 00 00 40 00 00 00 40     ...@...@...@...@
    52ea:	00 00 00 40 00 00 00 40 00 00 00 40 00 00 00 40     ...@...@...@...@
	...
    534a:	80 00 00 00 80 01 00 00 80 03 00 00 80 07 00 00     ................
    535a:	00 0f 00 00 00 0c 00 00 00 00 00 00 00 00 00 00     ................
	...
    53c2:	00 00 c0 03 00 80 e3 07 00 c0 f3 07 00 c0 f0 07     ................
    53d2:	00 40 18 06 00 40 18 06 00 c0 08 03 00 c0 ff 07     .@...@..........
    53e2:	00 c0 ff 07 00 80 ff 07 00 00 ff 07 00 00 00 04     ................
    53f2:	00 00 00 04 00 00 00 00 00 00 00 00 00 00 00 00     ................
	...
    543a:	80 00 00 00 80 00 00 00 c0 ff ff 03 c0 ff ff 07     ................
    544a:	c0 ff ff 07 c0 ff ff 07 00 80 01 04 00 c0 00 04     ................
    545a:	00 c0 00 04 00 c0 01 06 00 c0 03 07 00 c0 ff 03     ................
    546a:	00 80 ff 01 00 00 ff 00 00 00 7e 00 00 00 00 00     ..........~.....
	...
    54c2:	00 00 fc 00 00 00 ff 01 00 80 ff 03 00 80 ff 07     ................
    54d2:	00 c0 c1 07 00 c0 00 07 00 40 00 06 00 40 00 06     .........@...@..
    54e2:	00 40 00 06 00 c0 00 02 00 c0 03 03 00 c0 03 01     .@..............
	...
    553e:	00 00 fc 00 00 00 fe 01 00 00 ff 03 00 80 ff 07     ................
    554e:	00 c0 81 07 00 c0 00 07 00 40 00 06 80 40 00 06     .........@...@..
    555e:	80 40 00 03 c0 ff ff 07 c0 ff ff 07 c0 ff ff 07     .@..............
    556e:	c0 ff ff 07 00 00 00 04 00 00 00 04 00 00 00 00     ................
	...
    55c2:	00 00 fc 00 00 00 ff 01 00 80 ff 03 00 80 ff 07     ................
    55d2:	00 c0 89 07 00 40 08 07 00 40 08 06 00 c0 08 06     .....@...@......
    55e2:	00 c0 0f 06 00 c0 0f 02 00 80 0f 03 00 00 0f 01     ................
	...
    564a:	00 40 00 04 00 40 00 04 00 fe ff 07 80 ff ff 07     .@...@..........
    565a:	80 ff ff 07 c0 ff ff 07 c0 40 00 04 40 40 00 04     .........@..@@..
    566a:	40 40 00 04 c0 03 00 00 c0 03 00 00 00 00 00 00     @@..............
	...
    56be:	00 00 00 c0 00 00 1e e7 00 80 bf f7 00 80 ff ff     ................
    56ce:	00 c0 7f 1e 00 c0 60 0e 00 40 40 0e 00 c0 60 0e     ......`..@@...`.
    56de:	00 c0 7f 0e 00 c0 3f 1e 00 c0 3f fe 00 40 0f fe     ......?...?..@..
    56ee:	00 40 00 fc 00 40 00 78 00 00 00 00 00 00 00 00     .@...@.x........
	...
    5736:	80 00 00 04 80 00 00 04 c0 ff ff 07 c0 ff ff 07     ................
    5746:	c0 ff ff 07 c0 ff ff 07 00 80 01 04 00 c0 00 04     ................
    5756:	00 c0 00 00 00 c0 00 04 00 c0 01 04 00 c0 ff 07     ................
    5766:	00 c0 ff 07 00 80 ff 07 00 00 ff 07 00 00 00 04     ................
    5776:	00 00 00 04 00 00 00 00 00 00 00 00 00 00 00 00     ................
	...
    57ca:	00 80 00 04 00 80 00 04 80 c3 ff 07 80 c3 ff 07     ................
    57da:	80 c3 ff 07 80 c3 ff 07 00 00 00 04 00 00 00 04     ................
	...
    584a:	00 80 00 00 00 80 00 c0 80 c3 ff ff 80 c3 ff ff     ................
    585a:	80 c3 ff 7f 80 c3 ff 1f 00 00 00 00 00 00 00 00     ................
	...
    58ba:	80 00 00 04 80 00 00 04 c0 ff ff 07 c0 ff ff 07     ................
    58ca:	c0 ff ff 07 c0 ff ff 07 00 00 1c 04 00 00 7c 04     ..............|.
    58da:	00 40 fe 04 00 40 fb 07 00 c0 e1 07 00 c0 c0 07     .@...@..........
    58ea:	00 40 00 07 00 40 00 06 00 40 00 04 00 00 00 04     .@...@...@......
	...
    594a:	80 00 00 04 80 00 00 04 c0 ff ff 07 c0 ff ff 07     ................
    595a:	c0 ff ff 07 c0 ff ff 07 00 00 00 04 00 00 00 04     ................
	...
    59aa:	00 80 00 04 00 80 00 04 00 c0 ff 07 00 c0 ff 07     ................
    59ba:	00 c0 ff 07 00 c0 ff 07 00 80 01 04 00 c0 00 04     ................
    59ca:	00 c0 00 04 00 c0 01 04 00 c0 ff 07 00 c0 ff 07     ................
    59da:	00 80 ff 07 00 80 ff 07 00 80 01 04 00 c0 00 04     ................
    59ea:	00 c0 00 04 00 c0 01 04 00 c0 ff 07 00 c0 ff 07     ................
    59fa:	00 80 ff 07 00 00 ff 07 00 00 00 04 00 00 00 04     ................
	...
    5a36:	00 80 00 04 00 80 00 04 00 c0 ff 07 00 c0 ff 07     ................
    5a46:	00 c0 ff 07 00 c0 ff 07 00 80 01 04 00 c0 00 04     ................
    5a56:	00 c0 00 00 00 c0 00 04 00 c0 01 04 00 c0 ff 07     ................
    5a66:	00 c0 ff 07 00 80 ff 07 00 00 ff 07 00 00 00 04     ................
    5a76:	00 00 00 04 00 00 00 00 00 00 00 00 00 00 00 00     ................
	...
    5abe:	00 00 7c 00 00 00 ff 01 00 80 ff 03 00 80 ff 03     ..|.............
    5ace:	00 c0 81 07 00 c0 00 06 00 40 00 04 00 40 00 04     .........@...@..
    5ade:	00 c0 00 04 00 c0 03 07 00 80 ff 03 00 80 ff 03     ................
    5aee:	00 00 ff 01 00 00 7c 00 00 00 00 00 00 00 00 00     ......|.........
	...
    5b3a:	00 80 00 00 00 80 00 00 00 c0 ff ff 00 c0 ff ff     ................
    5b4a:	00 c0 ff ff 00 c0 ff ff 00 80 01 04 00 c0 00 04     ................
    5b5a:	00 c0 00 04 00 c0 01 06 00 c0 03 07 00 c0 ff 03     ................
    5b6a:	00 80 ff 03 00 00 ff 00 00 00 7e 00 00 00 00 00     ..........~.....
	...
    5bbe:	00 00 fc 00 00 00 fe 01 00 00 ff 03 00 80 ff 07     ................
    5bce:	00 c0 81 07 00 c0 00 07 00 40 00 06 00 40 00 06     .........@...@..
    5bde:	00 40 00 03 00 c0 ff ff 00 c0 ff ff 00 c0 ff ff     .@..............
    5bee:	00 c0 ff ff 00 00 00 00 00 00 00 00 00 00 00 00     ................
	...
    5c42:	00 80 00 04 00 80 00 04 00 c0 ff 07 00 c0 ff 07     ................
    5c52:	00 c0 ff 07 00 c0 ff 07 00 80 03 04 00 c0 01 04     ................
    5c62:	00 c0 01 04 00 c0 03 00 00 c0 03 00 00 80 00 00     ................
	...
    5cc6:	00 00 8f 07 00 80 9f 07 00 c0 1f 06 00 c0 3c 04     ..............<.
    5cd6:	00 40 3c 04 00 40 78 06 00 c0 fb 07 00 c0 f3 03     .@<..@x.........
    5ce6:	00 00 e0 01 00 00 00 00 00 00 00 00 00 00 00 00     ................
	...
    5d42:	00 40 00 00 00 60 00 00 00 e0 ff 01 00 f0 ff 03     .@...`..........
    5d52:	00 f8 ff 07 00 f8 ff 07 00 40 00 07 00 40 00 06     .........@...@..
    5d62:	00 40 00 06 00 40 00 03 00 00 00 01 00 00 00 00     .@...@..........
	...
    5db6:	00 80 00 00 00 80 00 00 00 c0 ff 01 00 c0 ff 03     ................
    5dc6:	00 c0 ff 07 00 c0 ff 07 00 00 00 07 00 00 00 06     ................
    5dd6:	00 00 00 06 00 80 00 06 00 80 00 03 00 c0 ff 07     ................
    5de6:	00 c0 ff 07 00 c0 ff 07 00 c0 ff 07 00 00 00 04     ................
    5df6:	00 00 00 04 00 00 00 00 00 00 00 00 00 00 00 00     ................
	...
    5e3a:	00 40 00 00 00 40 00 00 00 c0 01 00 00 c0 07 00     .@...@..........
    5e4a:	00 c0 1f 00 00 c0 ff 00 00 40 fe 03 00 40 f8 07     .........@...@..
    5e5a:	00 00 e0 07 00 00 e0 03 00 40 78 00 00 40 1e 00     .........@x..@..
    5e6a:	00 c0 07 00 00 c0 01 00 00 40 00 00 00 40 00 00     .........@...@..
	...
    5eaa:	00 40 00 00 00 40 00 00 00 c0 01 00 00 c0 07 00     .@...@..........
    5eba:	00 c0 3f 00 00 c0 ff 00 00 40 ff 07 00 40 f8 07     ..?......@...@..
    5eca:	00 40 e0 07 00 40 f0 01 00 c0 7d 00 00 c0 0f 00     .@...@....}.....
    5eda:	00 c0 3f 00 00 c0 ff 00 00 40 fe 07 00 40 f8 07     ..?......@...@..
    5eea:	00 00 c0 07 00 40 f8 00 00 40 3e 00 00 c0 07 00     .....@...@>.....
    5efa:	00 c0 01 00 00 40 00 00 00 40 00 00 00 00 00 00     .....@...@......
	...
    5f3a:	00 40 00 04 00 40 00 04 00 c0 00 06 00 c0 83 07     .@...@..........
    5f4a:	00 c0 c7 05 00 c0 7f 00 00 c0 3f 00 00 40 fe 04     ..........?..@..
    5f5a:	00 00 fe 07 00 40 f7 07 00 c0 c1 07 00 c0 80 07     .....@..........
    5f6a:	00 40 00 06 00 40 00 04 00 00 00 04 00 00 00 00     .@...@..........
	...
    5fba:	00 40 00 00 00 40 00 80 00 c0 01 80 00 c0 07 80     .@...@..........
    5fca:	00 c0 1f c0 00 c0 7f e0 00 40 fe 79 00 40 f8 3f     .........@.y.@.?
    5fda:	00 00 e0 07 00 00 e0 01 00 40 78 00 00 40 1e 00     .........@x..@..
    5fea:	00 c0 07 00 00 c0 01 00 00 40 00 00 00 40 00 00     .........@...@..
	...
    6042:	00 c0 03 06 00 c0 03 07 00 40 c0 07 00 40 e0 07     .........@...@..
    6052:	00 40 f8 07 00 40 fc 04 00 40 7e 04 00 c0 1f 04     .@...@...@~.....
    6062:	00 c0 0f 04 00 c0 07 04 00 c0 81 07 00 c0 80 07     ................
	...
    60ce:	00 1f 08 78 80 7f 1c ff 80 ff ff ff c0 ff f7 ff     ...x............
    60de:	c0 e0 e3 83 40 00 00 00 40 00 00 00 00 00 00 00     ....@...@.......
	...
    6156:	e0 ff ff ff e0 ff ff ff e0 ff ff ff 00 00 00 00     ................
	...
    61ca:	40 00 00 00 40 00 00 00 c0 e0 e3 83 c0 ff f7 ff     @...@...........
    61da:	80 ff ff ff 80 7f 1c ff 00 1f 08 78 00 00 00 00     ...........x....
	...
    6242:	00 02 00 00 00 03 00 00 80 01 00 00 80 00 00 00     ................
    6252:	80 00 00 00 80 01 00 00 00 03 00 00 00 02 00 00     ................
    6262:	00 02 00 00 00 03 00 00 80 01 00 00 80 00 00 00     ................
	...
    62c6:	f8 ff ff 0f f8 ff ff 0f f8 ff ff 0f 18 00 00 0c     ................
    62d6:	18 00 00 0c 18 00 00 0c f8 ff ff 0f f8 ff ff 0f     ................
    62e6:	f8 ff ff 0f 00 00 00 00 00 00 00 00 00 00 00 00     ................
	...
    6332:	80 0f 00 00 80 0f 00 00 80 00 00 00 80 00 00 04     ................
    6342:	80 00 00 04 80 00 00 04 80 ff ff 07 80 ff ff 07     ................
    6352:	80 ff ff 07 80 ff ff 07 80 00 06 84 80 00 03 c4     ................
    6362:	80 00 03 c4 80 00 03 60 80 0f 07 70 80 0f 0f 3c     .......`...p...<
    6372:	00 00 ff 1f 00 00 fe 0f 00 00 fc 07 00 00 f8 01     ................
	...
    63ba:	80 00 00 04 80 00 00 04 80 00 00 04 80 ff ff 07     ................
    63ca:	80 ff ff 07 80 ff ff 07 90 ff ff 07 9c 00 00 04     ................
    63da:	8e 00 00 04 8e 00 00 04 86 00 00 00 82 00 00 00     ................
    63ea:	80 00 00 00 80 0f 00 00 80 0f 00 00 00 00 00 00     ................
	...
    644e:	00 00 00 43 00 00 00 67 00 00 00 3f 00 00 00 3f     ...C...g...?...?
    645e:	00 00 00 1e 00 00 00 00 00 00 00 00 00 00 00 00     ................
	...
    64be:	00 40 00 04 00 40 00 04 00 c0 ff 07 00 c0 ff 07     .@...@..........
    64ce:	00 c0 ff 07 00 cc ff 07 00 4f 00 04 80 47 00 04     .........O...G..
    64de:	80 43 00 00 80 41 00 00 80 c0 03 00 00 c0 03 00     .C...A..........
	...
    6546:	00 00 00 43 00 00 00 67 00 00 00 3f 00 00 00 3f     ...C...g...?...?
    6556:	00 00 00 1e 00 00 00 43 00 00 00 67 00 00 00 3f     .......C...g...?
    6566:	00 00 00 3f 00 00 00 1e 00 00 00 00 00 00 00 00     ...?............
	...
    65aa:	00 00 00 07 00 00 00 07 00 00 00 07 00 00 00 07     ................
	...
    65d2:	00 00 00 07 00 00 00 07 00 00 00 07 00 00 00 07     ................
	...
    65fa:	00 00 00 07 00 00 00 07 00 00 00 07 00 00 00 07     ................
	...
    6642:	00 c0 01 00 00 c0 01 00 00 c0 01 00 00 c0 01 00     ................
    6652:	80 8f fe 01 80 ff ff ff 80 ff ff ff 80 8f fe 01     ................
    6662:	00 c0 01 00 00 c0 01 00 00 c0 01 00 00 c0 01 00     ................
	...
    66c2:	00 c0 81 03 00 c0 81 03 00 c0 81 03 00 c0 81 03     ................
    66d2:	80 8f 3c f1 80 ff ff ff 80 ff ff ff 80 8f 3c f1     ..<...........<.
    66e2:	00 c0 81 03 00 c0 81 03 00 c0 81 03 00 c0 81 03     ................
	...
    673a:	00 80 04 00 00 e0 1f 00 00 f8 7f 00 00 fc ff 01     ................
    674a:	00 fe ff 01 00 8f e4 03 00 83 84 07 80 81 04 06     ................
    675a:	80 80 04 06 80 80 04 04 80 80 04 04 80 00 00 04     ................
    676a:	80 01 00 06 80 0f c0 07 80 0f c0 07 00 00 00 00     ................
	...
    679a:	00 fe 03 00 00 ff 03 00 80 03 07 00 80 01 06 00     ................
    67aa:	80 00 04 00 80 01 04 06 80 03 87 07 00 ff e3 01     ................
    67ba:	00 ff 79 00 00 fc 1e 00 00 80 07 00 00 e0 fd 00     ..y.............
    67ca:	00 78 fe 03 00 1e ff 03 80 87 03 07 80 81 01 06     .x..............
    67da:	00 80 00 04 00 80 01 04 00 80 03 07 00 00 ff 03     ................
    67ea:	00 00 ff 01 00 00 fc 00 00 00 fc 00 00 00 fe 03     ................
    67fa:	00 00 ff 03 00 80 03 07 00 80 01 06 00 80 00 04     ................
    680a:	00 80 01 04 00 80 03 07 00 00 ff 03 00 00 ff 01     ................
    681a:	00 00 00 00 00 00 00 02 00 00 80 07 00 00 80 07     ................
    682a:	00 00 00 07 00 00 00 07 80 00 80 03 80 00 f0 03     ................
    683a:	80 80 ff 00 80 ff 1f 00 80 7f 00 00 80 00 00 00     ................
    684a:	80 00 00 04 80 00 00 04 80 00 00 04 80 ff ff 07     ................
    685a:	80 ff ff 07 80 ff ff 07 80 ff ff 07 80 80 00 04     ................
    686a:	80 80 00 04 80 80 00 04 00 80 01 04 00 80 01 06     ................
    687a:	00 80 07 07 00 00 ff 03 00 00 ff 03 00 00 fe 01     ................
    688a:	00 00 7c 00 00 00 00 00 00 00 00 00 00 00 00 00     ..|.............
	...
    68ce:	00 00 18 00 00 00 3c 00 00 00 7e 00 00 00 ff 00     ......<...~.....
    68de:	00 80 e7 01 00 80 81 01 00 00 00 00 00 00 00 00     ................
	...
    6922:	80 00 00 04 80 00 00 04 80 00 00 04 80 ff ff 07     ................
    6932:	80 ff ff 07 80 ff ff 07 80 ff ff 07 80 80 00 04     ................
    6942:	80 80 00 04 80 80 00 04 00 80 00 00 80 80 00 04     ................
    6952:	80 80 00 04 80 80 00 04 80 ff ff 07 80 ff ff 07     ................
    6962:	80 ff ff 07 80 ff ff 07 80 80 00 04 80 80 00 04     ................
    6972:	80 80 00 04 00 80 01 04 00 80 01 06 00 80 07 07     ................
    6982:	00 00 ff 03 00 00 ff 03 00 00 fe 01 00 00 78 00     ..............x.
	...
    69b2:	80 00 00 04 80 00 00 04 80 00 00 04 80 ff ff 07     ................
    69c2:	80 ff ff 07 80 ff ff 07 80 ff ff 07 80 00 01 04     ................
    69d2:	90 00 03 04 9c 80 03 04 0e c0 0f 00 0e 60 3e 00     .............`>.
    69e2:	06 38 fe 00 02 1e fc 03 00 07 f0 07 80 03 c0 07     .8..............
    69f2:	80 07 00 07 80 07 00 04 80 01 00 04 00 00 00 04     ................
	...
    6a2e:	80 0f 00 00 80 0f 00 00 80 00 00 00 80 00 00 04     ................
    6a3e:	80 00 00 04 80 00 00 04 80 ff ff 07 80 ff ff 07     ................
    6a4e:	80 ff ff 07 80 ff ff 07 80 00 06 04 80 00 02 04     ................
    6a5e:	80 00 03 00 80 00 03 00 80 0f 03 04 80 0f 07 04     ................
    6a6e:	00 00 ff 07 00 00 ff 07 00 00 fe 07 00 00 fc 07     ................
    6a7e:	00 00 00 04 00 00 00 04 00 00 00 04 00 00 00 00     ................
	...
    6aae:	80 00 00 04 80 00 00 04 80 00 00 04 80 ff ff 07     ................
    6abe:	80 ff ff 07 80 ff ff 07 80 ff ff 07 80 00 00 04     ................
    6ace:	80 00 00 04 80 00 00 7c 00 00 00 fc 00 00 00 fc     .......|........
    6ade:	80 00 00 7c 80 00 00 04 80 00 00 04 80 ff ff 07     ...|............
    6aee:	80 ff ff 07 80 ff ff 07 80 ff ff 07 80 00 00 04     ................
    6afe:	80 00 00 04 80 00 00 04 00 00 00 00 00 00 00 00     ................
	...
    6b36:	80 08 00 04 80 08 00 04 c0 ff ff 07 c0 ff ff 07     ................
    6b46:	c0 ff ff 07 c0 ff ff 07 00 88 01 04 00 c8 00 84     ................
    6b56:	00 c8 00 c0 00 c8 00 e0 00 c0 01 70 00 c0 03 3e     ...........p...>
    6b66:	00 c0 ff 1f 00 80 ff 0f 00 80 ff 03 00 00 fe 00     ................
	...
    6bce:	00 0f 00 00 80 1f 00 00 80 1f 00 00 c0 1c 00 00     ................
    6bde:	40 18 00 00 00 00 00 00 00 00 00 00 00 00 00 00     @...............
	...
    6c4e:	c0 10 00 00 c0 19 00 00 c0 0f 00 00 c0 0f 00 00     ................
    6c5e:	80 07 00 00 00 00 00 00 00 00 00 00 00 00 00 00     ................
	...
    6cc6:	00 0f 00 00 80 1f 00 00 80 1f 00 00 c0 1c 00 00     ................
    6cd6:	40 18 00 00 00 0f 00 00 80 1f 00 00 80 1f 00 00     @...............
    6ce6:	c0 1c 00 00 40 18 00 00 00 00 00 00 00 00 00 00     ....@...........
	...
    6d46:	c0 10 00 00 c0 19 00 00 c0 0f 00 00 c0 0f 00 00     ................
    6d56:	80 07 00 00 c0 10 00 00 c0 19 00 00 c0 0f 00 00     ................
    6d66:	c0 0f 00 00 80 07 00 00 00 00 00 00 00 00 00 00     ................
	...
    6dca:	00 80 03 00 00 c0 07 00 00 c0 07 00 00 c0 07 00     ................
    6dda:	00 c0 07 00 00 80 03 00 00 00 00 00 00 00 00 00     ................
	...
    6e3a:	00 00 0c 00 00 00 0c 00 00 00 0c 00 00 00 0c 00     ................
    6e4a:	00 00 0c 00 00 00 0c 00 00 00 0c 00 00 00 0c 00     ................
    6e5a:	00 00 0c 00 00 00 0c 00 00 00 0c 00 00 00 0c 00     ................
    6e6a:	00 00 0c 00 00 00 0c 00 00 00 0c 00 00 00 0c 00     ................
	...
    6e9e:	00 00 0c 00 00 00 0c 00 00 00 0c 00 00 00 0c 00     ................
    6eae:	00 00 0c 00 00 00 0c 00 00 00 0c 00 00 00 0c 00     ................
    6ebe:	00 00 0c 00 00 00 0c 00 00 00 0c 00 00 00 0c 00     ................
    6ece:	00 00 0c 00 00 00 0c 00 00 00 0c 00 00 00 0c 00     ................
    6ede:	00 00 0c 00 00 00 0c 00 00 00 0c 00 00 00 0c 00     ................
    6eee:	00 00 0c 00 00 00 0c 00 00 00 0c 00 00 00 0c 00     ................
    6efe:	00 00 0c 00 00 00 0c 00 00 00 0c 00 00 00 0c 00     ................
    6f0e:	00 00 0c 00 00 00 0c 00 00 00 00 00 00 00 00 00     ................
	...
    6fa6:	80 03 00 00 80 03 00 00 80 00 00 00 80 00 04 00     ................
    6fb6:	80 ff 07 00 80 ff 07 00 80 ff 07 00 80 00 04 00     ................
    6fc6:	80 00 00 00 80 03 00 00 80 03 00 00 80 00 04 00     ................
    6fd6:	80 ff 07 00 80 ff 07 00 80 0f 04 00 80 7f 00 00     ................
    6fe6:	00 fc 01 00 00 f0 07 00 00 80 07 00 00 e0 03 00     ................
    6ff6:	00 7c 00 00 80 1f 04 00 80 ff 07 00 80 ff 07 00     .|..............
    7006:	80 ff 07 00 80 00 04 00 00 00 00 00 00 00 00 00     ................
	...
    702e:	00 00 00 06 00 00 00 07 00 00 00 07 00 40 00 07     .............@..
    703e:	00 40 e0 03 00 c0 ff 00 00 c0 1f 00 00 40 00 04     .@...........@..
    704e:	00 40 00 04 00 c0 ff 07 00 c0 ff 07 00 c0 ff 07     .@..............
    705e:	00 c0 ff 07 00 40 08 04 00 40 08 04 00 00 18 06     .....@...@......
    706e:	00 00 f8 07 00 00 f8 07 00 00 f0 03 00 00 e0 01     ................
	...
    70ce:	00 80 81 01 00 80 e7 01 00 00 ff 00 00 00 7e 00     ..............~.
    70de:	00 00 3c 00 00 00 18 00 00 00 00 00 00 00 00 00     ..<.............
	...
    712a:	00 40 00 04 00 40 00 04 00 c0 ff 07 00 c0 ff 07     .@...@..........
    713a:	00 c0 ff 07 00 c0 ff 07 00 40 08 04 00 40 08 04     .........@...@..
    714a:	00 00 08 00 00 40 08 04 00 40 08 04 00 c0 ff 07     .....@...@......
    715a:	00 c0 ff 07 00 c0 ff 07 00 c0 ff 07 00 40 08 04     .............@..
    716a:	00 40 08 04 00 00 18 06 00 00 f8 07 00 00 f8 07     .@..............
    717a:	00 00 f0 03 00 00 e0 01 00 00 00 00 00 00 00 00     ................
	...
    71ba:	00 40 00 04 00 40 00 04 00 c0 ff 07 00 c0 ff 07     .@...@..........
    71ca:	00 c0 ff 07 00 c0 ff 07 00 4c 10 04 00 4f 38 04     .........L...O8.
    71da:	80 07 fe 00 80 03 f7 03 80 81 e1 07 80 c0 c0 07     ................
    71ea:	00 c0 81 07 00 c0 01 06 00 c0 00 04 00 00 00 04     ................
	...
    7236:	80 08 00 04 80 08 00 04 c0 ff ff 07 c0 ff ff 07     ................
    7246:	c0 ff ff 07 c0 ff ff 07 00 88 01 04 00 c8 00 04     ................
    7256:	00 c8 00 00 00 c8 00 04 00 c0 01 04 00 c0 ff 07     ................
    7266:	00 c0 ff 07 00 80 ff 07 00 00 ff 07 00 00 00 04     ................
    7276:	00 00 00 04 00 00 00 00 00 00 00 00 00 00 00 00     ................
	...
    72b6:	00 40 00 04 00 40 00 04 00 c0 ff 07 00 c0 ff 07     .@...@..........
    72c6:	00 c0 ff 07 00 c0 ff 07 00 40 00 04 00 40 00 fc     .........@...@..
    72d6:	00 00 00 fc 00 40 00 fc 00 40 00 04 00 c0 ff 07     .....@...@......
    72e6:	00 c0 ff 07 00 c0 ff 07 00 c0 ff 07 00 40 00 04     .............@..
    72f6:	00 40 00 04 00 00 00 00 00 00 00 00 00 00 00 00     .@..............
	...
    73b2:	80 00 00 00 80 00 00 00 80 00 00 00 80 03 00 02     ................
    73c2:	80 0f 80 07 80 3f 80 07 8e ff 00 07 8e fc 03 07     .....?..........
    73d2:	9e f0 8f 03 1e c0 ff 01 10 00 7f 00 10 00 1e 00     ................
    73e2:	10 80 07 00 9e e0 01 00 9e 78 00 00 8e 1e 00 00     .........x......
    73f2:	8e 07 00 00 80 01 00 00 80 00 00 00 80 00 00 00     ................
    7402:	80 00 00 00 00 00 00 00 00 00 00 00 00 00 00 00     ................
	...
    743a:	00 40 00 00 00 40 00 80 00 c0 01 80 00 c0 07 80     .@...@..........
    744a:	00 c7 1f c0 00 c7 7f e0 00 4f fe 79 00 4f f8 3f     .........O.y.O.?
    745a:	00 08 e0 07 00 08 e0 01 00 4f 78 00 00 4f 1e 00     .........Ox..O..
    746a:	00 c7 07 00 00 c7 01 00 00 40 00 00 00 40 00 00     .........@...@..
	...
    74c6:	80 00 00 80 80 00 00 c0 80 00 00 f0 80 ff ff 7f     ................
    74d6:	80 ff ff 3f 80 ff ff 1f 80 ff ff 07 80 00 00 00     ...?............
    74e6:	80 00 00 00 80 00 00 00 00 00 00 00 00 00 00 00     ................
	...
    753e:	00 10 80 00 00 30 cf 00 00 e0 7f 00 00 c0 30 00     .....0........0.
    754e:	00 60 60 00 00 20 40 00 00 20 40 00 00 20 40 00     .``.. @.. @.. @.
    755e:	00 60 60 00 00 c0 30 00 00 e0 7f 00 00 30 cf 00     .``...0......0..
    756e:	00 10 80 00 00 00 00 00 00 00 00 00 00 00 00 00     ................
	...
    75be:	80 00 00 04 80 00 00 04 80 00 00 04 80 ff ff 07     ................
    75ce:	80 ff ff 07 80 ff ff 07 80 ff ff 07 80 00 00 04     ................
    75de:	80 00 00 04 80 00 00 04 80 00 00 00 c0 00 00 00     ................
    75ee:	f8 00 00 00 f8 00 00 00 00 00 00 00 00 00 00 00     ................
	...
    7656:	80 ff fc 07 80 ff fc 07 80 ff fc 07 00 00 00 00     ................
	...
    76be:	00 00 78 00 00 3c fc c1 00 7e fe c1 00 ff fe 03     ..x..<...~......
    76ce:	00 ff c7 03 80 e1 83 07 80 c0 01 0f 80 c0 03 0e     ................
    76de:	80 80 07 1f 80 80 8f ff 80 01 ff ff 80 0f fe f9     ................
    76ee:	00 0f fe f0 00 00 78 00 00 00 00 00 00 00 00 00     ......x.........
	...
    773a:	80 00 00 04 80 00 00 04 80 00 00 04 80 ff ff 07     ................
    774a:	9c ff ff 07 9c ff ff 07 9c ff ff 07 9c 00 01 04     ................
    775a:	80 00 01 04 80 00 01 04 9c e0 0f 04 9c e0 0f 04     ................
    776a:	9c 00 00 04 9c 01 00 06 80 0f c0 07 80 0f c0 07     ................
	...
    77ae:	00 c0 0f 00 00 f0 3f 00 00 3c f0 00 00 0e c0 01     ......?..<......
    77be:	00 82 0f 01 00 e3 3f 03 00 f1 3f 02 80 31 78 06     ......?...?..1x.
    77ce:	80 18 60 04 80 08 40 04 80 08 40 04 80 08 40 04     ..`...@...@...@.
    77de:	80 18 60 04 80 79 78 06 00 79 38 02 00 03 00 03     ..`..yx..y8.....
    77ee:	00 02 00 01 00 0e c0 01 00 3c f0 00 00 f0 3f 00     .........<....?.
    77fe:	00 c0 0f 00 00 00 00 00 00 00 00 00 00 00 00 00     ................
	...
    7836:	00 c0 0f 00 00 f0 3f 00 00 fc ff 00 00 fe ff 01     ......?.........
    7846:	00 1e f1 01 00 07 c1 03 00 03 81 03 80 01 01 07     ................
    7856:	80 01 01 06 80 00 01 06 80 00 01 04 80 00 01 04     ................
    7866:	80 00 01 04 80 00 01 04 80 00 00 04 80 01 00 06     ................
    7876:	80 0f e0 07 00 0f e0 03 00 00 00 00 00 00 00 00     ................
	...
    78c2:	00 00 18 00 00 00 3c 00 00 00 7e 00 00 00 ff 00     ......<...~.....
    78d2:	00 80 e7 01 00 80 99 01 00 00 3c 00 00 00 7e 00     ..........<...~.
    78e2:	00 00 ff 00 00 80 e7 01 00 80 81 01 00 00 00 00     ................
	...
    793e:	00 00 10 00 00 00 10 00 00 00 10 00 00 00 10 00     ................
    794e:	00 00 10 00 00 00 10 00 00 00 10 00 00 00 10 00     ................
    795e:	00 00 10 00 00 00 10 00 00 00 10 00 00 00 10 00     ................
    796e:	00 00 f0 07 00 00 f0 07 00 00 00 00 00 00 00 00     ................
	...
    79c6:	00 00 0c 00 00 00 0c 00 00 00 0c 00 00 00 0c 00     ................
    79d6:	00 00 0c 00 00 00 0c 00 00 00 0c 00 00 00 0c 00     ................
    79e6:	00 00 0c 00 00 00 0c 00 00 00 00 00 00 00 00 00     ................
	...
    7a2e:	00 c0 0f 00 00 f0 3f 00 00 3c f0 00 00 0e c0 01     ......?..<......
    7a3e:	00 0a 40 01 00 0b 40 03 00 f9 7f 02 80 f9 7f 06     ..@...@.........
    7a4e:	80 f8 7f 04 80 08 41 04 80 08 43 04 80 98 0f 04     ......A...C.....
    7a5e:	80 f8 7f 04 80 f9 7c 06 00 71 70 02 00 03 40 03     ......|..qp...@.
    7a6e:	00 02 40 01 00 0e c0 01 00 3c f0 00 00 f0 3f 00     ..@......<....?.
    7a7e:	00 c0 0f 00 00 00 00 00 00 00 00 00 00 00 00 00     ................
	...
    7ac6:	9c 00 00 04 9c 00 00 04 9c 00 00 04 9c ff ff 07     ................
    7ad6:	80 ff ff 07 80 ff ff 07 9c ff ff 07 9c 00 00 04     ................
    7ae6:	9c 00 00 04 9c 00 00 04 00 00 00 00 00 00 00 00     ................
	...
    7b4a:	00 0e 00 00 00 1f 00 00 80 31 00 00 80 20 00 00     .........1... ..
    7b5a:	80 20 00 00 80 31 00 00 00 1f 00 00 00 0e 00 00     . ...1..........
	...
    7bbe:	00 00 08 04 00 00 08 04 00 00 08 04 00 00 08 04     ................
    7bce:	00 00 08 04 00 00 08 04 00 c0 ff 05 00 c0 ff 05     ................
    7bde:	00 00 08 04 00 00 08 04 00 00 08 04 00 00 08 04     ................
    7bee:	00 00 08 04 00 00 08 04 00 00 00 00 00 00 00 00     ................
	...
    7c46:	80 00 00 04 80 00 00 04 80 00 00 04 80 ff ff 07     ................
    7c56:	80 ff ff 07 80 ff ff 07 80 ff ff 07 80 00 00 04     ................
    7c66:	80 00 00 04 80 00 00 04 00 00 00 00 00 00 00 00     ................
	...
    7cca:	00 80 00 04 00 80 00 04 80 c3 ff 07 80 c3 ff 07     ................
    7cda:	80 c3 ff 07 80 c3 ff 07 00 00 00 04 00 00 00 04     ................
	...
    7d3e:	00 40 00 04 00 40 00 04 00 c0 ff 07 00 c0 ff 07     .@...@..........
    7d4e:	00 c0 ff 07 00 c0 ff 07 00 40 00 04 00 40 00 04     .........@...@..
    7d5e:	00 40 00 00 00 40 00 00 00 78 00 00 00 78 00 00     .@...@...x...x..
	...
    7dc2:	00 c0 ff ff 00 c0 ff ff 00 c0 ff ff 00 c0 ff 87     ................
    7dd2:	00 00 00 07 00 00 00 06 00 00 00 06 00 00 00 07     ................
    7de2:	00 c0 ff 03 00 c0 ff 07 00 c0 ff 07 00 c0 ff 07     ................
    7df2:	00 00 00 06 00 00 00 04 00 00 00 00 00 00 00 00     ................
	...
    7e3a:	00 f8 01 00 00 fc 03 00 00 fe 07 00 00 ff 0f 00     ................
    7e4a:	80 ff 0f 00 80 ff 1f 00 80 ff 1f 00 80 ff 1f 00     ................
    7e5a:	80 ff ff ff 80 ff ff ff 80 00 00 00 80 ff ff ff     ................
    7e6a:	80 ff ff ff 80 00 00 00 80 00 00 00 00 00 00 00     ................
	...
    7ed2:	00 00 38 00 00 00 38 00 00 00 38 00 00 00 38 00     ..8...8...8...8.
	...
    7f42:	00 00 fc 00 00 00 ff 01 00 8e ff 03 00 8e ff 07     ................
    7f52:	00 ce 89 07 00 4e 08 07 00 40 08 06 00 ce 08 06     .....N...@......
    7f62:	00 ce 0f 06 00 ce 0f 02 00 8e 0f 03 00 00 0f 01     ................
	...
    7fa6:	80 00 00 04 80 00 00 04 80 ff ff 07 80 ff ff 07     ................
    7fb6:	80 0f 00 04 80 1f 00 04 00 7e 00 00 00 fc 00 00     .........~......
    7fc6:	00 f0 01 00 00 e0 07 00 00 c0 0f 00 00 00 1f 00     ................
    7fd6:	00 00 7e 00 80 00 f8 00 80 00 f0 03 80 ff ff 07     ..~.............
    7fe6:	80 ff ff 07 80 00 00 00 80 e0 01 00 00 f0 23 00     ..............#.
    7ff6:	00 f8 27 00 00 08 26 00 00 18 24 00 00 f8 27 00     ..'...&...$...'.
    8006:	00 f0 23 00 00 e0 01 00 00 00 00 00 00 00 00 00     ..#.............
	...
    8042:	00 00 fc 00 00 00 ff 01 00 80 ff 03 00 80 ff 07     ................
    8052:	00 c0 93 07 00 c0 10 06 00 40 10 04 00 40 10 04     .........@...@..
    8062:	00 40 10 04 00 c0 10 04 00 c0 03 06 00 80 03 02     .@..............
	...
    80c2:	00 80 81 01 00 80 e7 01 00 00 ff 00 00 00 7e 00     ..............~.
    80d2:	00 00 3c 00 00 80 99 01 00 80 e7 01 00 00 ff 00     ..<.............
    80e2:	00 00 7e 00 00 00 3c 00 00 00 18 00 00 00 00 00     ..~...<.........
	...
    814a:	00 80 00 00 00 80 00 c0 80 c3 ff ff 80 c3 ff ff     ................
    815a:	80 c3 ff 7f 80 c3 ff 1f 00 00 00 00 00 00 00 00     ................
	...
    81be:	00 7c c0 07 00 fe c0 07 00 ff 01 06 00 ff 01 04     .|..............
    81ce:	80 c3 03 04 80 81 03 04 80 80 07 04 80 00 07 06     ................
    81de:	80 00 0f 07 80 01 fe 03 80 0f fe 03 80 0f fc 01     ................
    81ee:	00 00 f8 00 00 00 00 00 00 00 00 00 00 00 00 00     ................
	...
    8246:	00 00 8f 07 00 80 9f 07 00 c0 1f 06 00 c0 3c 04     ..............<.
    8256:	00 40 3c 04 00 40 78 06 00 c0 fb 07 00 c0 f3 03     .@<..@x.........
    8266:	00 00 e0 01 00 00 00 00 00 00 00 00 00 00 00 00     ................
	...
    82c6:	00 0e 00 00 00 8e 00 04 00 8e 00 04 00 ce ff 07     ................
    82d6:	00 c0 ff 07 00 ce ff 07 00 ce ff 07 00 0e 00 04     ................
    82e6:	00 0e 00 04 00 00 00 00 00 00 00 00 00 00 00 00     ................
	...
    832e:	00 00 00 04 00 00 00 04 00 00 00 06 00 00 80 07     ................
    833e:	00 00 e0 05 00 00 7c 04 00 00 1f 04 00 c0 0b 00     ......|.........
    834e:	00 f8 08 00 00 3e 08 00 80 1f 08 00 80 7f 08 00     .....>..........
    835e:	00 ff 0b 00 00 fc 0f 04 00 e0 7f 04 00 80 ff 05     ................
    836e:	00 00 fc 07 00 00 f0 07 00 00 80 07 00 00 00 06     ................
    837e:	00 00 00 04 00 00 00 04 00 00 00 00 00 00 00 00     ................
	...
    83b6:	80 00 00 04 80 00 00 04 80 00 00 04 80 ff ff 07     ................
    83c6:	80 ff ff 07 80 ff ff 07 80 ff ff 07 80 80 00 04     ................
    83d6:	80 80 00 04 80 80 00 04 80 80 01 04 80 80 01 06     ................
    83e6:	80 80 07 07 80 01 ff 03 80 0f ff 03 80 0f fe 01     ................
    83f6:	00 00 7c 00 00 00 00 00 00 00 00 00 00 00 00 00     ..|.............
	...
    843a:	80 00 00 04 80 00 00 04 80 00 00 04 80 ff ff 07     ................
    844a:	80 ff ff 07 80 ff ff 07 80 ff ff 07 80 00 01 04     ................
    845a:	80 00 01 04 80 81 01 04 80 c3 03 06 80 ff 07 07     ................
    846a:	00 ff fe 03 00 7f fe 03 00 3e fc 01 00 00 f8 00     .........>......
	...
    84ba:	80 00 00 04 80 00 00 04 80 00 00 04 80 ff ff 07     ................
    84ca:	80 ff ff 07 80 ff ff 07 80 ff ff 07 80 00 00 04     ................
    84da:	80 00 00 04 80 00 00 04 80 00 00 00 80 00 00 00     ................
    84ea:	80 00 00 00 80 0f 00 00 80 0f 00 00 00 00 00 00     ................
	...
    8532:	00 00 00 fc 00 00 00 fc 00 00 00 3e 00 00 00 07     ...........>....
    8542:	80 00 e0 07 80 00 fc 04 80 e0 3f 04 80 ff 03 04     ..........?.....
    8552:	80 1f 00 04 80 00 00 04 80 00 00 04 80 00 00 04     ................
    8562:	80 00 00 04 80 ff ff 07 80 ff ff 07 80 ff ff 07     ................
    8572:	80 ff ff 07 80 00 00 3c 80 00 00 fc 80 00 00 fc     .......<........
	...
    85ba:	80 00 00 04 80 00 00 04 80 00 00 04 80 ff ff 07     ................
    85ca:	80 ff ff 07 80 ff ff 07 80 ff ff 07 80 00 01 04     ................
    85da:	80 00 01 04 80 00 01 04 80 e0 0f 04 80 e0 0f 04     ................
    85ea:	80 00 00 04 80 01 00 06 80 0f c0 07 80 0f c0 07     ................
	...
    8622:	00 00 00 04 80 01 00 04 80 07 00 06 80 07 80 07     ................
    8632:	80 03 e0 07 00 0f f8 07 00 3e fc 01 00 70 7e 00     .........>...p~.
    8642:	00 c0 1e 00 80 80 07 04 80 80 03 04 80 00 01 04     ................
    8652:	80 ff ff 07 80 ff ff 07 80 ff ff 07 80 ff ff 07     ................
    8662:	80 00 01 04 80 80 03 04 80 80 07 04 00 c0 1e 00     ................
    8672:	00 70 7e 00 00 3e fc 01 00 0f f8 07 80 03 e0 07     .p~..>..........
    8682:	80 07 80 07 80 07 00 06 80 01 00 04 00 00 00 04     ................
	...
    86be:	00 00 c0 03 00 0f c0 07 80 0f 00 06 80 01 01 04     ................
    86ce:	80 00 01 04 80 00 01 04 80 00 01 04 80 81 01 06     ................
    86de:	80 c3 03 06 80 ff 07 07 00 ff fe 03 00 7f fe 03     ................
    86ee:	00 3c fc 01 00 00 78 00 00 00 00 00 00 00 00 00     .<....x.........
	...
    872e:	80 00 00 04 80 00 00 04 80 00 00 04 80 ff ff 07     ................
    873e:	80 ff ff 07 80 ff ff 07 80 ff ff 07 80 00 70 04     ..............p.
    874e:	80 00 38 04 80 00 0e 04 00 00 07 00 00 80 01 00     ..8.............
    875e:	80 e0 00 04 80 70 00 04 80 1c 00 04 80 ff ff 07     .....p..........
    876e:	80 ff ff 07 80 ff ff 07 80 ff ff 07 80 00 00 04     ................
    877e:	80 00 00 04 80 00 00 04 00 00 00 00 00 00 00 00     ................
	...
    87ae:	80 00 00 04 80 00 00 04 80 00 00 04 80 ff ff 07     ................
    87be:	80 ff ff 07 8e ff ff 07 8e ff ff 07 9e 00 70 04     ..............p.
    87ce:	9e 00 38 04 90 00 0e 04 10 00 07 00 10 80 01 00     ..8.............
    87de:	9e e0 00 04 9e 70 00 04 8e 1c 00 04 8e ff ff 07     .....p..........
    87ee:	80 ff ff 07 80 ff ff 07 80 ff ff 07 80 00 00 04     ................
    87fe:	80 00 00 04 80 00 00 04 00 00 00 00 00 00 00 00     ................
	...
    8832:	80 00 00 04 80 00 00 04 80 00 00 04 80 ff ff 07     ................
    8842:	80 ff ff 07 80 ff ff 07 80 ff ff 07 80 00 01 04     ................
    8852:	80 00 03 04 80 80 03 04 00 c0 0f 00 00 60 3e 00     .............`>.
    8862:	00 38 fe 00 00 1e fc 03 00 07 f0 07 80 03 c0 07     .8..............
    8872:	80 07 00 07 80 07 00 04 80 01 00 04 00 00 00 04     ................
	...
    88ae:	00 00 00 02 00 00 80 07 00 00 80 07 00 00 00 07     ................
    88be:	00 00 00 07 80 00 80 03 80 00 f0 03 80 80 ff 00     ................
    88ce:	80 ff 1f 00 80 7f 00 00 80 00 00 00 80 00 00 04     ................
    88de:	80 00 00 04 80 00 00 04 80 ff ff 07 80 ff ff 07     ................
    88ee:	80 ff ff 07 80 ff ff 07 80 00 00 04 80 00 00 04     ................
    88fe:	80 00 00 04 00 00 00 00 00 00 00 00 00 00 00 00     ................
	...
    8926:	80 00 00 04 80 00 00 04 80 00 00 04 80 ff ff 07     ................
    8936:	80 ff ff 07 80 1f 00 04 80 ff 00 04 80 ff 07 04     ................
    8946:	00 fc 1f 00 00 e0 ff 00 00 00 ff 07 00 00 f8 07     ................
    8956:	00 00 e0 03 00 00 7c 00 00 80 1f 00 00 e0 03 04     ......|.........
    8966:	00 7c 00 04 80 1f 00 04 80 ff ff 07 80 ff ff 07     .|..............
    8976:	80 ff ff 07 80 ff ff 07 80 00 00 04 80 00 00 04     ................
    8986:	80 00 00 04 00 00 00 00 00 00 00 00 00 00 00 00     ................
	...
    89ae:	80 00 00 04 80 00 00 04 80 00 00 04 80 ff ff 07     ................
    89be:	80 ff ff 07 80 ff ff 07 80 ff ff 07 80 00 01 04     ................
    89ce:	80 00 01 04 80 00 01 04 00 00 01 00 00 00 01 00     ................
    89de:	80 00 01 04 80 00 01 04 80 00 01 04 80 ff ff 07     ................
    89ee:	80 ff ff 07 80 ff ff 07 80 ff ff 07 80 00 00 04     ................
    89fe:	80 00 00 04 80 00 00 04 00 00 00 00 00 00 00 00     ................
	...
    8a2e:	00 c0 0f 00 00 f0 7f 00 00 fc ff 00 00 fe ff 01     ................
    8a3e:	00 1e f0 01 00 07 c0 03 00 03 00 03 80 01 00 06     ................
    8a4e:	80 00 00 06 80 00 00 04 80 00 00 04 80 00 00 04     ................
    8a5e:	80 01 00 04 80 01 00 06 80 03 00 02 00 0f 80 03     ................
    8a6e:	00 3f e0 03 00 fe ff 01 00 fc ff 00 00 f8 7f 00     .?..............
    8a7e:	00 e0 0f 00 00 00 00 00 00 00 00 00 00 00 00 00     ................
	...
    8aae:	80 00 00 04 80 00 00 04 80 00 00 04 80 ff ff 07     ................
    8abe:	80 ff ff 07 80 ff ff 07 80 ff ff 07 80 00 00 04     ................
    8ace:	80 00 00 04 80 00 00 04 80 00 00 00 80 00 00 00     ................
    8ade:	80 00 00 04 80 00 00 04 80 00 00 04 80 ff ff 07     ................
    8aee:	80 ff ff 07 80 ff ff 07 80 ff ff 07 80 00 00 04     ................
    8afe:	80 00 00 04 80 00 00 04 00 00 00 00 00 00 00 00     ................
	...
    8b3a:	80 00 00 04 80 00 00 04 80 00 00 04 80 ff ff 07     ................
    8b4a:	80 ff ff 07 80 ff ff 07 80 ff ff 07 80 00 02 04     ................
    8b5a:	80 00 02 04 80 00 02 04 80 01 03 00 80 83 03 00     ................
    8b6a:	80 ff 01 00 00 ff 01 00 00 fe 00 00 00 7c 00 00     .............|..
	...
    8bb6:	00 c0 0f 00 00 f0 3f 00 00 f8 ff 00 00 fc ff 01     ......?.........
    8bc6:	00 1e f0 01 00 07 c0 03 00 03 80 03 00 01 00 07     ................
    8bd6:	80 01 00 06 80 00 00 06 80 00 00 04 80 00 00 04     ................
    8be6:	80 00 00 04 80 00 00 04 80 00 00 04 80 01 00 06     ................
    8bf6:	80 0f c0 07 80 0f c0 07 00 00 00 00 00 00 00 00     ................
	...
    8c3a:	80 0f 00 00 80 0f 00 00 80 00 00 00 80 00 00 04     ................
    8c4a:	80 00 00 04 80 00 00 04 80 ff ff 07 80 ff ff 07     ................
    8c5a:	80 ff ff 07 80 ff ff 07 80 00 00 04 80 00 00 04     ................
    8c6a:	80 00 00 04 80 00 00 00 80 0f 00 00 80 0f 00 00     ................
	...
    8cb2:	80 00 00 00 80 00 00 00 80 00 00 00 80 03 00 02     ................
    8cc2:	80 0f 80 07 80 3f 80 07 80 ff 00 07 80 fc 03 07     .....?..........
    8cd2:	80 f0 8f 03 00 c0 ff 01 00 00 7f 00 00 00 1e 00     ................
    8ce2:	00 80 07 00 80 e0 01 00 80 78 00 00 80 1e 00 00     .........x......
    8cf2:	80 07 00 00 80 01 00 00 80 00 00 00 80 00 00 00     ................
    8d02:	80 00 00 00 00 00 00 00 00 00 00 00 00 00 00 00     ................
	...
    8d32:	00 c0 0f 00 00 f0 1f 00 00 f8 3f 00 00 fc 7f 00     ..........?.....
    8d42:	00 1c 70 00 40 0e e0 04 40 06 c0 04 40 02 80 04     ..p.@...@...@...
    8d52:	c0 ff ff 07 c0 ff ff 07 c0 ff ff 07 c0 ff ff 07     ................
    8d62:	40 02 80 04 40 06 c0 04 40 0e e0 04 00 1c 70 00     @...@...@.....p.
    8d72:	00 fc 7f 00 00 f8 3f 00 00 f0 1f 00 00 e0 07 00     ......?.........
	...
    8db2:	80 00 00 04 80 00 00 04 80 00 00 06 80 03 00 07     ................
    8dc2:	80 07 80 05 80 1f e0 04 80 7f 70 04 80 fc 1c 00     ..........p.....
    8dd2:	80 f8 0f 00 00 e0 0f 00 00 c0 1f 00 00 e0 7f 04     ................
    8de2:	00 30 fc 04 80 1c f8 07 80 0e e0 07 80 03 80 07     .0..............
    8df2:	80 01 00 07 80 00 00 04 80 00 00 04 00 00 00 04     ................
	...
    8e2e:	80 00 00 04 80 00 00 04 80 00 00 04 80 ff ff 07     ................
    8e3e:	80 ff ff 07 80 ff ff 07 80 ff ff 07 80 00 00 04     ................
    8e4e:	80 00 00 04 80 00 00 04 00 00 00 04 00 00 00 04     ................
    8e5e:	80 00 00 04 80 00 00 04 80 00 00 04 80 ff ff 07     ................
    8e6e:	80 ff ff 07 80 ff ff 07 80 ff ff 07 80 00 00 3c     ...............<
    8e7e:	80 00 00 fc 80 00 00 fc 00 00 00 00 00 00 00 00     ................
	...
    8eb2:	80 00 00 00 80 00 00 00 80 00 00 00 80 ff 01 00     ................
    8ec2:	80 ff 03 00 80 ff 07 00 80 ff 07 00 80 00 07 00     ................
    8ed2:	80 00 06 00 00 00 06 00 00 00 06 04 80 00 06 04     ................
    8ee2:	80 00 02 04 80 ff ff 07 80 ff ff 07 80 ff ff 07     ................
    8ef2:	80 ff ff 07 80 00 00 04 80 00 00 04 80 00 00 04     ................
	...
    8f1e:	80 00 00 04 80 00 00 04 80 00 00 04 80 ff ff 07     ................
    8f2e:	80 ff ff 07 80 ff ff 07 80 ff ff 07 80 00 00 04     ................
    8f3e:	80 00 00 04 00 00 00 04 00 00 00 04 80 00 00 04     ................
    8f4e:	80 00 00 04 80 ff ff 07 80 ff ff 07 80 ff ff 07     ................
    8f5e:	80 ff ff 07 80 00 00 04 80 00 00 04 00 00 00 04     ................
    8f6e:	00 00 00 04 80 00 00 04 80 00 00 04 80 ff ff 07     ................
    8f7e:	80 ff ff 07 80 ff ff 07 80 ff ff 07 80 00 00 04     ................
    8f8e:	80 00 00 04 80 00 00 04 00 00 00 00 00 00 00 00     ................
    8f9e:	80 00 00 04 80 00 00 04 80 00 00 04 80 ff ff 07     ................
    8fae:	80 ff ff 07 80 ff ff 07 80 ff ff 07 80 00 00 04     ................
    8fbe:	80 00 00 04 00 00 00 04 00 00 00 04 80 00 00 04     ................
    8fce:	80 00 00 04 80 ff ff 07 80 ff ff 07 80 ff ff 07     ................
    8fde:	80 ff ff 07 80 00 00 04 80 00 00 04 00 00 00 04     ................
    8fee:	00 00 00 04 80 00 00 04 80 00 00 04 80 ff ff 07     ................
    8ffe:	80 ff ff 07 80 ff ff 07 80 ff ff 07 80 00 00 3c     ...............<
    900e:	80 00 00 fc 80 00 00 fc 00 00 00 00 00 00 00 00     ................
	...
    902e:	80 0f 00 00 80 0f 00 00 80 01 00 00 80 00 00 00     ................
    903e:	80 00 00 04 80 00 00 04 80 00 00 04 80 ff ff 07     ................
    904e:	80 ff ff 07 80 ff ff 07 80 ff ff 07 80 80 00 04     ................
    905e:	80 80 00 04 80 80 00 04 00 80 01 04 00 80 01 06     ................
    906e:	00 80 07 07 00 00 ff 03 00 00 ff 03 00 00 fe 01     ................
    907e:	00 00 7c 00 00 00 00 00 00 00 00 00 00 00 00 00     ..|.............
	...
    90a6:	80 00 00 04 80 00 00 04 80 00 00 04 80 ff ff 07     ................
    90b6:	80 ff ff 07 80 ff ff 07 80 ff ff 07 80 80 00 04     ................
    90c6:	80 80 00 04 80 80 00 04 00 80 01 06 00 80 01 06     ................
    90d6:	00 80 07 07 00 00 ff 03 00 00 ff 03 00 00 fe 01     ................
    90e6:	00 00 7c 00 80 00 00 04 80 00 00 04 80 ff ff 07     ..|.............
    90f6:	80 ff ff 07 80 ff ff 07 80 ff ff 07 80 00 00 04     ................
    9106:	80 00 00 04 80 00 00 04 00 00 00 00 00 00 00 00     ................
	...
    9136:	80 00 00 04 80 00 00 04 80 00 00 04 80 ff ff 07     ................
    9146:	80 ff ff 07 80 ff ff 07 80 ff ff 07 80 80 00 04     ................
    9156:	80 80 00 04 80 80 00 04 00 80 01 04 00 80 01 06     ................
    9166:	00 80 07 07 00 00 ff 03 00 00 ff 03 00 00 fe 01     ................
    9176:	00 00 7c 00 00 00 00 00 00 00 00 00 00 00 00 00     ..|.............
	...
    91b6:	00 1f c0 03 80 1f c0 07 80 03 00 06 80 00 00 04     ................
    91c6:	80 00 01 04 80 00 01 04 80 00 01 04 80 00 01 04     ................
    91d6:	80 01 01 04 80 01 01 06 80 03 01 06 00 07 01 03     ................
    91e6:	00 0f 81 03 00 3e e1 01 00 fe ff 01 00 fc ff 00     .....>..........
    91f6:	00 f0 3f 00 00 c0 0f 00 00 00 00 00 00 00 00 00     ..?.............
	...
    921a:	80 00 00 04 80 00 00 04 80 00 00 04 80 ff ff 07     ................
    922a:	80 ff ff 07 80 ff ff 07 80 ff ff 07 80 00 01 04     ................
    923a:	80 00 01 04 80 c0 0f 04 00 f0 7f 00 00 fc ff 00     ................
    924a:	00 fe ff 01 00 1e f0 03 00 07 c0 03 00 03 00 03     ................
    925a:	80 01 00 06 80 00 00 06 80 00 00 04 80 00 00 04     ................
    926a:	80 00 00 04 80 01 00 04 80 01 00 06 80 03 00 06     ................
    927a:	00 07 80 03 00 3f e0 03 00 fe ff 01 00 fc ff 00     .....?..........
    928a:	00 f8 7f 00 00 e0 0f 00 00 00 00 00 00 00 00 00     ................
	...
    92b2:	00 00 00 04 00 00 00 04 00 00 00 06 00 7c 80 07     .............|..
    92c2:	00 fe e0 07 00 ff f1 07 80 ff fd 01 80 83 7f 00     ................
    92d2:	80 01 1f 00 80 00 0e 04 80 00 06 04 80 00 02 04     ................
    92e2:	80 ff ff 07 80 ff ff 07 80 ff ff 07 80 ff ff 07     ................
    92f2:	80 00 00 04 80 00 00 04 80 00 00 04 00 00 00 00     ................
	...
    9342:	00 00 c0 03 00 80 e3 07 00 c0 f3 07 00 c0 f0 07     ................
    9352:	00 40 18 06 00 40 18 06 00 c0 08 03 00 c0 ff 07     .@...@..........
    9362:	00 c0 ff 07 00 80 ff 07 00 00 ff 07 00 00 00 04     ................
    9372:	00 00 00 04 00 00 00 00 00 00 00 00 00 00 00 00     ................
	...
    93be:	00 c0 7f 00 00 f0 ff 01 00 7c ff 03 00 9e ff 03     .........|......
    93ce:	00 ce 81 07 00 cf 00 06 00 47 00 04 00 47 00 04     .........G...G..
    93de:	00 c7 00 06 00 c7 03 07 80 87 ff 03 80 83 ff 03     ................
    93ee:	c0 01 ff 01 c0 00 7c 00 00 00 00 00 00 00 00 00     ......|.........
	...
    943e:	00 40 00 04 00 40 00 04 00 c0 ff 07 00 c0 ff 07     .@...@..........
    944e:	00 c0 ff 07 00 c0 ff 07 00 40 10 04 00 c0 18 04     .........@......
    945e:	00 c0 3f 06 00 c0 ff 07 00 80 ef 07 00 00 e7 03     ..?.............
    946e:	00 00 c0 01 00 00 00 00 00 00 00 00 00 00 00 00     ................
	...
    94be:	00 40 00 04 00 40 00 04 00 c0 ff 07 00 c0 ff 07     .@...@..........
    94ce:	00 c0 ff 07 00 c0 ff 07 00 40 00 04 00 40 00 04     .........@...@..
    94de:	00 40 00 00 00 40 00 00 00 c0 03 00 00 c0 03 00     .@...@..........
	...
    953a:	00 00 00 fc 00 00 00 fc 00 40 00 1e 00 40 80 07     .........@...@..
    954a:	00 40 f0 07 00 c0 7f 04 00 c0 0f 04 00 40 00 04     .@...........@..
    955a:	00 40 00 04 00 c0 ff 07 00 c0 ff 07 00 c0 ff 07     .@..............
    956a:	00 c0 ff 1f 00 40 00 fc 00 40 00 fc 00 00 00 00     .....@...@......
	...
    95c2:	00 00 fc 00 00 00 ff 01 00 80 ff 03 00 80 ff 07     ................
    95d2:	00 c0 89 07 00 40 08 07 00 40 08 06 00 c0 08 06     .....@...@......
    95e2:	00 c0 0f 06 00 c0 0f 02 00 80 0f 03 00 00 0f 01     ................
	...
    962e:	00 00 00 04 00 c0 00 04 00 c0 01 06 00 c0 81 07     ................
    963e:	00 c0 e1 07 00 80 e7 07 00 00 fe 01 00 40 78 04     .............@x.
    964e:	00 40 10 04 00 c0 ff 07 00 c0 ff 07 00 c0 ff 07     .@..............
    965e:	00 c0 ff 07 00 40 10 04 00 40 78 04 00 00 fe 01     .....@...@x.....
    966e:	00 80 e7 07 00 c0 e1 07 00 c0 81 07 00 c0 01 06     ................
    967e:	00 c0 00 04 00 00 00 04 00 00 00 00 00 00 00 00     ................
	...
    96c6:	00 80 83 07 00 c0 83 07 00 40 10 04 00 40 10 04     .........@...@..
    96d6:	00 40 10 04 00 c0 38 06 00 c0 ff 07 00 c0 ef 03     .@....8.........
    96e6:	00 80 ef 03 00 00 c7 01 00 00 00 00 00 00 00 00     ................
	...
    9736:	00 40 00 04 00 40 00 04 00 c0 ff 07 00 c0 ff 07     .@...@..........
    9746:	00 c0 ff 07 00 c0 ff 07 00 40 60 04 00 40 30 04     .........@`..@0.
    9756:	00 00 18 00 00 40 0c 04 00 40 06 04 00 c0 ff 07     .....@...@......
    9766:	00 c0 ff 07 00 c0 ff 07 00 c0 ff 07 00 40 00 04     .............@..
    9776:	00 40 00 04 00 00 00 00 00 00 00 00 00 00 00 00     .@..............
	...
    97b6:	00 40 00 04 00 40 00 04 00 c0 ff 07 00 c7 ff 07     .@...@..........
    97c6:	00 c7 ff 07 00 cf ff 07 00 4f 60 04 00 48 30 04     .........O`..H0.
    97d6:	00 08 18 00 00 4f 0c 04 00 4f 06 04 00 c7 ff 07     .....O...O......
    97e6:	00 c7 ff 07 00 c0 ff 07 00 c0 ff 07 00 40 00 04     .............@..
    97f6:	00 40 00 04 00 00 00 00 00 00 00 00 00 00 00 00     .@..............
	...
    983a:	00 40 00 04 00 40 00 04 00 c0 ff 07 00 c0 ff 07     .@...@..........
    984a:	00 c0 ff 07 00 c0 ff 07 00 40 10 04 00 40 38 04     .........@...@8.
    985a:	00 00 fe 00 00 00 f7 03 00 80 e1 07 00 c0 c0 07     ................
    986a:	00 c0 81 07 00 c0 01 06 00 c0 00 04 00 00 00 04     ................
	...
    98ba:	00 00 00 06 00 00 00 07 00 00 00 07 00 00 00 06     ................
    98ca:	00 40 00 07 00 40 f0 03 00 c0 ff 00 00 c0 0f 00     .@...@..........
    98da:	00 40 00 04 00 40 00 04 00 c0 ff 07 00 c0 ff 07     .@...@..........
    98ea:	00 c0 ff 07 00 c0 ff 07 00 40 00 04 00 40 00 04     .........@...@..
	...
    9936:	00 40 00 04 00 40 00 04 00 c0 ff 07 00 c0 ff 07     .@...@..........
    9946:	00 c0 0f 04 00 c0 3f 04 00 c0 ff 01 00 00 fe 07     ......?.........
    9956:	00 00 f8 07 00 00 f0 01 00 00 3e 04 00 c0 0f 04     ..........>.....
    9966:	00 c0 ff 07 00 c0 ff 07 00 c0 ff 07 00 c0 ff 07     ................
    9976:	00 40 00 04 00 40 00 04 00 00 00 00 00 00 00 00     .@...@..........
	...
    99b6:	00 40 00 04 00 40 00 04 00 c0 ff 07 00 c0 ff 07     .@...@..........
    99c6:	00 c0 ff 07 00 c0 ff 07 00 40 10 04 00 40 10 04     .........@...@..
    99d6:	00 00 10 00 00 40 10 04 00 40 10 04 00 c0 ff 07     .....@...@......
    99e6:	00 c0 ff 07 00 c0 ff 07 00 c0 ff 07 00 40 00 04     .............@..
    99f6:	00 40 00 04 00 00 00 00 00 00 00 00 00 00 00 00     .@..............
	...
    9a3e:	00 00 7c 00 00 00 ff 01 00 80 ff 03 00 80 ff 03     ..|.............
    9a4e:	00 c0 81 07 00 c0 00 06 00 40 00 04 00 40 00 04     .........@...@..
    9a5e:	00 c0 00 04 00 c0 03 07 00 80 ff 03 00 80 ff 03     ................
    9a6e:	00 00 ff 01 00 00 7c 00 00 00 00 00 00 00 00 00     ......|.........
	...
    9ab6:	00 40 00 04 00 40 00 04 00 c0 ff 07 00 c0 ff 07     .@...@..........
    9ac6:	00 c0 ff 07 00 c0 ff 07 00 40 00 04 00 40 00 04     .........@...@..
    9ad6:	00 40 00 00 00 40 00 04 00 40 00 04 00 c0 ff 07     .@...@...@......
    9ae6:	00 c0 ff 07 00 c0 ff 07 00 c0 ff 07 00 40 00 04     .............@..
    9af6:	00 40 00 04 00 00 00 00 00 00 00 00 00 00 00 00     .@..............
	...
    9b3a:	00 80 00 00 00 80 00 00 00 c0 ff ff 00 c0 ff ff     ................
    9b4a:	00 c0 ff ff 00 c0 ff ff 00 80 01 04 00 c0 00 04     ................
    9b5a:	00 c0 00 04 00 c0 01 06 00 c0 03 07 00 c0 ff 03     ................
    9b6a:	00 80 ff 03 00 00 ff 00 00 00 7e 00 00 00 00 00     ..........~.....
	...
    9bc2:	00 00 fc 00 00 00 ff 01 00 80 ff 03 00 80 ff 07     ................
    9bd2:	00 c0 c1 07 00 c0 00 07 00 40 00 06 00 40 00 06     .........@...@..
    9be2:	00 40 00 06 00 c0 00 02 00 c0 03 03 00 c0 03 01     .@..............
	...
    9c42:	00 c0 03 00 00 c0 03 00 00 40 00 04 00 40 00 04     .........@...@..
    9c52:	00 c0 ff 07 00 c0 ff 07 00 c0 ff 07 00 c0 ff 07     ................
    9c62:	00 40 00 04 00 40 00 04 00 c0 03 00 00 c0 03 00     .@...@..........
	...
    9cba:	00 40 00 00 00 40 00 80 00 c0 01 80 00 c0 07 80     .@...@..........
    9cca:	00 c0 1f c0 00 c0 7f e0 00 40 fe 79 00 40 f8 3f     .........@.y.@.?
    9cda:	00 00 e0 07 00 00 e0 01 00 40 78 00 00 40 1e 00     .........@x..@..
    9cea:	00 c0 07 00 00 c0 01 00 00 40 00 00 00 40 00 00     .........@...@..
	...
    9d36:	00 00 fc 00 00 00 ff 03 00 80 ff 03 00 c0 ff 07     ................
    9d46:	00 c0 01 07 00 41 00 04 00 c1 00 06 80 ff ff ff     .....A..........
    9d56:	80 ff ff ff 80 ff ff ff 80 ff ff ff 00 c0 00 06     ................
    9d66:	00 40 00 04 00 c0 01 07 00 c0 ff 07 00 80 ff 03     .@..............
    9d76:	00 80 ff 01 00 00 7e 00 00 00 00 00 00 00 00 00     ......~.........
	...
    9dba:	00 40 00 04 00 40 00 04 00 c0 00 06 00 c0 83 07     .@...@..........
    9dca:	00 c0 c7 05 00 c0 7f 00 00 c0 3f 00 00 40 fe 04     ..........?..@..
    9dda:	00 00 fe 07 00 40 f7 07 00 c0 c1 07 00 c0 80 07     .....@..........
    9dea:	00 40 00 06 00 40 00 04 00 00 00 04 00 00 00 00     .@...@..........
	...
    9e36:	00 40 00 04 00 40 00 04 00 c0 ff 07 00 c0 ff 07     .@...@..........
    9e46:	00 c0 ff 07 00 c0 ff 07 00 40 00 04 00 40 00 04     .........@...@..
    9e56:	00 00 00 04 00 40 00 04 00 40 00 04 00 c0 ff 07     .....@...@......
    9e66:	00 c0 ff 07 00 c0 ff 07 00 c0 ff 1f 00 40 00 fc     .............@..
    9e76:	00 40 00 fc 00 00 00 00 00 00 00 00 00 00 00 00     .@..............
	...
    9eb6:	00 40 00 00 00 40 00 00 00 c0 0f 00 00 c0 1f 00     .@...@..........
    9ec6:	00 c0 3f 00 00 c0 3f 00 00 40 30 00 00 40 20 00     ..?...?..@0..@ .
    9ed6:	00 40 20 04 00 40 20 04 00 c0 ff 07 00 c0 ff 07     .@ ..@ .........
    9ee6:	00 c0 ff 07 00 c0 ff 07 00 40 00 04 00 40 00 04     .........@...@..
	...
    9f2e:	00 40 00 04 00 40 00 04 00 c0 ff 07 00 c0 ff 07     .@...@..........
    9f3e:	00 c0 ff 07 00 c0 ff 07 00 40 00 04 00 40 00 04     .........@...@..
    9f4e:	00 40 00 04 00 c0 ff 07 00 c0 ff 07 00 c0 ff 07     .@..............
    9f5e:	00 c0 ff 07 00 40 00 04 00 40 00 04 00 40 00 04     .....@...@...@..
    9f6e:	00 c0 ff 07 00 c0 ff 07 00 c0 ff 07 00 c0 ff 07     ................
    9f7e:	00 40 00 04 00 40 00 04 00 00 00 00 00 00 00 00     .@...@..........
	...
    9faa:	00 40 00 04 00 40 00 04 00 c0 ff 07 00 c0 ff 07     .@...@..........
    9fba:	00 c0 ff 07 00 c0 ff 07 00 40 00 04 00 40 00 04     .........@...@..
    9fca:	00 40 00 04 00 c0 ff 07 00 c0 ff 07 00 c0 ff 07     .@..............
    9fda:	00 c0 ff 07 00 40 00 04 00 40 00 04 00 40 00 04     .....@...@...@..
    9fea:	00 c0 ff 07 00 c0 ff 07 00 c0 ff 07 00 c0 ff 07     ................
    9ffa:	00 40 00 1c 00 40 00 fc 00 00 00 fc 00 00 00 00     .@...@..........
	...
    a03a:	00 c0 03 00 00 c0 03 00 00 40 00 04 00 40 00 04     .........@...@..
    a04a:	00 c0 ff 07 00 c0 ff 07 00 c0 ff 07 00 c0 ff 07     ................
    a05a:	00 40 08 04 00 40 08 04 00 00 18 06 00 00 f8 07     .@...@..........
    a06a:	00 00 f8 07 00 00 f0 03 00 00 e0 01 00 00 00 00     ................
	...
    a0ae:	00 40 00 04 00 40 00 04 00 c0 ff 07 00 c0 ff 07     .@...@..........
    a0be:	00 c0 ff 07 00 c0 ff 07 00 40 08 04 00 40 08 04     .........@...@..
    a0ce:	00 00 18 06 00 00 f8 07 00 00 f8 07 00 00 f0 03     ................
    a0de:	00 00 e0 01 00 40 00 04 00 40 00 04 00 c0 ff 07     .....@...@......
    a0ee:	00 c0 ff 07 00 c0 ff 07 00 c0 ff 07 00 40 00 04     .............@..
    a0fe:	00 40 00 04 00 00 00 00 00 00 00 00 00 00 00 00     .@..............
	...
    a13e:	00 40 00 04 00 40 00 04 00 c0 ff 07 00 c0 ff 07     .@...@..........
    a14e:	00 c0 ff 07 00 c0 ff 07 00 40 08 04 00 40 08 04     .........@...@..
    a15e:	00 00 18 06 00 00 f8 07 00 00 f8 07 00 00 f0 03     ................
    a16e:	00 00 e0 01 00 00 00 00 00 00 00 00 00 00 00 00     ................
	...
    a1c2:	00 c0 83 03 00 c0 83 07 00 c0 10 06 00 40 10 04     .............@..
    a1d2:	00 40 10 04 00 40 10 04 00 c0 10 06 00 c0 13 07     .@...@..........
    a1e2:	00 80 ff 03 00 80 ff 03 00 00 ff 01 00 00 7c 00     ..............|.
	...
    a22a:	00 40 00 04 00 40 00 04 00 c0 ff 07 00 c0 ff 07     .@...@..........
    a23a:	00 c0 ff 07 00 c0 ff 07 00 40 10 04 00 40 10 04     .........@...@..
    a24a:	00 00 7c 00 00 00 ff 01 00 80 ff 03 00 80 ff 03     ..|.............
    a25a:	00 c0 81 07 00 c0 00 06 00 40 00 04 00 40 00 04     .........@...@..
    a26a:	00 c0 00 06 00 c0 03 07 00 80 ff 03 00 80 ff 03     ................
    a27a:	00 00 ff 01 00 00 7c 00 00 00 00 00 00 00 00 00     ......|.........
	...
    a2ba:	00 00 00 04 00 00 00 04 00 00 07 06 00 80 8f 07     ................
    a2ca:	00 c0 df 07 00 c0 ff 07 00 c0 f8 01 00 40 70 04     .............@p.
    a2da:	00 40 10 04 00 c0 ff 07 00 c0 ff 07 00 c0 ff 07     .@..............
    a2ea:	00 c0 ff 07 00 40 00 04 00 40 00 04 00 00 00 00     .....@...@......
	...

0000a31a <Font32x48_Num>:
	...
    a34a:	00 00 00 f0 00 00 00 00 00 f8 01 00 00 00 00 f8     ................
    a35a:	01 00 00 00 00 f8 01 00 00 00 00 f8 01 00 00 00     ................
    a36a:	00 f8 01 00 00 00 00 f8 01 00 00 00 00 f8 01 00     ................
    a37a:	00 00 00 f8 01 00 00 00 00 f8 01 00 00 00 00 f8     ................
    a38a:	01 00 00 00 00 f8 01 00 00 00 00 f8 01 00 00 00     ................
    a39a:	00 f8 01 00 00 00 00 f8 01 00 00 00 00 f0 00 00     ................
	...
    a41e:	00 00 c0 03 00 00 00 00 e0 07 00 00 00 00 f0 0f     ................
    a42e:	00 00 00 00 f0 0f 00 00 00 00 f0 0f 00 00 00 00     ................
    a43e:	f0 0f 00 00 00 00 e0 07 00 00 00 00 c0 03 00 00     ................
	...
    a4d2:	00 00 80 07 00 00 00 00 f8 0f 00 00 00 80 ff 0f     ................
    a4e2:	00 00 00 fc ff 0f 00 00 c0 ff ff 07 00 00 fc ff     ................
    a4f2:	ff 00 00 c0 ff ff 0f 00 00 fc ff ff 00 00 80 ff     ................
    a502:	ff 0f 00 00 c0 ff 7f 00 00 00 c0 ff 07 00 00 00     ................
    a512:	c0 7f 00 00 00 00 80 07 00 00 00 00 00 00 00 00     ................
	...
    a56e:	fc ff 00 00 00 c0 ff ff 0f 00 00 f0 ff ff 3f 00     ..............?.
    a57e:	00 fc ff ff 7f 00 00 fe ff ff ff 00 00 ff ff ff     ................
    a58e:	ff 01 00 ff ff ff ff 03 80 ff 03 00 ff 07 80 3f     ...............?
    a59e:	00 00 f0 07 c0 0f 00 00 c0 07 c0 0f 00 00 c0 0f     ................
    a5ae:	c0 07 00 00 80 0f c0 07 00 00 80 0f c0 07 00 00     ................
    a5be:	80 0f c0 07 00 00 80 0f c0 0f 00 00 c0 0f c0 0f     ................
    a5ce:	00 00 c0 0f 80 3f 00 00 f0 07 80 ff 01 00 ff 07     .....?..........
    a5de:	00 ff ff ff ff 03 00 fe ff ff ff 01 00 fe ff ff     ................
    a5ee:	ff 01 00 f8 ff ff ff 00 00 f0 ff ff 3f 00 00 c0     ............?...
    a5fe:	ff ff 0f 00 00 00 fc ff 00 00 00 00 00 00 00 00     ................
	...
    a62e:	0c 00 00 00 00 00 1e 00 00 00 00 00 3f 00 00 00     ............?...
    a63e:	00 00 3f 00 00 00 00 80 3f 00 00 00 00 80 1f 00     ..?.....?.......
    a64e:	00 00 00 c0 1f 00 00 00 00 c0 0f 00 00 00 00 e0     ................
    a65e:	0f 00 00 00 00 f0 07 00 00 00 00 f8 03 00 00 00     ................
    a66e:	00 fc 01 00 00 00 00 fe ff ff ff 03 00 ff ff ff     ................
    a67e:	ff 07 c0 ff ff ff ff 0f c0 ff ff ff ff 0f c0 ff     ................
    a68e:	ff ff ff 0f c0 ff ff ff ff 07 00 ff ff ff ff 03     ................
	...
    a6ea:	00 00 00 80 03 00 80 03 00 f0 07 00 e0 07 00 f8     ................
    a6fa:	0f 00 f0 0f 00 fe 0f 00 fc 0f 00 fe 0f 00 fe 0f     ................
    a70a:	00 ff 07 00 ff 0f 80 ff 01 80 ff 0f 80 7f 00 80     ................
    a71a:	ff 0f 80 1f 00 c0 ff 0f c0 0f 00 e0 df 0f c0 0f     ................
    a72a:	00 f0 cf 0f c0 07 00 f8 c7 0f c0 07 00 fc c3 0f     ................
    a73a:	c0 07 00 fe c1 0f c0 07 00 fe c0 0f c0 07 00 7f     ................
    a74a:	c0 0f c0 0f 80 7f c0 0f c0 1f e0 3f c0 0f 80 3f     ...........?...?
    a75a:	f8 1f c0 0f 80 ff ff 0f c0 0f 80 ff ff 07 c0 0f     ................
    a76a:	00 ff ff 03 c0 0f 00 fe ff 01 c0 0f 00 fc ff 00     ................
    a77a:	c0 0f 00 f8 3f 00 c0 0f 00 c0 0f 00 80 07 00 00     ....?...........
    a78a:	00 00 00 03 00 00 00 00 00 00 00 00 00 00 00 00     ................
	...
    a7ae:	00 00 1f 00 00 f0 01 80 7f 00 00 fc 03 80 ff 00     ................
    a7be:	00 fe 01 80 ff 01 00 ff 01 80 ff 03 00 ff 01 00     ................
    a7ce:	fe 03 80 ff 00 00 f8 07 80 3f c0 01 f0 07 80 0f     .........?......
    a7de:	e0 03 c0 07 c0 0f e0 03 c0 0f c0 07 e0 03 80 0f     ................
    a7ee:	c0 07 e0 03 80 0f c0 07 e0 03 80 0f c0 07 e0 03     ................
    a7fe:	80 0f c0 07 f0 03 80 0f c0 0f f0 03 c0 0f c0 1f     ................
    a80e:	f8 07 c0 0f 80 ff ff 0f e0 07 80 ff ff 1f f8 07     ................
    a81e:	80 ff ff ff ff 03 00 ff ff ff ff 03 00 fe 3f ff     ..............?.
    a82e:	ff 01 00 fc 0f fe ff 00 00 f0 07 fc 7f 00 00 00     ................
    a83e:	00 f8 3f 00 00 00 00 e0 07 00 00 00 00 00 00 00     ..?.............
	...
    a85a:	00 00 00 c0 03 00 00 00 00 e0 07 00 00 00 00 f0     ................
    a86a:	0f 00 00 00 00 fc 0f 00 00 00 00 fe 0f 00 00 00     ................
    a87a:	00 ff 0f 00 00 00 c0 ff 0f 00 00 00 e0 df 0f 00     ................
    a88a:	00 00 f0 cf 0f 00 00 00 fc c3 0f 00 00 00 fe c1     ................
    a89a:	0f 00 00 00 ff c0 0f 00 00 c0 3f c0 0f 00 00 e0     ..........?.....
    a8aa:	1f c0 0f 00 00 f0 0f c0 0f 00 00 fc 03 c0 0f 00     ................
    a8ba:	00 fe 01 c0 0f 00 00 ff 00 c0 0f 00 80 ff ff ff     ................
    a8ca:	ff 03 c0 ff ff ff ff 07 c0 ff ff ff ff 0f c0 ff     ................
    a8da:	ff ff ff 0f c0 ff ff ff ff 0f 80 ff ff ff ff 0f     ................
    a8ea:	00 ff ff ff ff 07 00 00 00 c0 0f 00 00 00 00 c0     ................
    a8fa:	0f 00 00 00 00 c0 0f 00 00 00 00 c0 0f 00 00 00     ................
    a90a:	00 80 07 00 00 00 00 00 02 00 00 00 00 00 00 00     ................
	...
    a92a:	04 00 00 00 00 03 3e 00 00 00 fc 07 ff 00 00 f0     ......>.........
    a93a:	ff 0f ff 01 00 ff ff 0f ff 03 80 ff ff 0f fe 03     ................
    a94a:	c0 ff ff 07 fc 07 c0 ff ff 03 f0 07 c0 ff ef 03     ................
    a95a:	e0 07 c0 3f f0 01 c0 0f c0 0f f0 00 c0 0f c0 0f     ...?............
    a96a:	f0 00 80 0f c0 0f f8 00 80 0f c0 0f f8 00 80 0f     ................
    a97a:	c0 0f f8 00 80 0f c0 0f f8 00 80 0f c0 0f f8 01     ................
    a98a:	c0 0f c0 0f f8 01 c0 07 c0 0f f8 03 f0 07 c0 0f     ................
    a99a:	f0 0f f8 07 c0 0f f0 ff ff 03 c0 0f e0 ff ff 03     ................
    a9aa:	c0 0f e0 ff ff 01 c0 0f c0 ff ff 00 c0 0f 80 ff     ................
    a9ba:	7f 00 80 07 00 fe 1f 00 00 00 00 f8 07 00 00 00     ................
	...
    a9e6:	00 00 f0 ff 00 00 00 00 ff ff 07 00 00 e0 ff ff     ................
    a9f6:	1f 00 00 f0 ff ff 7f 00 00 fc ff ff ff 00 00 fe     ................
    aa06:	ff ff ff 01 00 fe ff ff ff 03 00 ff 9f ff ff 03     ................
    aa16:	80 ff c0 0f fc 07 80 3f e0 03 f0 07 80 1f f0 01     .......?........
    aa26:	e0 0f c0 0f f0 01 c0 0f c0 0f f0 00 80 0f c0 07     ................
    aa36:	f8 00 80 0f c0 07 f8 00 80 0f c0 07 f8 00 80 0f     ................
    aa46:	c0 07 f8 00 80 0f c0 0f f8 01 c0 0f c0 0f f8 01     ................
    aa56:	c0 0f 80 1f f8 03 e0 07 80 7f f0 0f f8 07 80 ff     ................
    aa66:	f0 ff ff 03 00 ff e0 ff ff 03 00 fe e0 ff ff 01     ................
    aa76:	00 fc c0 ff ff 00 00 f8 00 ff 7f 00 00 00 00 fe     ................
    aa86:	1f 00 00 00 00 f0 07 00 00 00 00 00 00 00 00 00     ................
	...
    aab2:	80 07 00 00 00 00 c0 07 00 00 00 00 c0 0f 00 00     ................
    aac2:	00 00 c0 0f 00 00 00 00 c0 0f 00 00 00 00 c0 0f     ................
    aad2:	00 00 00 00 c0 0f 00 00 fc 07 c0 0f 00 80 ff 0f     ................
    aae2:	c0 0f 00 f0 ff 0f c0 0f 00 fc ff 0f c0 0f 00 ff     ................
    aaf2:	ff 0f c0 0f c0 ff ff 07 c0 0f f0 ff ff 03 c0 0f     ................
    ab02:	fc ff 3f 00 c0 0f fe ff 00 00 c0 8f ff 0f 00 00     ..?.............
    ab12:	c0 cf ff 01 00 00 c0 ef 7f 00 00 00 c0 ff 1f 00     ................
    ab22:	00 00 c0 ff 07 00 00 00 c0 ff 03 00 00 00 c0 ff     ................
    ab32:	00 00 00 00 c0 7f 00 00 00 00 c0 3f 00 00 00 00     ...........?....
    ab42:	80 0f 00 00 00 00 80 07 00 00 00 00 00 00 00 00     ................
	...
    ab66:	00 00 00 e0 0f 00 00 c0 03 f8 3f 00 00 f8 0f fc     ..........?.....
    ab76:	ff 00 00 fc 1f fe ff 01 00 fe 3f ff ff 03 00 ff     ..........?.....
    ab86:	7f ff ff 03 00 ff ff ff ff 07 80 ff ff 3f f8 07     .............?..
    ab96:	80 3f f8 0f e0 07 c0 0f f0 07 c0 0f c0 0f f0 07     .?..............
    aba6:	c0 0f c0 07 e0 03 80 0f c0 07 e0 03 80 0f c0 07     ................
    abb6:	e0 03 80 0f c0 07 e0 03 80 0f c0 07 e0 03 80 0f     ................
    abc6:	c0 0f f0 07 c0 0f c0 1f f0 07 c0 0f 80 3f fc 0f     .............?..
    abd6:	e0 07 80 ff ff 3f f8 07 00 ff ff ff ff 07 00 ff     .....?..........
    abe6:	7f ff ff 03 00 fe 3f ff ff 03 00 fc 1f fe ff 01     ......?.........
    abf6:	00 f8 0f fc ff 00 00 c0 01 f8 3f 00 00 00 00 e0     ..........?.....
    ac06:	0f 00 00 00 00 00 00 00 00 00 00 00 00 00 00 00     ................
	...
    ac26:	00 80 7f 00 00 00 00 e0 ff 01 10 00 00 f8 ff 07     ................
    ac36:	7c 00 00 fc ff 0f fc 01 00 fe ff 1f fc 03 00 ff     |...............
    ac46:	ff 1f fc 03 00 ff ff 3f fc 07 80 7f c0 3f f0 07     .......?.....?..
    ac56:	80 1f 00 7f e0 0f c0 0f 00 7e c0 0f c0 0f 00 7e     .........~.....~
    ac66:	80 0f c0 07 00 7c 80 0f c0 07 00 7c 80 0f c0 07     .....|.....|....
    ac76:	00 7c 80 0f c0 07 00 7c 80 0f c0 0f 00 3e c0 0f     .|.....|.....>..
    ac86:	c0 1f 00 3e e0 07 80 3f 00 1f f0 07 80 ff c0 0f     ...>...?........
    ac96:	fc 07 80 ff ff f7 ff 03 00 ff ff ff ff 03 00 fe     ................
    aca6:	ff ff ff 01 00 fc ff ff ff 00 00 f8 ff ff 3f 00     ..............?.
    acb6:	00 f0 ff ff 1f 00 00 80 ff ff 03 00 00 00 fc 3f     ...............?
	...

0000acda <Font24x32_Clock>:
	...
    acee:	00 80 ff 03 00 f0 ff 07 00 f8 ff 0f 00 fc ff 0f     ................
    acfe:	00 fe 00 1f 00 1f 00 1e 80 0f 00 1e 80 07 00 1e     ................
    ad0e:	c0 03 00 1e c0 03 00 1e c0 03 00 0f c0 03 80 0f     ................
    ad1e:	c0 03 e0 07 c0 0f fc 07 80 ff ff 03 80 ff ff 00     ................
    ad2e:	00 ff 3f 00 00 fc 07 00 00 00 00 00 00 00 00 00     ..?.............
	...
    ad4a:	00 00 00 1c 00 00 00 1e 00 00 00 1e 00 1c 00 1e     ................
    ad5a:	00 1e 00 1f 00 1e fc 1f 00 ff ff 1f 80 ff ff 1f     ................
    ad6a:	80 ff ff 1f c0 ff 07 1e c0 3f 00 0e c0 01 00 00     .........?......
	...
    adaa:	00 00 00 0c 00 00 80 1f 00 00 e0 1f 00 1c f0 1f     ................
    adba:	00 1e f8 1f 00 1f f8 1e 00 0f 7c 1e 80 0f 3c 1e     ..........|...<.
    adca:	80 07 1e 1e c0 03 1f 1e c0 03 0f 1e c0 83 07 1e     ................
    adda:	c0 c3 07 1e c0 e7 03 1e c0 ff 03 1e 80 ff 01 0c     ................
    adea:	80 ff 00 00 00 3f 00 00 00 04 00 00 00 00 00 00     .....?..........
	...
    ae0a:	00 00 80 01 00 00 c0 07 00 00 c0 0f 00 00 c0 0f     ................
    ae1a:	00 0e 80 1f 00 0f 00 1f 80 8f 03 1e 80 87 07 1e     ................
    ae2a:	c0 87 07 1e c0 83 07 1e c0 c3 07 1f c0 c3 0f 0f     ................
    ae3a:	c0 c3 ff 0f c0 e7 ff 07 80 ff ff 03 80 ff fc 01     ................
    ae4a:	00 7f 78 00 00 1e 00 00 00 00 00 00 00 00 00 00     ..x.............
	...
    ae66:	00 00 30 00 00 00 78 00 00 00 7c 00 00 00 7e 00     ..0...x...|...~.
    ae76:	00 00 7f 00 00 80 7f 00 00 c0 7f 00 00 e0 7b 00     ..............{.
    ae86:	00 f0 79 00 00 f8 78 00 00 7c 78 0c 00 3e f8 1f     ..y...x..|x..>..
    ae96:	80 df ff 1f 80 ff ff 1f c0 ff ff 0f c0 ff 7f 00     ................
    aea6:	c0 ff 78 00 80 03 78 00 00 00 38 00 00 00 00 00     ..x...x...8.....
	...
    aeca:	00 00 00 03 00 00 86 07 00 e0 87 0f 80 ff 87 1f     ................
    aeda:	c0 ff 07 1f c0 ff 03 1e c0 ff 03 1e c0 e7 01 1e     ................
    aeea:	c0 f3 01 1e c0 f3 00 1e c0 f3 00 0f c0 f3 80 0f     ................
    aefa:	c0 f3 80 0f c0 f3 e1 07 c0 f3 ff 03 c0 e3 ff 01     ................
    af0a:	c0 c3 ff 00 c0 83 3f 00 c0 01 00 00 00 00 00 00     ......?.........
	...
    af2a:	00 00 e0 00 00 00 fe 07 00 80 ff 0f 00 c0 ff 0f     ................
    af3a:	00 f0 ff 1f 00 f8 07 1f 00 fc 07 1e 00 bc 03 1e     ................
    af4a:	00 de 03 1e 00 cf 03 1e 80 cf 03 1e 80 c7 07 0f     ................
    af5a:	c0 c3 87 0f c0 c3 ff 07 c0 81 ff 03 00 80 ff 01     ................
    af6a:	00 00 ff 00 00 00 00 00 00 00 00 00 00 00 00 00     ................
	...
    af92:	80 03 00 1e c0 03 00 1f c0 03 c0 1f c0 03 e0 0f     ................
    afa2:	c0 03 f8 07 c0 03 fe 01 c0 03 7f 00 c0 83 3f 00     ..............?.
    afb2:	c0 e3 0f 00 c0 f3 07 00 c0 fb 01 00 c0 ff 00 00     ................
    afc2:	c0 7f 00 00 c0 1f 00 00 c0 0f 00 00 c0 07 00 00     ................
    afd2:	c0 03 00 00 c0 03 00 00 00 00 00 00 00 00 00 00     ................
	...
    afea:	00 00 e0 03 00 00 f8 07 00 00 fc 0f 00 fc fd 0f     ................
    affa:	00 fe 3f 1f 00 ff 1f 1e 80 ff 0f 1e 80 c7 07 1e     ..?.............
    b00a:	c0 83 07 1e c0 83 07 1e c0 83 07 1e c0 c3 0f 0f     ................
    b01a:	c0 c3 9f 0f c0 ff ff 0f c0 ff ff 07 80 ff fc 03     ................
    b02a:	00 7f f8 01 00 1c 00 00 00 00 00 00 00 00 00 00     ................
	...
    b04a:	00 00 00 0c 00 e0 01 1e 00 f8 07 1e 00 fe 0f 1e     ................
    b05a:	00 ff 0f 1f 00 bf 1f 0f 80 0f 1f 0f 80 07 9e 07     ................
    b06a:	c0 03 9e 07 c0 03 de 07 c0 03 fe 03 c0 03 fe 01     ................
    b07a:	c0 03 ff 01 c0 07 ff 00 c0 df 7f 00 80 ff 1f 00     ................
    b08a:	80 ff 0f 00 00 ff 03 00 00 7c 00 00 00 00 00 00     .........|......
	...
    b0c2:	00 00 80 03 00 00 c0 07 00 f0 e0 07 00 f8 e0 07     ................
    b0d2:	00 f8 c0 03 00 78 00 00 00 00 00 00 00 00 00 00     .....x..........
	...

0000b0fa <Consolas18x32>:
	...
    b15e:	f8 ff cf 01 f8 ff cf 01 f8 ff cf 01 00 00 00 00     ................
	...
    b19a:	f8 07 00 00 f8 07 00 00 f8 07 00 00 f8 07 00 00     ................
	...
    b1b6:	f8 07 00 00 f8 07 00 00 f8 07 00 00 f8 07 00 00     ................
	...
    b1d6:	00 00 0c 00 00 0c 0c 00 00 0c 0c 00 00 0c cc 01     ................
    b1e6:	00 cc ff 01 80 ff 7f 00 e0 7f 0c 00 e0 0c 0c 00     ................
    b1f6:	00 0c 0c 00 00 0c cc 01 00 cc ff 01 80 ff 7f 00     ................
    b206:	e0 7f 0c 00 e0 0c 0c 00 00 0c 0c 00 00 0c 0c 00     ................
    b216:	00 0c 00 00 00 00 00 00 00 00 00 00 00 1e 80 01     ................
    b226:	80 3f 80 01 c0 7f 00 03 c0 71 00 03 e0 e0 00 3f     .?.......q.....?
    b236:	60 e0 f8 3f 60 f0 ff 07 f0 ff 3f 03 fe ff 01 03     `..?`.....?.....
    b246:	7e 80 83 03 60 80 c7 01 60 00 ff 01 c0 00 fe 00     ~...`...`.......
    b256:	00 00 7c 00 00 00 00 00 00 00 00 00 00 00 00 00     ..|.............
    b266:	c0 03 00 00 f0 0f 00 08 f8 1f 00 0e 3c 3c 80 07     ............<<..
    b276:	1c 38 e0 01 3c 3c 78 00 f8 1f 1e 00 f0 8f 07 00     .8..<<x.........
    b286:	c0 e3 f1 00 00 78 fc 03 00 1e fe 07 80 07 0f 0f     .....x..........
    b296:	e0 01 07 0e 78 00 0f 0f 1c 00 fe 07 04 00 fc 01     ....x...........
    b2a6:	00 00 f0 00 00 00 00 00 00 00 7c 00 00 00 ff 00     ..........|.....
    b2b6:	c0 87 ff 01 e0 df c3 01 f0 ff 81 03 38 fc 00 03     ............8...
    b2c6:	18 f0 01 03 18 f0 03 03 18 b8 07 03 38 3c 0f 03     ............8<..
    b2d6:	f0 1f 9e 01 f0 0f fc 01 c0 03 f0 00 00 00 ff 01     ................
    b2e6:	00 80 ff 03 00 00 87 03 00 00 00 03 00 00 00 00     ................
	...
    b30e:	f8 07 00 00 f8 07 00 00 f8 07 00 00 f8 07 00 00     ................
	...
    b34e:	00 e0 1f 00 00 fc ff 01 00 ff ff 07 80 1f e0 1f     ................
    b35e:	e0 03 00 3f f0 00 00 7c 78 00 00 f8 1c 00 00 e0     ...?...|x.......
    b36e:	0c 00 00 c0 04 00 00 80 00 00 00 00 00 00 00 00     ................
	...
    b38e:	04 00 00 80 0c 00 00 c0 1c 00 00 e0 78 00 00 f0     ............x...
    b39e:	f0 00 00 7c e0 03 00 3f c0 1f e0 0f 00 ff ff 07     ...|...?........
    b3ae:	00 fc ff 01 00 e0 1f 00 00 00 00 00 00 00 00 00     ................
	...
    b3d6:	40 10 00 00 e0 38 00 00 c0 18 00 00 80 0d 00 00     @....8..........
    b3e6:	80 0f 00 00 f8 ff 01 00 f8 ff 01 00 80 0f 00 00     ................
    b3f6:	80 0d 00 00 c0 18 00 00 e0 38 00 00 40 10 00 00     .........8..@...
	...
    b41a:	00 00 03 00 00 00 03 00 00 00 03 00 00 00 03 00     ................
    b42a:	00 00 03 00 00 00 03 00 00 fe ff 01 00 fe ff 01     ................
    b43a:	00 00 03 00 00 00 03 00 00 00 03 00 00 00 03 00     ................
    b44a:	00 00 03 00 00 00 03 00 00 00 00 00 00 00 00 00     ................
	...
    b46a:	00 00 00 c0 00 00 00 c0 00 00 00 c0 00 00 c0 60     ...............`
    b47a:	00 00 e0 7b 00 00 e0 3f 00 00 e0 1f 00 00 80 0f     ...{...?........
	...
    b4b2:	00 00 06 00 00 00 06 00 00 00 06 00 00 00 06 00     ................
    b4c2:	00 00 06 00 00 00 06 00 00 00 06 00 00 00 06 00     ................
    b4d2:	00 00 06 00 00 00 06 00 00 00 00 00 00 00 00 00     ................
	...
    b502:	00 00 c0 01 00 00 e0 03 00 00 e0 03 00 00 e0 03     ................
    b512:	00 00 c0 01 00 00 00 00 00 00 00 00 00 00 00 00     ................
	...
    b53a:	00 00 00 30 00 00 00 3c 00 00 00 0f 00 00 c0 03     ...0...<........
    b54a:	00 00 f0 00 00 00 3c 00 00 00 0f 00 00 c0 03 00     ......<.........
    b55a:	00 f0 00 00 00 3c 00 00 00 0f 00 00 c0 03 00 00     .....<..........
    b56a:	f0 00 00 00 3c 00 00 00 0c 00 00 00 00 00 00 00     ....<...........
    b57a:	00 00 00 00 00 f8 0f 00 00 fe 7f 00 80 ff ff 00     ................
    b58a:	c0 07 fc 01 c0 01 c6 01 e0 00 83 03 60 80 03 03     ............`...
    b59a:	60 c0 01 03 60 e0 00 03 e0 60 80 03 c0 31 c0 01     `...`....`...1..
    b5aa:	c0 1f f0 01 80 ff ff 00 00 ff 3f 00 00 f8 0f 00     ..........?.....
	...
    b5ca:	00 02 00 00 00 07 00 03 80 03 00 03 c0 01 00 03     ................
    b5da:	e0 00 00 03 60 00 00 03 e0 ff ff 03 e0 ff ff 03     ....`...........
    b5ea:	e0 ff ff 03 00 00 00 03 00 00 00 03 00 00 00 03     ................
    b5fa:	00 00 00 03 00 00 00 03 00 00 00 00 00 00 00 00     ................
	...
    b612:	80 00 00 03 c0 01 80 03 c0 00 c0 03 e0 00 e0 03     ................
    b622:	60 00 f8 03 60 00 7c 03 60 00 3e 03 60 00 1f 03     `...`.|.`.>.`...
    b632:	e0 80 07 03 c0 c1 03 03 c0 ff 01 03 80 ff 00 03     ................
    b642:	00 3e 00 03 00 00 00 03 00 00 00 00 00 00 00 00     .>..............
	...
    b65e:	00 00 00 03 c0 00 00 03 60 00 00 03 60 c0 00 03     ........`...`...
    b66e:	60 c0 00 03 60 c0 00 03 60 c0 00 03 60 e0 80 03     `...`...`...`...
    b67e:	e0 f0 81 01 c0 bf c3 01 c0 bf ff 00 00 0f 7f 00     ................
    b68e:	00 00 3e 00 00 00 00 00 00 00 00 00 00 00 00 00     ..>.............
    b69e:	00 00 1c 00 00 00 1e 00 00 80 1f 00 00 e0 1b 00     ................
    b6ae:	00 f0 18 00 00 7c 18 00 00 1e 18 00 80 0f 18 00     .....|..........
    b6be:	c0 03 18 00 e0 00 18 00 e0 ff ff 03 e0 ff ff 03     ................
    b6ce:	e0 ff ff 03 00 00 18 00 00 00 18 00 00 00 18 00     ................
    b6de:	00 00 18 00 00 00 00 00 00 00 00 00 00 00 00 00     ................
    b6ee:	e0 7f 00 03 e0 7f 00 03 e0 7f 00 03 60 60 00 03     ............``..
    b6fe:	60 60 00 03 60 60 00 03 60 60 00 03 60 60 80 03     ``..``..``..``..
    b70e:	60 e0 80 01 60 c0 e1 01 60 c0 ff 00 60 80 7f 00     `...`...`...`...
    b71e:	00 00 1f 00 00 00 00 00 00 00 00 00 00 00 00 00     ................
    b72e:	00 00 00 00 00 f0 1f 00 00 fc 7f 00 00 ff ff 00     ................
    b73e:	80 c7 e0 01 80 63 80 03 c0 61 00 03 c0 60 00 03     .....c...a...`..
    b74e:	60 60 00 03 60 60 00 03 60 60 00 03 60 e0 80 01     ``..``..``..`...
    b75e:	60 c0 c1 01 60 c0 ff 00 00 80 7f 00 00 00 3f 00     `...`.........?.
	...
    b77a:	60 00 00 00 60 00 00 00 60 00 00 02 60 00 80 03     `...`...`...`...
    b78a:	60 00 e0 03 60 00 f8 03 60 00 7e 00 60 80 1f 00     `...`...`.~.`...
    b79a:	60 e0 07 00 60 fc 01 00 60 7f 00 00 e0 0f 00 00     `...`...`.......
    b7aa:	e0 03 00 00 e0 00 00 00 00 00 00 00 00 00 00 00     ................
	...
    b7c2:	00 0f 7c 00 80 1f fe 00 c0 3f ff 01 c0 f0 87 01     ..|......?......
    b7d2:	60 e0 83 03 60 e0 01 03 60 c0 00 03 60 c0 00 03     `...`...`...`...
    b7e2:	60 e0 01 03 60 e0 83 03 e0 f0 87 01 c0 3f ff 01     `...`........?..
    b7f2:	c0 1f fe 00 00 0f 7c 00 00 00 00 00 00 00 00 00     ......|.........
	...
    b80a:	00 7e 00 00 00 ff 00 03 80 ff 01 03 c0 c1 01 03     .~..............
    b81a:	c0 80 03 03 60 00 03 03 60 00 03 03 60 00 83 01     ....`...`...`...
    b82a:	60 00 83 01 60 00 c3 01 e0 00 e3 00 c0 83 f9 00     `...`...........
    b83a:	80 ff 7f 00 00 ff 1f 00 00 fc 07 00 00 00 00 00     ................
	...
    b866:	00 38 c0 01 00 7c e0 03 00 7c e0 03 00 7c e0 03     .8...|...|...|..
    b876:	00 38 c0 01 00 00 00 00 00 00 00 00 00 00 00 00     .8..............
	...
    b8a2:	00 00 00 c0 00 00 00 c0 00 00 00 c0 00 38 c0 60     .............8.`
    b8b2:	00 7c e0 7b 00 7c e0 3f 00 7c e0 1f 00 38 80 0f     .|.{.|.?.|...8..
	...
    b8e6:	00 00 03 00 00 80 07 00 00 c0 0f 00 00 e0 1f 00     ................
    b8f6:	00 e0 1c 00 00 70 38 00 00 38 70 00 00 1c e0 00     .....p8..8p.....
    b906:	00 1e e0 01 00 0e c0 01 00 07 80 03 00 02 00 01     ................
	...
    b92a:	00 c0 18 00 00 c0 18 00 00 c0 18 00 00 c0 18 00     ................
    b93a:	00 c0 18 00 00 c0 18 00 00 c0 18 00 00 c0 18 00     ................
    b94a:	00 c0 18 00 00 c0 18 00 00 c0 18 00 00 c0 18 00     ................
    b95a:	00 c0 18 00 00 c0 18 00 00 00 00 00 00 00 00 00     ................
	...
    b976:	00 02 00 01 00 07 80 03 00 0e c0 01 00 1e e0 01     ................
    b986:	00 1c e0 00 00 38 70 00 00 70 38 00 00 e0 1c 00     .....8p..p8.....
    b996:	00 e0 1f 00 00 c0 0f 00 00 80 07 00 00 00 03 00     ................
	...
    b9c6:	18 00 00 00 18 00 80 01 18 e0 cf 03 18 e0 cf 03     ................
    b9d6:	30 e0 8f 01 70 60 00 00 f0 70 00 00 e0 3f 00 00     0...p`...p...?..
    b9e6:	c0 3f 00 00 00 0f 00 00 00 00 00 00 00 00 00 00     .?..............
    b9f6:	00 00 00 00 00 f8 ff 01 00 fe ff 07 80 1f 00 1f     ................
    ba06:	e0 01 00 3c 70 c0 1f 78 38 f0 7f 70 0c fc 7f 60     ...<p..x8..p...`
    ba16:	0e 3c 60 60 06 0e 60 60 06 06 3c 60 06 fe 3f 60     .<``..``..<`..?`
    ba26:	06 fe 7f 60 0c 3e 60 30 1c 00 60 38 f8 00 38 18     ...`.>`0..`8..8.
    ba36:	f0 ff 1f 00 80 ff 03 00 00 00 00 00 00 00 80 03     ................
    ba46:	00 00 f0 03 00 00 fe 03 00 c0 7f 00 00 f8 1f 00     ................
    ba56:	00 ff 18 00 e0 1f 18 00 e0 03 18 00 e0 00 18 00     ................
    ba66:	e0 03 18 00 e0 1f 18 00 00 ff 19 00 00 f8 1f 00     ................
    ba76:	00 c0 7f 00 00 00 fe 03 00 00 f0 03 00 00 80 03     ................
	...
    ba96:	e0 ff ff 03 e0 ff ff 03 e0 ff ff 03 60 c0 00 03     ............`...
    baa6:	60 c0 00 03 60 c0 00 03 60 c0 00 03 60 c0 00 03     `...`...`...`...
    bab6:	e0 e0 00 03 e0 f0 81 01 c0 bf c3 01 c0 bf ff 00     ................
    bac6:	00 0f ff 00 00 00 3e 00 00 00 00 00 00 00 00 00     ......>.........
    bad6:	00 f0 0f 00 00 fe 3f 00 00 ff 7f 00 80 0f f8 00     ......?.........
    bae6:	c0 03 c0 01 c0 01 80 01 e0 00 80 03 60 00 00 03     ............`...
    baf6:	60 00 00 03 60 00 00 03 60 00 00 03 60 00 00 03     `...`...`...`...
    bb06:	60 00 00 03 60 00 80 01 c0 00 80 01 00 00 00 00     `...`...........
	...
    bb22:	e0 ff ff 03 e0 ff ff 03 e0 ff ff 03 60 00 00 03     ............`...
    bb32:	60 00 00 03 60 00 00 03 60 00 00 03 60 00 00 03     `...`...`...`...
    bb42:	e0 00 80 01 c0 00 80 01 c0 01 c0 01 80 07 f8 00     ................
    bb52:	80 ff 7f 00 00 fe 3f 00 00 f8 07 00 00 00 00 00     ......?.........
	...
    bb6e:	e0 ff ff 03 e0 ff ff 03 e0 ff ff 03 60 c0 00 03     ............`...
    bb7e:	60 c0 00 03 60 c0 00 03 60 c0 00 03 60 c0 00 03     `...`...`...`...
    bb8e:	60 c0 00 03 60 c0 00 03 60 c0 00 03 60 c0 00 03     `...`...`...`...
	...
    bbb6:	e0 ff ff 03 e0 ff ff 03 e0 ff ff 03 60 80 01 00     ............`...
    bbc6:	60 80 01 00 60 80 01 00 60 80 01 00 60 80 01 00     `...`...`...`...
    bbd6:	60 80 01 00 60 80 01 00 60 80 01 00 60 80 01 00     `...`...`...`...
	...
    bbf6:	00 f0 0f 00 00 fc 3f 00 00 ff 7f 00 80 0f f0 00     ......?.........
    bc06:	c0 03 c0 01 c0 01 80 01 e0 00 80 03 60 00 00 03     ............`...
    bc16:	60 80 01 03 60 80 01 03 60 80 01 03 60 80 01 03     `...`...`...`...
    bc26:	60 80 ff 03 60 80 ff 01 c0 80 ff 01 00 00 00 00     `...`...........
	...
    bc42:	e0 ff ff 03 e0 ff ff 03 e0 ff ff 03 00 c0 00 00     ................
    bc52:	00 c0 00 00 00 c0 00 00 00 c0 00 00 00 c0 00 00     ................
    bc62:	00 c0 00 00 00 c0 00 00 00 c0 00 00 e0 ff ff 03     ................
    bc72:	e0 ff ff 03 e0 ff ff 03 00 00 00 00 00 00 00 00     ................
	...
    bc8e:	60 00 00 03 60 00 00 03 60 00 00 03 60 00 00 03     `...`...`...`...
    bc9e:	60 00 00 03 e0 ff ff 03 e0 ff ff 03 e0 ff ff 03     `...............
    bcae:	60 00 00 03 60 00 00 03 60 00 00 03 60 00 00 03     `...`...`...`...
    bcbe:	60 00 00 03 00 00 00 00 00 00 00 00 00 00 00 00     `...............
	...
    bcd6:	60 00 c0 00 60 00 80 01 60 00 00 03 60 00 00 03     `...`...`...`...
    bce6:	60 00 00 03 60 00 00 03 60 00 80 03 60 00 c0 01     `...`...`...`...
    bcf6:	e0 ff ff 01 e0 ff ff 00 e0 ff 3f 00 00 00 00 00     ..........?.....
	...
    bd1e:	e0 ff ff 03 e0 ff ff 03 e0 ff ff 03 00 80 00 00     ................
    bd2e:	00 e0 03 00 00 f0 07 00 00 3c 1f 00 00 1e 3c 00     .........<....<.
    bd3e:	80 0f f8 00 c0 03 f0 01 e0 01 c0 03 e0 00 80 03     ................
    bd4e:	20 00 00 03 00 00 00 00 00 00 00 00 00 00 00 00      ...............
	...
    bd6a:	e0 ff ff 03 e0 ff ff 03 e0 ff ff 03 00 00 00 03     ................
    bd7a:	00 00 00 03 00 00 00 03 00 00 00 03 00 00 00 03     ................
    bd8a:	00 00 00 03 00 00 00 03 00 00 00 03 00 00 00 03     ................
	...
    bda6:	e0 ff ff 03 e0 ff ff 03 e0 ff ff 03 e0 01 00 00     ................
    bdb6:	e0 07 00 00 80 0f 00 00 00 3e 00 00 00 78 00 00     .........>...x..
    bdc6:	00 f0 00 00 00 78 00 00 00 3e 00 00 80 0f 00 00     .....x...>......
    bdd6:	e0 07 00 00 e0 01 00 00 e0 ff ff 03 e0 ff ff 03     ................
    bde6:	e0 ff ff 03 00 00 00 00 00 00 00 00 e0 ff ff 03     ................
    bdf6:	e0 ff ff 03 e0 ff ff 03 e0 03 00 00 80 0f 00 00     ................
    be06:	00 7e 00 00 00 f8 01 00 00 c0 0f 00 00 00 3f 00     .~............?.
    be16:	00 00 f8 00 00 00 e0 03 e0 ff ff 03 e0 ff ff 03     ................
    be26:	e0 ff ff 03 00 00 00 00 00 00 00 00 00 00 00 00     ................
    be36:	00 f8 0f 00 00 fe 7f 00 80 ff ff 00 80 07 f0 01     ................
    be46:	c0 01 c0 01 e0 00 80 03 60 00 00 03 60 00 00 03     ........`...`...
    be56:	60 00 00 03 60 00 00 03 e0 00 80 03 c0 01 c0 01     `...`...........
    be66:	c0 07 f0 00 80 ff ff 00 00 ff 3f 00 00 f8 0f 00     ..........?.....
	...
    be86:	e0 ff ff 03 e0 ff ff 03 e0 ff ff 03 60 00 03 00     ............`...
    be96:	60 00 03 00 60 00 03 00 60 00 03 00 60 00 03 00     `...`...`...`...
    bea6:	60 00 03 00 e0 80 01 00 c0 c1 01 00 c0 ff 00 00     `...............
    beb6:	80 7f 00 00 00 3e 00 00 00 00 00 00 00 00 00 00     .....>..........
    bec6:	00 f0 0f 00 00 fe 7f 00 80 ff ff 00 80 07 f0 01     ................
    bed6:	c0 01 c0 01 e0 00 80 03 60 00 00 03 60 00 00 0f     ........`...`...
    bee6:	60 00 00 3f 60 00 00 7f e0 00 80 f3 c0 01 c0 e1     `..?`...........
    bef6:	c0 07 f0 c1 80 ff ff c0 00 ff 3f c0 00 f8 0f e0     ..........?.....
    bf06:	00 00 00 40 00 00 00 00 00 00 00 00 00 00 00 00     ...@............
    bf16:	e0 ff ff 03 e0 ff ff 03 e0 ff ff 03 60 c0 00 00     ............`...
    bf26:	60 c0 00 00 60 c0 00 00 60 c0 01 00 60 c0 03 00     `...`...`...`...
    bf36:	e0 e0 07 00 c0 70 1f 00 c0 7f 7c 00 80 3f f0 01     .....p....|..?..
    bf46:	00 0f e0 03 00 00 80 03 00 00 00 02 00 00 00 00     ................
    bf56:	00 00 00 00 00 1f 80 01 80 3f 80 01 c0 7f 00 03     .........?......
    bf66:	c0 71 00 03 e0 e0 00 03 60 e0 00 03 60 c0 01 03     .q......`...`...
    bf76:	60 c0 01 03 60 c0 01 03 60 80 83 03 60 80 c7 01     `...`...`...`...
    bf86:	c0 00 ff 01 c0 00 fe 00 00 00 7c 00 00 00 00 00     ..........|.....
	...
    bfa2:	60 00 00 00 60 00 00 00 60 00 00 00 60 00 00 00     `...`...`...`...
    bfb2:	60 00 00 00 60 00 00 00 e0 ff ff 03 e0 ff ff 03     `...`...........
    bfc2:	e0 ff ff 03 60 00 00 00 60 00 00 00 60 00 00 00     ....`...`...`...
    bfd2:	60 00 00 00 60 00 00 00 60 00 00 00 00 00 00 00     `...`...`.......
	...
    bfea:	e0 ff 3f 00 e0 ff ff 00 e0 ff ff 01 00 00 c0 01     ..?.............
    bffa:	00 00 80 03 00 00 00 03 00 00 00 03 00 00 00 03     ................
    c00a:	00 00 00 03 00 00 00 03 00 00 80 03 00 00 c0 01     ................
    c01a:	e0 ff ff 00 e0 ff 7f 00 e0 ff 3f 00 00 00 00 00     ..........?.....
    c02a:	00 00 00 00 e0 00 00 00 e0 07 00 00 e0 3f 00 00     .............?..
    c03a:	80 ff 01 00 00 f8 0f 00 00 c0 7f 00 00 00 fe 01     ................
    c04a:	00 00 f0 03 00 00 80 03 00 00 f0 03 00 00 fe 01     ................
    c05a:	00 c0 3f 00 00 f8 0f 00 00 ff 01 00 e0 3f 00 00     ..?..........?..
    c06a:	e0 07 00 00 e0 00 00 00 00 00 00 00 e0 ff 03 00     ................
    c07a:	e0 ff 7f 00 00 80 ff 03 00 00 e0 03 00 00 f8 03     ................
    c08a:	00 00 fe 00 00 80 1f 00 00 e0 07 00 00 e0 07 00     ................
    c09a:	00 80 1f 00 00 00 fe 00 00 00 f0 03 00 00 c0 03     ................
    c0aa:	00 80 ff 03 e0 ff 3f 00 e0 ff 03 00 00 00 00 00     ......?.........
    c0ba:	00 00 00 02 20 00 00 03 60 00 c0 03 e0 01 e0 03     .... ...`.......
    c0ca:	e0 03 f8 01 80 0f 7c 00 00 3f 1f 00 00 fc 0f 00     ......|..?......
    c0da:	00 f8 03 00 00 f8 03 00 00 fc 0f 00 00 3f 1f 00     .............?..
    c0ea:	80 0f 7e 00 e0 03 f8 01 e0 01 e0 03 60 00 c0 03     ..~.........`...
    c0fa:	20 00 00 03 00 00 00 02 20 00 00 00 60 00 00 00      ....... ...`...
    c10a:	e0 01 00 00 c0 07 00 00 80 0f 00 00 00 3e 00 00     .............>..
    c11a:	00 fc 00 00 00 f0 01 00 00 c0 ff 03 00 80 ff 03     ................
    c12a:	00 c0 ff 03 00 f0 01 00 00 f8 00 00 00 3e 00 00     .............>..
    c13a:	80 0f 00 00 c0 07 00 00 e0 01 00 00 60 00 00 00     ............`...
	...
    c152:	60 00 00 03 60 00 c0 03 60 00 e0 03 60 00 f8 03     `...`...`...`...
    c162:	60 00 3e 03 60 00 1f 03 60 c0 07 03 60 f0 01 03     `.>.`...`...`...
    c172:	60 fc 00 03 60 3e 00 03 e0 0f 00 03 e0 03 00 03     `...`>..........
    c182:	e0 01 00 03 60 00 00 03 00 00 00 00 00 00 00 00     ....`...........
	...
    c1a6:	fe ff ff 7f fe ff ff 7f fe ff ff 7f 06 00 00 60     ...............`
    c1b6:	06 00 00 60 06 00 00 60 06 00 00 60 06 00 00 60     ...`...`...`...`
	...
    c1e2:	0c 00 00 00 3c 00 00 00 f0 00 00 00 c0 03 00 00     ....<...........
    c1f2:	00 0f 00 00 00 3c 00 00 00 f0 00 00 00 c0 03 00     .....<..........
    c202:	00 00 0f 00 00 00 3c 00 00 00 f0 00 00 00 c0 03     ......<.........
    c212:	00 00 00 0f 00 00 00 3c 00 00 00 30 00 00 00 00     .......<...0....
	...
    c236:	06 00 00 60 06 00 00 60 06 00 00 60 06 00 00 60     ...`...`...`...`
    c246:	06 00 00 60 fe ff ff 7f fe ff ff 7f fe ff ff 7f     ...`............
	...
    c272:	00 60 00 00 00 70 00 00 00 7c 00 00 00 1f 00 00     .`...p...|......
    c282:	80 07 00 00 e0 01 00 00 60 00 00 00 e0 01 00 00     ........`.......
    c292:	c0 07 00 00 00 1f 00 00 00 7c 00 00 00 70 00 00     .........|...p..
    c2a2:	00 60 00 00 00 00 00 00 00 00 00 00 00 00 00 00     .`..............
    c2b2:	00 00 00 e0 00 00 00 e0 00 00 00 e0 00 00 00 e0     ................
    c2c2:	00 00 00 e0 00 00 00 e0 00 00 00 e0 00 00 00 e0     ................
    c2d2:	00 00 00 e0 00 00 00 e0 00 00 00 e0 00 00 00 e0     ................
    c2e2:	00 00 00 e0 00 00 00 e0 00 00 00 e0 00 00 00 e0     ................
    c2f2:	00 00 00 e0 00 00 00 e0 00 00 00 00 00 00 00 00     ................
	...
    c30a:	08 00 00 00 18 00 00 00 38 00 00 00 78 00 00 00     ........8...x...
    c31a:	f0 00 00 00 e0 00 00 00 c0 00 00 00 80 00 00 00     ................
	...
    c34a:	00 00 f0 00 00 18 f8 01 00 18 fc 01 00 0c 8c 03     ................
    c35a:	00 0c 06 03 00 0c 06 03 00 0c 06 03 00 0c 06 03     ................
    c36a:	00 0c 86 01 00 1c 86 01 00 3c c6 00 00 f8 ff 03     .........<......
    c37a:	00 f0 ff 03 00 e0 ff 03 00 00 00 00 00 00 00 00     ................
	...
    c396:	f8 ff ff 01 f8 ff ff 01 f8 ff ff 03 00 70 80 03     .............p..
    c3a6:	00 38 00 03 00 18 00 03 00 0c 00 03 00 0c 00 03     .8..............
    c3b6:	00 0c 80 03 00 1c 80 01 00 3c e0 01 00 f8 ff 00     .........<......
    c3c6:	00 f0 7f 00 00 c0 1f 00 00 00 00 00 00 00 00 00     ................
	...
    c3de:	00 80 1f 00 00 e0 7f 00 00 f0 ff 00 00 78 e0 01     .............x..
    c3ee:	00 38 80 01 00 1c 80 03 00 0c 00 03 00 0c 00 03     .8..............
    c3fe:	00 0c 00 03 00 0c 00 03 00 0c 00 03 00 0c 00 03     ................
    c40e:	00 18 80 01 00 00 00 00 00 00 00 00 00 00 00 00     ................
    c41e:	00 00 00 00 00 80 3f 00 00 e0 ff 00 00 f0 ff 01     ......?.........
    c42e:	00 78 c0 03 00 18 80 03 00 1c 00 03 00 0c 00 03     .x..............
    c43e:	00 0c 00 03 00 0c 80 01 00 0c c0 01 00 0c e0 00     ................
    c44e:	f8 ff ff 03 f8 ff ff 03 f8 ff ff 03 00 00 00 00     ................
	...
    c46a:	00 80 3f 00 00 e0 ff 00 00 f0 ff 01 00 78 c6 01     ..?..........x..
    c47a:	00 1c 86 03 00 0c 06 03 00 0c 06 03 00 0c 06 03     ................
    c48a:	00 0c 06 03 00 1c 06 03 00 38 06 03 00 f8 07 01     .........8......
    c49a:	00 f0 87 01 00 c0 07 00 00 00 00 00 00 00 00 00     ................
    c4aa:	00 00 00 00 00 30 00 00 00 30 00 00 00 30 00 00     .....0...0...0..
    c4ba:	00 30 00 00 00 30 00 00 c0 ff ff 03 e0 ff ff 03     .0...0..........
    c4ca:	f0 ff ff 03 70 30 00 00 38 30 00 00 18 30 00 00     ....p0..80...0..
    c4da:	18 30 00 00 18 00 00 00 00 00 00 00 00 00 00 00     .0..............
	...
    c4fa:	00 00 00 1e 00 f8 3c 3f 00 fc ff 7f 00 fe ff 71     ......<?.......q
    c50a:	00 8e e3 60 00 07 c7 60 00 03 c6 60 00 03 c6 60     ...`...`...`...`
    c51a:	00 03 c6 60 00 07 c7 60 00 8f c3 70 00 ff c3 71     ...`...`...p...q
    c52a:	00 ff c1 3f 00 fb 80 1f 00 03 00 0f 00 03 00 00     ...?............
	...
    c546:	f8 ff ff 03 f8 ff ff 03 f8 ff ff 03 00 70 00 00     .............p..
    c556:	00 38 00 00 00 18 00 00 00 0c 00 00 00 0c 00 00     .8..............
    c566:	00 0c 00 00 00 1c 00 00 00 f8 ff 03 00 f8 ff 03     ................
    c576:	00 e0 ff 03 00 00 00 00 00 00 00 00 00 00 00 00     ................
	...
    c58e:	00 00 00 03 00 0c 00 03 00 0c 00 03 00 0c 00 03     ................
    c59e:	60 0c 00 03 f0 fc ff 03 f0 fc ff 03 f0 fc ff 03     `...............
    c5ae:	60 00 00 03 00 00 00 03 00 00 00 03 00 00 00 03     `...............
    c5be:	00 00 00 03 00 00 00 00 00 00 00 00 00 00 00 00     ................
    c5ce:	00 00 00 00 00 00 00 30 00 03 00 60 00 03 00 60     .......0...`...`
    c5de:	00 03 00 60 00 03 00 60 00 03 00 60 00 03 00 60     ...`...`...`...`
    c5ee:	00 03 00 70 18 03 00 78 3c ff ff 3f 3c ff ff 1f     ...p...x<..?<...
    c5fe:	3c ff ff 07 18 00 00 00 00 00 00 00 00 00 00 00     <...............
	...
    c61e:	f8 ff ff 03 f8 ff ff 03 f8 ff ff 03 00 00 02 00     ................
    c62e:	00 00 07 00 00 80 0f 00 00 c0 3d 00 00 e0 78 00     ..........=...x.
    c63e:	00 70 f0 00 00 38 e0 01 00 1c c0 03 00 0c 80 03     .p...8..........
    c64e:	00 04 00 03 00 00 00 02 00 00 00 00 00 00 00 00     ................
	...
    c666:	00 00 00 03 18 00 00 03 18 00 00 03 18 00 00 03     ................
    c676:	18 00 00 03 f8 ff ff 03 f8 ff ff 03 f8 ff ff 03     ................
    c686:	00 00 00 03 00 00 00 03 00 00 00 03 00 00 00 03     ................
    c696:	00 00 00 03 00 00 00 00 00 00 00 00 00 00 00 00     ................
    c6a6:	00 00 00 00 00 fc ff 03 00 fc ff 03 00 fc ff 03     ................
    c6b6:	00 38 00 00 00 0c 00 00 00 0c 00 00 00 fc ff 03     .8..............
    c6c6:	00 fc ff 03 00 f0 ff 03 00 38 00 00 00 0c 00 00     .........8......
    c6d6:	00 0c 00 00 00 fc ff 03 00 fc ff 03 00 f0 ff 03     ................
	...
    c6f6:	00 fc ff 03 00 fc ff 03 00 fc ff 03 00 70 00 00     .............p..
    c706:	00 38 00 00 00 18 00 00 00 0c 00 00 00 0c 00 00     .8..............
    c716:	00 0c 00 00 00 1c 00 00 00 fc ff 03 00 f8 ff 03     ................
    c726:	00 e0 ff 03 00 00 00 00 00 00 00 00 00 00 00 00     ................
    c736:	00 80 1f 00 00 e0 7f 00 00 f0 ff 00 00 78 e0 01     .............x..
    c746:	00 18 80 03 00 0c 00 03 00 0c 00 03 00 0c 00 03     ................
    c756:	00 0c 00 03 00 0c 00 03 00 1c 80 01 00 78 e0 01     .............x..
    c766:	00 f0 ff 00 00 e0 7f 00 00 c0 1f 00 00 00 00 00     ................
	...
    c786:	00 fc ff ff 00 fc ff ff 00 fc ff ff 00 70 80 03     .............p..
    c796:	00 38 00 03 00 18 00 03 00 0c 00 03 00 0c 00 03     .8..............
    c7a6:	00 0c 80 03 00 1c 80 01 00 3c e0 01 00 f8 ff 00     .........<......
    c7b6:	00 f0 7f 00 00 c0 1f 00 00 00 00 00 00 00 00 00     ................
    c7c6:	00 00 00 00 00 80 3f 00 00 e0 ff 00 00 f0 ff 01     ......?.........
    c7d6:	00 78 c0 03 00 18 80 03 00 1c 00 03 00 0c 00 03     .x..............
    c7e6:	00 0c 00 03 00 0c 80 01 00 0c c0 01 00 0c e0 00     ................
    c7f6:	00 f8 ff ff 00 fc ff ff 00 fc ff ff 00 00 00 00     ................
	...
    c816:	00 fc ff 03 00 fc ff 03 00 fc ff 03 00 70 00 00     .............p..
    c826:	00 38 00 00 00 18 00 00 00 0c 00 00 00 0c 00 00     .8..............
    c836:	00 0c 00 00 00 1c 00 00 00 fc 00 00 00 f8 00 00     ................
    c846:	00 e0 00 00 00 00 00 00 00 00 00 00 00 00 00 00     ................
	...
    c85e:	00 e0 80 01 00 f0 81 01 00 f8 03 03 00 9c 03 03     ................
    c86e:	00 0c 07 03 00 0c 07 03 00 0c 06 03 00 0c 0e 03     ................
    c87e:	00 0c 0e 03 00 0c 9c 01 00 1c fc 01 00 18 f8 00     ................
    c88e:	00 00 70 00 00 00 00 00 00 00 00 00 00 00 00 00     ..p.............
    c89e:	00 0c 00 00 00 0c 00 00 00 0c 00 00 00 0c 00 00     ................
    c8ae:	00 0c 00 00 c0 ff ff 00 e0 ff ff 01 e0 ff ff 01     ................
    c8be:	00 0c 80 03 00 0c 00 03 00 0c 00 03 00 0c 00 03     ................
    c8ce:	00 0c 00 03 00 0c 00 03 00 0c 80 01 00 00 00 00     ................
	...
    c8ee:	00 fc 7f 00 00 fc ff 01 00 fc ff 03 00 00 80 03     ................
    c8fe:	00 00 00 03 00 00 00 03 00 00 00 03 00 00 80 01     ................
    c90e:	00 00 c0 01 00 00 e0 00 00 fc ff 03 00 fc ff 03     ................
    c91e:	00 fc ff 03 00 00 00 00 00 00 00 00 00 00 00 00     ................
    c92e:	00 00 00 00 00 1c 00 00 00 7c 00 00 00 fc 03 00     .........|......
    c93e:	00 f0 0f 00 00 80 7f 00 00 00 fc 01 00 00 e0 03     ................
    c94e:	00 00 c0 03 00 00 e0 03 00 00 fc 01 00 80 7f 00     ................
    c95e:	00 f0 0f 00 00 fc 03 00 00 7c 00 00 00 1c 00 00     .........|......
	...
    c976:	00 fc 0f 00 00 fc ff 01 00 80 ff 03 00 00 80 03     ................
    c986:	00 00 e0 03 00 00 f8 01 00 00 3e 00 00 80 0f 00     ..........>.....
    c996:	00 80 0f 00 00 00 3e 00 00 00 f8 01 00 00 e0 03     ......>.........
    c9a6:	00 00 80 03 00 80 ff 03 00 fc ff 01 00 fc 0f 00     ................
	...
    c9be:	00 04 00 02 00 0c 00 03 00 1c 80 03 00 7c c0 03     .............|..
    c9ce:	00 f8 f0 01 00 e0 79 00 00 c0 3f 00 00 80 1f 00     ......y...?.....
    c9de:	00 80 1f 00 00 c0 3f 00 00 e0 79 00 00 f8 f0 01     ......?...y.....
    c9ee:	00 7c e0 03 00 1c 80 03 00 0c 00 03 00 04 00 02     .|..............
	...
    ca06:	00 00 00 60 00 07 00 60 00 1f 00 60 00 ff 00 60     ...`...`...`...`
    ca16:	00 fc 03 70 00 e0 1f 38 00 00 7f 1e 00 00 f8 0f     ...p...8........
    ca26:	00 00 e0 07 00 00 fc 01 00 00 7f 00 00 e0 0f 00     ................
    ca36:	00 fc 03 00 00 7f 00 00 00 1f 00 00 00 03 00 00     ................
	...
    ca56:	00 0c 00 03 00 0c 80 03 00 0c c0 03 00 0c f0 03     ................
    ca66:	00 0c 78 03 00 0c 1c 03 00 0c 0f 03 00 8c 07 03     ..x.............
    ca76:	00 cc 01 03 00 fc 00 03 00 7c 00 03 00 1c 00 03     .........|......
    ca86:	00 0c 00 03 00 00 00 03 00 00 00 00 00 00 00 00     ................
    ca96:	00 00 00 00 00 c0 00 00 00 c0 00 00 00 c0 00 00     ................
    caa6:	00 c0 00 00 00 e0 01 00 f0 ff ff 0f fc 3f ff 3f     .............?.?
    cab6:	fc 1f fe 3f 0e 00 00 70 06 00 00 60 06 00 00 60     ...?...p...`...`
    cac6:	06 00 00 60 00 00 00 00 00 00 00 00 00 00 00 00     ...`............
	...
    cafa:	ff ff ff ff ff ff ff ff ff ff ff ff 00 00 00 00     ................
	...
    cb32:	06 00 00 60 06 00 00 60 06 00 00 60 0e 00 00 70     ...`...`...`...p
    cb42:	fc 1f fe 3f fc 3f ff 3f f0 ff ff 0f 00 e0 01 00     ...?.?.?........
    cb52:	00 c0 00 00 00 c0 00 00 00 c0 00 00 00 c0 00 00     ................
	...
    cb6e:	00 00 0e 00 00 80 0f 00 00 c0 0f 00 00 c0 01 00     ................
    cb7e:	00 c0 00 00 00 c0 00 00 00 80 01 00 00 00 03 00     ................
    cb8e:	00 00 06 00 00 00 0c 00 00 00 18 00 00 00 18 00     ................
    cb9e:	00 00 1c 00 00 80 1f 00 00 80 0f 00 00 80 03 00     ................
	...
    cbb6:	fc ff ff 07 fc ff ff 07 0c 00 00 06 0c 00 00 06     ................
    cbc6:	0c 00 00 06 0c 00 00 06 fc ff ff 07 fc ff ff 07     ................
	...

0000cbfa <Consolas14x24>:
    cbfa:	00 00 00 00 c0 03 00 f8 03 00 7f 00 e0 67 00 f0     .............g..
    cc0a:	60 00 38 60 00 f0 60 00 e0 67 00 00 7f 00 00 f8     `.8`..`..g......
    cc1a:	03 00 c0 03 00 00 00 00 00 00 00 00 00 00 00 00     ................
    cc2a:	f8 ff 03 f8 ff 03 18 06 03 18 06 03 18 06 03 18     ................
    cc3a:	06 03 38 07 03 f0 8d 01 e0 fc 01 00 70 00 00 00     ..8.........p...
    cc4a:	00 00 00 00 00 00 00 80 3f 00 c0 ff 00 e0 e0 01     ........?.......
    cc5a:	30 80 01 38 80 03 18 00 03 18 00 03 18 00 03 18     0..8............
    cc6a:	00 03 18 00 03 30 80 01 00 00 00 00 00 00 00 00     .....0..........
    cc7a:	00 f8 ff 03 f8 ff 03 18 00 03 18 00 03 18 00 03     ................
    cc8a:	18 00 03 18 80 03 30 80 01 70 e0 01 e0 ff 00 80     ......0..p......
    cc9a:	3f 00 00 00 00 00 00 00 00 00 00 00 00 00 f8 ff     ?...............
    ccaa:	03 f8 ff 03 18 06 03 18 06 03 18 06 03 18 06 03     ................
    ccba:	18 06 03 18 06 03 00 00 00 00 00 00 00 00 00 00     ................
	...
    ccd2:	f8 ff 03 f8 ff 03 18 06 00 18 06 00 18 06 00 18     ................
    cce2:	06 00 18 06 00 18 06 00 00 00 00 00 00 00 00 00     ................
	...
    ccfa:	3f 00 c0 ff 00 e0 e0 01 30 80 01 38 00 03 18 00     ?.......0..8....
    cd0a:	03 18 06 03 18 06 03 18 06 03 18 fe 03 30 fe 01     .............0..
	...
    cd22:	00 f8 ff 03 f8 ff 03 00 06 00 00 06 00 00 06 00     ................
    cd32:	00 06 00 00 06 00 00 06 00 f8 ff 03 f8 ff 03 00     ................
	...
    cd4e:	00 00 18 00 03 18 00 03 18 00 03 f8 ff 03 f8 ff     ................
    cd5e:	03 18 00 03 18 00 03 18 00 03 00 00 00 00 00 00     ................
	...
    cd7a:	18 80 01 18 00 03 18 00 03 18 00 03 18 00 03 18     ................
    cd8a:	80 03 f8 ff 01 f8 ff 00 00 00 00 00 00 00 00 00     ................
	...
    cda2:	00 00 f8 ff 03 f8 ff 03 00 04 00 00 1f 00 80 3b     ...............;
    cdb2:	00 e0 f0 00 70 c0 01 38 80 03 08 00 02 00 00 00     ....p..8........
	...
    cdce:	00 00 00 f8 ff 03 f8 ff 03 00 00 03 00 00 03 00     ................
    cdde:	00 03 00 00 03 00 00 03 00 00 03 00 00 00 00 00     ................
    cdee:	00 00 00 00 00 00 00 f8 ff 03 f8 ff 03 78 00 00     .............x..
    cdfe:	c0 03 00 00 0f 00 00 18 00 00 0f 00 c0 03 00 70     ...............p
    ce0e:	00 00 f8 ff 03 f8 ff 03 00 00 00 00 00 00 00 00     ................
    ce1e:	00 00 00 00 f8 ff 03 f8 ff 03 38 00 00 e0 01 00     ..........8.....
    ce2e:	80 07 00 00 3c 00 00 f0 00 00 80 03 f8 ff 03 f8     ....<...........
    ce3e:	ff 03 00 00 00 00 00 00 00 00 00 80 3f 00 e0 ff     ............?...
    ce4e:	00 70 c0 01 38 80 03 18 00 03 18 00 03 18 00 03     .p..8...........
    ce5e:	38 80 03 70 c0 01 e0 ff 00 80 3f 00 00 00 00 00     8..p......?.....
	...
    ce76:	f8 ff 03 f8 ff 03 18 18 00 18 18 00 18 18 00 18     ................
    ce86:	18 00 18 18 00 30 0c 00 f0 07 00 c0 03 00 00 00     .....0..........
    ce96:	00 00 00 00 00 00 00 80 3f 00 e0 ff 00 70 c0 01     ........?....p..
    cea6:	38 80 03 18 00 0f 18 00 1f 18 00 3b 38 80 33 70     8..........;8.3p
    ceb6:	c0 31 e0 ff 30 80 3f 18 00 00 18 00 00 00 00 00     .1..0.?.........
    cec6:	00 00 00 00 f8 ff 03 f8 ff 03 18 0c 00 18 0c 00     ................
    ced6:	18 0c 00 18 1c 00 38 76 00 f0 e7 01 e0 81 03 00     ......8v........
    cee6:	00 02 00 00 00 00 00 00 00 00 00 e0 81 01 f0 03     ................
    cef6:	03 30 03 03 18 06 03 18 06 03 18 0c 03 18 0c 03     .0..............
    cf06:	18 9c 01 30 f8 01 00 f0 00 00 00 00 00 00 00 00     ...0............
    cf16:	00 00 00 00 00 18 00 00 18 00 00 18 00 00 18 00     ................
    cf26:	00 f8 ff 03 f8 ff 03 18 00 00 18 00 00 18 00 00     ................
    cf36:	18 00 00 00 00 00 00 00 00 00 00 00 00 00 00 f8     ................
    cf46:	ff 00 f8 ff 01 00 80 03 00 00 03 00 00 03 00 00     ................
    cf56:	03 00 00 03 00 80 01 f8 ff 01 f8 7f 00 00 00 00     ................
	...
    cf6e:	00 38 00 00 f8 03 00 c0 1f 00 00 fe 00 00 e0 03     .8..............
    cf7e:	00 80 03 00 e0 03 00 fe 00 c0 0f 00 f8 01 00 38     ...............8
	...
    cf96:	00 00 00 f8 3f 00 f8 ff 03 00 e0 03 00 f8 03 00     ....?...........
    cfa6:	7e 00 00 0f 00 00 7e 00 00 f8 03 00 c0 03 f8 ff     ~.....~.........
    cfb6:	03 f8 3f 00 00 00 00 00 00 00 00 00 02 08 00 03     ..?.............
    cfc6:	18 c0 03 78 e0 00 e0 79 00 c0 1f 00 00 0f 00 c0     ...x...y........
    cfd6:	1f 00 e0 79 00 78 e0 00 18 c0 03 08 00 03 00 00     ...y.x..........
    cfe6:	02 00 00 00 00 00 00 08 00 00 38 00 00 f0 00 00     ..........8.....
    cff6:	c0 03 00 00 0f 00 00 fc 03 00 fc 03 00 0f 00 c0     ................
    d006:	03 00 f0 00 00 38 00 00 08 00 00 00 00 00 00 00     .....8..........
    d016:	00 18 00 03 18 80 03 18 e0 03 18 38 03 18 1c 03     ...........8....
    d026:	18 07 03 98 03 03 f8 00 03 78 00 03 18 00 03 00     .........x......
    d036:	00 03 00 00 00 00 00 00                             ........

0000d03e <__ctors_end>:
    d03e:	11 24       	eor	r1, r1
    d040:	1f be       	out	0x3f, r1	; 63
    d042:	cf ef       	ldi	r28, 0xFF	; 255
    d044:	d1 e2       	ldi	r29, 0x21	; 33
    d046:	de bf       	out	0x3e, r29	; 62
    d048:	cd bf       	out	0x3d, r28	; 61
    d04a:	00 e0       	ldi	r16, 0x00	; 0
    d04c:	0c bf       	out	0x3c, r16	; 60

0000d04e <__do_copy_data>:
    d04e:	13 e0       	ldi	r17, 0x03	; 3
    d050:	a0 e0       	ldi	r26, 0x00	; 0
    d052:	b2 e0       	ldi	r27, 0x02	; 2
    d054:	e0 e0       	ldi	r30, 0x00	; 0
    d056:	f4 e4       	ldi	r31, 0x44	; 68
    d058:	01 e0       	ldi	r16, 0x01	; 1
    d05a:	0b bf       	out	0x3b, r16	; 59
    d05c:	02 c0       	rjmp	.+4      	; 0xd062 <__do_copy_data+0x14>
    d05e:	07 90       	elpm	r0, Z+
    d060:	0d 92       	st	X+, r0
    d062:	ae 3d       	cpi	r26, 0xDE	; 222
    d064:	b1 07       	cpc	r27, r17
    d066:	d9 f7       	brne	.-10     	; 0xd05e <__do_copy_data+0x10>

0000d068 <__do_clear_bss>:
    d068:	24 e0       	ldi	r18, 0x04	; 4
    d06a:	ae ed       	ldi	r26, 0xDE	; 222
    d06c:	b3 e0       	ldi	r27, 0x03	; 3
    d06e:	01 c0       	rjmp	.+2      	; 0xd072 <.do_clear_bss_start>

0000d070 <.do_clear_bss_loop>:
    d070:	1d 92       	st	X+, r1

0000d072 <.do_clear_bss_start>:
    d072:	ad 3a       	cpi	r26, 0xAD	; 173
    d074:	b2 07       	cpc	r27, r18
    d076:	e1 f7       	brne	.-8      	; 0xd070 <.do_clear_bss_loop>
    d078:	0e 94 9f 79 	call	0xf33e	; 0xf33e <main>
    d07c:	0c 94 fe a1 	jmp	0x143fc	; 0x143fc <_exit>

0000d080 <__bad_interrupt>:
    d080:	0c 94 00 00 	jmp	0	; 0x0 <__vectors>

0000d084 <dt_testdevice>:
  return tt;
}
//    
char dt_testdevice(void) //dt  digital termomether | ,     
{
  char stektemp=SREG;//   
    d084:	9f b7       	in	r25, 0x3f	; 63
  cli(); // 
    d086:	f8 94       	cli
  char dt;
  DDRTEMP |= 1<<BITTEMP; // 
    d088:	e7 e0       	ldi	r30, 0x07	; 7
    d08a:	f1 e0       	ldi	r31, 0x01	; 1
    d08c:	80 81       	ld	r24, Z
    d08e:	81 60       	ori	r24, 0x01	; 1
    d090:	80 83       	st	Z, r24
	#else
		//round up by default
		__ticks_dc = (uint32_t)(ceil(fabs(__tmp)));
	#endif

	__builtin_avr_delay_cycles(__ticks_dc);
    d092:	a3 e9       	ldi	r26, 0x93	; 147
    d094:	b7 e0       	ldi	r27, 0x07	; 7
    d096:	11 97       	sbiw	r26, 0x01	; 1
    d098:	f1 f7       	brne	.-4      	; 0xd096 <dt_testdevice+0x12>
    d09a:	00 c0       	rjmp	.+0      	; 0xd09c <dt_testdevice+0x18>
    d09c:	00 00       	nop
  _delay_us(485); //    480 
  DDRTEMP &= ~(1<<BITTEMP); // 
    d09e:	80 81       	ld	r24, Z
    d0a0:	8e 7f       	andi	r24, 0xFE	; 254
    d0a2:	80 83       	st	Z, r24
    d0a4:	e3 e0       	ldi	r30, 0x03	; 3
    d0a6:	f1 e0       	ldi	r31, 0x01	; 1
    d0a8:	31 97       	sbiw	r30, 0x01	; 1
    d0aa:	f1 f7       	brne	.-4      	; 0xd0a8 <dt_testdevice+0x24>
    d0ac:	00 c0       	rjmp	.+0      	; 0xd0ae <dt_testdevice+0x2a>
    d0ae:	00 00       	nop
  _delay_us(65); //    60 
  if ((PINTEMP & (1<<BITTEMP))==0)//,   
    d0b0:	80 91 06 01 	lds	r24, 0x0106	; 0x800106 <__TEXT_REGION_LENGTH__+0x7c0106>
    d0b4:	80 fd       	sbrc	r24, 0
    d0b6:	02 c0       	rjmp	.+4      	; 0xd0bc <dt_testdevice+0x38>
  {
	  dt=1;// 
    d0b8:	81 e0       	ldi	r24, 0x01	; 1
    d0ba:	01 c0       	rjmp	.+2      	; 0xd0be <dt_testdevice+0x3a>
  }
  else dt=0;// 
    d0bc:	80 e0       	ldi	r24, 0x00	; 0
  SREG = stektemp;//   
    d0be:	9f bf       	out	0x3f, r25	; 63
    d0c0:	af e8       	ldi	r26, 0x8F	; 143
    d0c2:	b6 e0       	ldi	r27, 0x06	; 6
    d0c4:	11 97       	sbiw	r26, 0x01	; 1
    d0c6:	f1 f7       	brne	.-4      	; 0xd0c4 <dt_testdevice+0x40>
    d0c8:	00 c0       	rjmp	.+0      	; 0xd0ca <dt_testdevice+0x46>
    d0ca:	00 00       	nop
  _delay_us(420); //    480 ,    420,       
  return dt; // 
}
    d0cc:	08 95       	ret

0000d0ce <dt_readbit>:
	return c;
}
//    
char dt_readbit(void)
{
  char stektemp=SREG;//   
    d0ce:	9f b7       	in	r25, 0x3f	; 63
  cli(); // 
    d0d0:	f8 94       	cli
  char bt; //  
  DDRTEMP |= 1<<BITTEMP; // 
    d0d2:	e7 e0       	ldi	r30, 0x07	; 7
    d0d4:	f1 e0       	ldi	r31, 0x01	; 1
    d0d6:	80 81       	ld	r24, Z
    d0d8:	81 60       	ori	r24, 0x01	; 1
    d0da:	80 83       	st	Z, r24
    d0dc:	2a e0       	ldi	r18, 0x0A	; 10
    d0de:	2a 95       	dec	r18
    d0e0:	f1 f7       	brne	.-4      	; 0xd0de <dt_readbit+0x10>
    d0e2:	00 c0       	rjmp	.+0      	; 0xd0e4 <dt_readbit+0x16>
  _delay_us(2); //    2 
  DDRTEMP &= ~(1<<BITTEMP); // 
    d0e4:	80 81       	ld	r24, Z
    d0e6:	8e 7f       	andi	r24, 0xFE	; 254
    d0e8:	80 83       	st	Z, r24
    d0ea:	85 e4       	ldi	r24, 0x45	; 69
    d0ec:	8a 95       	dec	r24
    d0ee:	f1 f7       	brne	.-4      	; 0xd0ec <dt_readbit+0x1e>
    d0f0:	00 00       	nop
  _delay_us(13);
  bt = (PINTEMP & (1<<BITTEMP))>>BITTEMP; // 
    d0f2:	80 91 06 01 	lds	r24, 0x0106	; 0x800106 <__TEXT_REGION_LENGTH__+0x7c0106>
    d0f6:	81 70       	andi	r24, 0x01	; 1
    d0f8:	20 ef       	ldi	r18, 0xF0	; 240
    d0fa:	2a 95       	dec	r18
    d0fc:	f1 f7       	brne	.-4      	; 0xd0fa <dt_readbit+0x2c>
  _delay_us(45);
  SREG = stektemp;//   
    d0fe:	9f bf       	out	0x3f, r25	; 63
  return bt; // 
}
    d100:	08 95       	ret

0000d102 <dt_readbyte>:
  _delay_us(420); //    480 ,    420,       
  return dt; // 
}
//    
unsigned char dt_readbyte(void)
{
    d102:	cf 93       	push	r28
    d104:	df 93       	push	r29
	char c=0;
	char i;
	for(i=0;i<8;i++)
    d106:	c0 e0       	ldi	r28, 0x00	; 0
  return dt; // 
}
//    
unsigned char dt_readbyte(void)
{
	char c=0;
    d108:	d0 e0       	ldi	r29, 0x00	; 0
	char i;
	for(i=0;i<8;i++)
    d10a:	0a c0       	rjmp	.+20     	; 0xd120 <dt_readbyte+0x1e>
	{
	  c|=dt_readbit()<<i; // 
    d10c:	e0 df       	rcall	.-64     	; 0xd0ce <dt_readbit>
    d10e:	90 e0       	ldi	r25, 0x00	; 0
    d110:	0c 2e       	mov	r0, r28
    d112:	02 c0       	rjmp	.+4      	; 0xd118 <dt_readbyte+0x16>
    d114:	88 0f       	add	r24, r24
    d116:	99 1f       	adc	r25, r25
    d118:	0a 94       	dec	r0
    d11a:	e2 f7       	brpl	.-8      	; 0xd114 <dt_readbyte+0x12>
    d11c:	d8 2b       	or	r29, r24
//    
unsigned char dt_readbyte(void)
{
	char c=0;
	char i;
	for(i=0;i<8;i++)
    d11e:	cf 5f       	subi	r28, 0xFF	; 255
    d120:	c8 30       	cpi	r28, 0x08	; 8
    d122:	a0 f3       	brcs	.-24     	; 0xd10c <dt_readbyte+0xa>
	{
	  c|=dt_readbit()<<i; // 
	}
	return c;
}
    d124:	8d 2f       	mov	r24, r29
    d126:	df 91       	pop	r29
    d128:	cf 91       	pop	r28
    d12a:	08 95       	ret

0000d12c <dt_sendbit>:
	}
}
//    
void dt_sendbit(char bt)
{
	char stektemp=SREG;//   
    d12c:	2f b7       	in	r18, 0x3f	; 63
	cli(); // 
    d12e:	f8 94       	cli
	DDRTEMP |= 1<<BITTEMP; // 
    d130:	e7 e0       	ldi	r30, 0x07	; 7
    d132:	f1 e0       	ldi	r31, 0x01	; 1
    d134:	90 81       	ld	r25, Z
    d136:	91 60       	ori	r25, 0x01	; 1
    d138:	90 83       	st	Z, r25
    d13a:	9a e0       	ldi	r25, 0x0A	; 10
    d13c:	9a 95       	dec	r25
    d13e:	f1 f7       	brne	.-4      	; 0xd13c <dt_sendbit+0x10>
    d140:	00 c0       	rjmp	.+0      	; 0xd142 <dt_sendbit+0x16>
	_delay_us(2); //    2 
	if(bt)
    d142:	88 23       	and	r24, r24
    d144:	19 f0       	breq	.+6      	; 0xd14c <dt_sendbit+0x20>
    {
	  DDRTEMP &= ~(1<<BITTEMP); // 
    d146:	80 81       	ld	r24, Z
    d148:	8e 7f       	andi	r24, 0xFE	; 254
    d14a:	80 83       	st	Z, r24
    d14c:	83 e0       	ldi	r24, 0x03	; 3
    d14e:	91 e0       	ldi	r25, 0x01	; 1
    d150:	01 97       	sbiw	r24, 0x01	; 1
    d152:	f1 f7       	brne	.-4      	; 0xd150 <dt_sendbit+0x24>
    d154:	00 c0       	rjmp	.+0      	; 0xd156 <dt_sendbit+0x2a>
    d156:	00 00       	nop
	}
	_delay_us(65); //    60 
	DDRTEMP &= ~(1<<BITTEMP); // 
    d158:	e7 e0       	ldi	r30, 0x07	; 7
    d15a:	f1 e0       	ldi	r31, 0x01	; 1
    d15c:	80 81       	ld	r24, Z
    d15e:	8e 7f       	andi	r24, 0xFE	; 254
    d160:	80 83       	st	Z, r24
	SREG = stektemp;//   
    d162:	2f bf       	out	0x3f, r18	; 63
    d164:	08 95       	ret

0000d166 <dt_sendbyte>:
  SREG = stektemp;//   
  return bt; // 
}
//    
void dt_sendbyte(unsigned char bt)
{
    d166:	cf 93       	push	r28
    d168:	df 93       	push	r29
    d16a:	d8 2f       	mov	r29, r24
	char i;
	for(i=0;i<8;i++)//     
    d16c:	c0 e0       	ldi	r28, 0x00	; 0
    d16e:	15 c0       	rjmp	.+42     	; 0xd19a <dt_sendbyte+0x34>
	{
		if((bt & (1<<i)) == 1<<i)// 1
    d170:	81 e0       	ldi	r24, 0x01	; 1
    d172:	90 e0       	ldi	r25, 0x00	; 0
    d174:	0c 2e       	mov	r0, r28
    d176:	02 c0       	rjmp	.+4      	; 0xd17c <dt_sendbyte+0x16>
    d178:	88 0f       	add	r24, r24
    d17a:	99 1f       	adc	r25, r25
    d17c:	0a 94       	dec	r0
    d17e:	e2 f7       	brpl	.-8      	; 0xd178 <dt_sendbyte+0x12>
    d180:	2d 2f       	mov	r18, r29
    d182:	30 e0       	ldi	r19, 0x00	; 0
    d184:	28 23       	and	r18, r24
    d186:	39 23       	and	r19, r25
    d188:	82 17       	cp	r24, r18
    d18a:	93 07       	cpc	r25, r19
    d18c:	19 f4       	brne	.+6      	; 0xd194 <dt_sendbyte+0x2e>
		dt_sendbit(1);
    d18e:	81 e0       	ldi	r24, 0x01	; 1
    d190:	cd df       	rcall	.-102    	; 0xd12c <dt_sendbit>
    d192:	02 c0       	rjmp	.+4      	; 0xd198 <dt_sendbyte+0x32>
		else // 0
		dt_sendbit(0);
    d194:	80 e0       	ldi	r24, 0x00	; 0
    d196:	ca df       	rcall	.-108    	; 0xd12c <dt_sendbit>
}
//    
void dt_sendbyte(unsigned char bt)
{
	char i;
	for(i=0;i<8;i++)//     
    d198:	cf 5f       	subi	r28, 0xFF	; 255
    d19a:	c8 30       	cpi	r28, 0x08	; 8
    d19c:	48 f3       	brcs	.-46     	; 0xd170 <dt_sendbyte+0xa>
		if((bt & (1<<i)) == 1<<i)// 1
		dt_sendbit(1);
		else // 0
		dt_sendbit(0);
	}
}
    d19e:	df 91       	pop	r29
    d1a0:	cf 91       	pop	r28
    d1a2:	08 95       	ret

0000d1a4 <dt_check>:

#include "DS18B20.h"

//     
int dt_check(void)
{
    d1a4:	cf 93       	push	r28
  unsigned char bt;//   
  unsigned int tt=0;
  if(dt_testdevice()==1) //  
    d1a6:	6e df       	rcall	.-292    	; 0xd084 <dt_testdevice>
    d1a8:	81 30       	cpi	r24, 0x01	; 1
    d1aa:	d1 f4       	brne	.+52     	; 0xd1e0 <dt_check+0x3c>
  {
   dt_sendbyte(NOID); // ,        
    d1ac:	8c ec       	ldi	r24, 0xCC	; 204
    d1ae:	db df       	rcall	.-74     	; 0xd166 <dt_sendbyte>
   dt_sendbyte(T_CONVERT); // 
    d1b0:	84 e4       	ldi	r24, 0x44	; 68
    d1b2:	d9 df       	rcall	.-78     	; 0xd166 <dt_sendbyte>
    d1b4:	2f ef       	ldi	r18, 0xFF	; 255
	#else
		//round up by default
		__ticks_dc = (uint32_t)(ceil(fabs(__tmp)));
	#endif

	__builtin_avr_delay_cycles(__ticks_dc);
    d1b6:	8e e9       	ldi	r24, 0x9E	; 158
    d1b8:	94 e2       	ldi	r25, 0x24	; 36
    d1ba:	21 50       	subi	r18, 0x01	; 1
    d1bc:	80 40       	sbci	r24, 0x00	; 0
    d1be:	90 40       	sbci	r25, 0x00	; 0
    d1c0:	e1 f7       	brne	.-8      	; 0xd1ba <dt_check+0x16>
    d1c2:	00 c0       	rjmp	.+0      	; 0xd1c4 <dt_check+0x20>
    d1c4:	00 00       	nop
   _delay_ms(750); // 12     100 
   dt_testdevice(); //            
    d1c6:	5e df       	rcall	.-324    	; 0xd084 <dt_testdevice>
   dt_sendbyte(NOID); // ,        
    d1c8:	8c ec       	ldi	r24, 0xCC	; 204
    d1ca:	cd df       	rcall	.-102    	; 0xd166 <dt_sendbyte>
   dt_sendbyte(READ_DATA); //      
    d1cc:	8e eb       	ldi	r24, 0xBE	; 190
    d1ce:	cb df       	rcall	.-106    	; 0xd166 <dt_sendbyte>
    d1d0:	98 df       	rcall	.-208    	; 0xd102 <dt_readbyte>
   bt = dt_readbyte(); //  
    d1d2:	c8 2f       	mov	r28, r24
    d1d4:	96 df       	rcall	.-212    	; 0xd102 <dt_readbyte>
    d1d6:	90 e0       	ldi	r25, 0x00	; 0
   tt = dt_readbyte(); //   MS
    d1d8:	98 2f       	mov	r25, r24
    d1da:	88 27       	eor	r24, r24
    d1dc:	8c 2b       	or	r24, r28
   tt = (tt<<8)|bt;//  ,     ,     
    d1de:	02 c0       	rjmp	.+4      	; 0xd1e4 <dt_check+0x40>
    d1e0:	80 e0       	ldi	r24, 0x00	; 0
    d1e2:	90 e0       	ldi	r25, 0x00	; 0
    d1e4:	cf 91       	pop	r28

//     
int dt_check(void)
{
  unsigned char bt;//   
  unsigned int tt=0;
    d1e6:	08 95       	ret

0000d1e8 <ILI9486_Write8>:
    d1e8:	88 b9       	out	0x08, r24	; 8
   bt = dt_readbyte(); //  
   tt = dt_readbyte(); //   MS
   tt = (tt<<8)|bt;//  ,     ,     
  }
  return tt;
}
    d1ea:	e2 e0       	ldi	r30, 0x02	; 2
    d1ec:	f1 e0       	ldi	r31, 0x01	; 1
	cursor_x = y;
	cursor_y = x;
}
void ILI9486_SetTextSize(uint8_t s)
{
	textsize = s ;
    d1ee:	80 81       	ld	r24, Z
    d1f0:	87 7f       	andi	r24, 0xF7	; 247
    d1f2:	80 83       	st	Z, r24
    d1f4:	80 81       	ld	r24, Z
    d1f6:	88 60       	ori	r24, 0x08	; 8
    d1f8:	80 83       	st	Z, r24
    d1fa:	08 95       	ret

0000d1fc <ILI9486_Write16>:
    d1fc:	cf 93       	push	r28
    d1fe:	c8 2f       	mov	r28, r24
    d200:	89 2f       	mov	r24, r25
    d202:	f2 df       	rcall	.-28     	; 0xd1e8 <ILI9486_Write8>
    d204:	8c 2f       	mov	r24, r28
    d206:	f0 df       	rcall	.-32     	; 0xd1e8 <ILI9486_Write8>
    d208:	cf 91       	pop	r28
    d20a:	08 95       	ret

0000d20c <ILI9486_SendCommand>:
    d20c:	cf 93       	push	r28
    d20e:	df 93       	push	r29
    d210:	c2 e0       	ldi	r28, 0x02	; 2
    d212:	d1 e0       	ldi	r29, 0x01	; 1
    d214:	28 81       	ld	r18, Y
    d216:	2f 7e       	andi	r18, 0xEF	; 239
    d218:	28 83       	st	Y, r18
    d21a:	f0 df       	rcall	.-32     	; 0xd1fc <ILI9486_Write16>
    d21c:	88 81       	ld	r24, Y
    d21e:	80 61       	ori	r24, 0x10	; 16
    d220:	88 83       	st	Y, r24
    d222:	df 91       	pop	r29
    d224:	cf 91       	pop	r28
    d226:	08 95       	ret

0000d228 <ILI9486_SendData>:
    d228:	e2 e0       	ldi	r30, 0x02	; 2
    d22a:	f1 e0       	ldi	r31, 0x01	; 1
    d22c:	20 81       	ld	r18, Z
    d22e:	20 61       	ori	r18, 0x10	; 16
    d230:	20 83       	st	Z, r18
    d232:	e4 cf       	rjmp	.-56     	; 0xd1fc <ILI9486_Write16>
    d234:	08 95       	ret

0000d236 <ILI9486_Write_Cmd_Data>:
    d236:	0f 93       	push	r16
    d238:	1f 93       	push	r17
    d23a:	cf 93       	push	r28
    d23c:	df 93       	push	r29
    d23e:	8b 01       	movw	r16, r22
    d240:	c2 e0       	ldi	r28, 0x02	; 2
    d242:	d1 e0       	ldi	r29, 0x01	; 1
    d244:	28 81       	ld	r18, Y
    d246:	2f 7d       	andi	r18, 0xDF	; 223
    d248:	28 83       	st	Y, r18
    d24a:	e0 df       	rcall	.-64     	; 0xd20c <ILI9486_SendCommand>
    d24c:	c8 01       	movw	r24, r16
    d24e:	ec df       	rcall	.-40     	; 0xd228 <ILI9486_SendData>
    d250:	88 81       	ld	r24, Y
    d252:	80 62       	ori	r24, 0x20	; 32
    d254:	88 83       	st	Y, r24
    d256:	df 91       	pop	r29
    d258:	cf 91       	pop	r28
    d25a:	1f 91       	pop	r17
    d25c:	0f 91       	pop	r16
    d25e:	08 95       	ret

0000d260 <ILI9486_reset>:
    d260:	8f ef       	ldi	r24, 0xFF	; 255
    d262:	87 b9       	out	0x07, r24	; 7
    d264:	e2 e0       	ldi	r30, 0x02	; 2
    d266:	f1 e0       	ldi	r31, 0x01	; 1
    d268:	80 81       	ld	r24, Z
    d26a:	80 62       	ori	r24, 0x20	; 32
    d26c:	80 83       	st	Z, r24
    d26e:	80 81       	ld	r24, Z
    d270:	84 60       	ori	r24, 0x04	; 4
    d272:	80 83       	st	Z, r24
    d274:	80 81       	ld	r24, Z
    d276:	88 60       	ori	r24, 0x08	; 8
    d278:	80 83       	st	Z, r24
    d27a:	80 81       	ld	r24, Z
    d27c:	80 64       	ori	r24, 0x40	; 64
    d27e:	80 83       	st	Z, r24
    d280:	2f ef       	ldi	r18, 0xFF	; 255
    d282:	80 e7       	ldi	r24, 0x70	; 112
    d284:	92 e0       	ldi	r25, 0x02	; 2
    d286:	21 50       	subi	r18, 0x01	; 1
    d288:	80 40       	sbci	r24, 0x00	; 0
    d28a:	90 40       	sbci	r25, 0x00	; 0
    d28c:	e1 f7       	brne	.-8      	; 0xd286 <ILI9486_reset+0x26>
    d28e:	00 c0       	rjmp	.+0      	; 0xd290 <ILI9486_reset+0x30>
    d290:	00 00       	nop
    d292:	80 81       	ld	r24, Z
    d294:	8f 7b       	andi	r24, 0xBF	; 191
    d296:	80 83       	st	Z, r24
    d298:	2f ef       	ldi	r18, 0xFF	; 255
    d29a:	81 ee       	ldi	r24, 0xE1	; 225
    d29c:	94 e0       	ldi	r25, 0x04	; 4
    d29e:	21 50       	subi	r18, 0x01	; 1
    d2a0:	80 40       	sbci	r24, 0x00	; 0
    d2a2:	90 40       	sbci	r25, 0x00	; 0
    d2a4:	e1 f7       	brne	.-8      	; 0xd29e <ILI9486_reset+0x3e>
    d2a6:	00 c0       	rjmp	.+0      	; 0xd2a8 <ILI9486_reset+0x48>
    d2a8:	00 00       	nop
    d2aa:	80 81       	ld	r24, Z
    d2ac:	80 64       	ori	r24, 0x40	; 64
    d2ae:	80 83       	st	Z, r24
    d2b0:	2f ef       	ldi	r18, 0xFF	; 255
    d2b2:	81 ee       	ldi	r24, 0xE1	; 225
    d2b4:	94 e0       	ldi	r25, 0x04	; 4
    d2b6:	21 50       	subi	r18, 0x01	; 1
    d2b8:	80 40       	sbci	r24, 0x00	; 0
    d2ba:	90 40       	sbci	r25, 0x00	; 0
    d2bc:	e1 f7       	brne	.-8      	; 0xd2b6 <ILI9486_reset+0x56>
    d2be:	00 c0       	rjmp	.+0      	; 0xd2c0 <ILI9486_reset+0x60>
    d2c0:	00 00       	nop
    d2c2:	60 e0       	ldi	r22, 0x00	; 0
    d2c4:	70 e0       	ldi	r23, 0x00	; 0
    d2c6:	80 eb       	ldi	r24, 0xB0	; 176
    d2c8:	90 e0       	ldi	r25, 0x00	; 0
    d2ca:	b5 cf       	rjmp	.-150    	; 0xd236 <ILI9486_Write_Cmd_Data>
    d2cc:	08 95       	ret

0000d2ce <ILI9486_SetRotation>:
    d2ce:	cf 93       	push	r28
    d2d0:	c8 2f       	mov	r28, r24
    d2d2:	e2 e0       	ldi	r30, 0x02	; 2
    d2d4:	f1 e0       	ldi	r31, 0x01	; 1
    d2d6:	80 81       	ld	r24, Z
    d2d8:	8f 7d       	andi	r24, 0xDF	; 223
    d2da:	80 83       	st	Z, r24
    d2dc:	86 e3       	ldi	r24, 0x36	; 54
    d2de:	90 e0       	ldi	r25, 0x00	; 0
    d2e0:	95 df       	rcall	.-214    	; 0xd20c <ILI9486_SendCommand>
    d2e2:	c1 30       	cpi	r28, 0x01	; 1
    d2e4:	a9 f0       	breq	.+42     	; 0xd310 <ILI9486_SetRotation+0x42>
    d2e6:	28 f0       	brcs	.+10     	; 0xd2f2 <ILI9486_SetRotation+0x24>
    d2e8:	c2 30       	cpi	r28, 0x02	; 2
    d2ea:	09 f1       	breq	.+66     	; 0xd32e <ILI9486_SetRotation+0x60>
    d2ec:	c3 30       	cpi	r28, 0x03	; 3
    d2ee:	71 f1       	breq	.+92     	; 0xd34c <ILI9486_SetRotation+0x7e>
    d2f0:	3b c0       	rjmp	.+118    	; 0xd368 <ILI9486_SetRotation+0x9a>
    d2f2:	88 e4       	ldi	r24, 0x48	; 72
    d2f4:	79 df       	rcall	.-270    	; 0xd1e8 <ILI9486_Write8>
    d2f6:	80 e4       	ldi	r24, 0x40	; 64
    d2f8:	91 e0       	ldi	r25, 0x01	; 1
    d2fa:	90 93 e1 03 	sts	0x03E1, r25	; 0x8003e1 <X_SIZE+0x1>
    d2fe:	80 93 e0 03 	sts	0x03E0, r24	; 0x8003e0 <X_SIZE>
    d302:	80 ee       	ldi	r24, 0xE0	; 224
    d304:	91 e0       	ldi	r25, 0x01	; 1
    d306:	90 93 df 03 	sts	0x03DF, r25	; 0x8003df <__data_end+0x1>
    d30a:	80 93 de 03 	sts	0x03DE, r24	; 0x8003de <__data_end>
    d30e:	2c c0       	rjmp	.+88     	; 0xd368 <ILI9486_SetRotation+0x9a>
    d310:	88 e2       	ldi	r24, 0x28	; 40
    d312:	6a df       	rcall	.-300    	; 0xd1e8 <ILI9486_Write8>
    d314:	80 ee       	ldi	r24, 0xE0	; 224
    d316:	91 e0       	ldi	r25, 0x01	; 1
    d318:	90 93 e1 03 	sts	0x03E1, r25	; 0x8003e1 <X_SIZE+0x1>
    d31c:	80 93 e0 03 	sts	0x03E0, r24	; 0x8003e0 <X_SIZE>
    d320:	80 e4       	ldi	r24, 0x40	; 64
    d322:	91 e0       	ldi	r25, 0x01	; 1
    d324:	90 93 df 03 	sts	0x03DF, r25	; 0x8003df <__data_end+0x1>
    d328:	80 93 de 03 	sts	0x03DE, r24	; 0x8003de <__data_end>
    d32c:	1d c0       	rjmp	.+58     	; 0xd368 <ILI9486_SetRotation+0x9a>
    d32e:	88 e9       	ldi	r24, 0x98	; 152
    d330:	5b df       	rcall	.-330    	; 0xd1e8 <ILI9486_Write8>
    d332:	80 e4       	ldi	r24, 0x40	; 64
    d334:	91 e0       	ldi	r25, 0x01	; 1
    d336:	90 93 e1 03 	sts	0x03E1, r25	; 0x8003e1 <X_SIZE+0x1>
    d33a:	80 93 e0 03 	sts	0x03E0, r24	; 0x8003e0 <X_SIZE>
    d33e:	80 ee       	ldi	r24, 0xE0	; 224
    d340:	91 e0       	ldi	r25, 0x01	; 1
    d342:	90 93 df 03 	sts	0x03DF, r25	; 0x8003df <__data_end+0x1>
    d346:	80 93 de 03 	sts	0x03DE, r24	; 0x8003de <__data_end>
    d34a:	0e c0       	rjmp	.+28     	; 0xd368 <ILI9486_SetRotation+0x9a>
    d34c:	88 ef       	ldi	r24, 0xF8	; 248
    d34e:	4c df       	rcall	.-360    	; 0xd1e8 <ILI9486_Write8>
    d350:	80 ee       	ldi	r24, 0xE0	; 224
    d352:	91 e0       	ldi	r25, 0x01	; 1
    d354:	90 93 e1 03 	sts	0x03E1, r25	; 0x8003e1 <X_SIZE+0x1>
    d358:	80 93 e0 03 	sts	0x03E0, r24	; 0x8003e0 <X_SIZE>
    d35c:	80 e4       	ldi	r24, 0x40	; 64
    d35e:	91 e0       	ldi	r25, 0x01	; 1
    d360:	90 93 df 03 	sts	0x03DF, r25	; 0x8003df <__data_end+0x1>
    d364:	80 93 de 03 	sts	0x03DE, r24	; 0x8003de <__data_end>
    d368:	e2 e0       	ldi	r30, 0x02	; 2
    d36a:	f1 e0       	ldi	r31, 0x01	; 1
    d36c:	80 81       	ld	r24, Z
    d36e:	80 62       	ori	r24, 0x20	; 32
    d370:	80 83       	st	Z, r24
    d372:	cf 91       	pop	r28
    d374:	08 95       	ret

0000d376 <ILI9486_ini>:
    d376:	cf 93       	push	r28
    d378:	df 93       	push	r29
    d37a:	72 df       	rcall	.-284    	; 0xd260 <ILI9486_reset>
    d37c:	2f ef       	ldi	r18, 0xFF	; 255
    d37e:	85 ea       	ldi	r24, 0xA5	; 165
    d380:	9e e0       	ldi	r25, 0x0E	; 14
    d382:	21 50       	subi	r18, 0x01	; 1
    d384:	80 40       	sbci	r24, 0x00	; 0
    d386:	90 40       	sbci	r25, 0x00	; 0
    d388:	e1 f7       	brne	.-8      	; 0xd382 <ILI9486_ini+0xc>
    d38a:	00 c0       	rjmp	.+0      	; 0xd38c <ILI9486_ini+0x16>
    d38c:	00 00       	nop
    d38e:	a8 95       	wdr
    d390:	c2 e0       	ldi	r28, 0x02	; 2
    d392:	d1 e0       	ldi	r29, 0x01	; 1
    d394:	88 81       	ld	r24, Y
    d396:	8f 7d       	andi	r24, 0xDF	; 223
    d398:	88 83       	st	Y, r24
    d39a:	88 81       	ld	r24, Y
    d39c:	8f 7e       	andi	r24, 0xEF	; 239
    d39e:	88 83       	st	Y, r24
    d3a0:	81 e0       	ldi	r24, 0x01	; 1
    d3a2:	22 df       	rcall	.-444    	; 0xd1e8 <ILI9486_Write8>
    d3a4:	88 81       	ld	r24, Y
    d3a6:	80 62       	ori	r24, 0x20	; 32
    d3a8:	88 83       	st	Y, r24
    d3aa:	2f ef       	ldi	r18, 0xFF	; 255
    d3ac:	82 e5       	ldi	r24, 0x52	; 82
    d3ae:	97 e0       	ldi	r25, 0x07	; 7
    d3b0:	21 50       	subi	r18, 0x01	; 1
    d3b2:	80 40       	sbci	r24, 0x00	; 0
    d3b4:	90 40       	sbci	r25, 0x00	; 0
    d3b6:	e1 f7       	brne	.-8      	; 0xd3b0 <ILI9486_ini+0x3a>
    d3b8:	00 c0       	rjmp	.+0      	; 0xd3ba <ILI9486_ini+0x44>
    d3ba:	00 00       	nop
    d3bc:	a8 95       	wdr
    d3be:	88 81       	ld	r24, Y
    d3c0:	8f 7d       	andi	r24, 0xDF	; 223
    d3c2:	88 83       	st	Y, r24
    d3c4:	88 81       	ld	r24, Y
    d3c6:	8f 7e       	andi	r24, 0xEF	; 239
    d3c8:	88 83       	st	Y, r24
    d3ca:	88 e2       	ldi	r24, 0x28	; 40
    d3cc:	0d df       	rcall	.-486    	; 0xd1e8 <ILI9486_Write8>
    d3ce:	88 81       	ld	r24, Y
    d3d0:	80 62       	ori	r24, 0x20	; 32
    d3d2:	88 83       	st	Y, r24
    d3d4:	88 81       	ld	r24, Y
    d3d6:	8f 7d       	andi	r24, 0xDF	; 223
    d3d8:	88 83       	st	Y, r24
    d3da:	88 81       	ld	r24, Y
    d3dc:	8f 7e       	andi	r24, 0xEF	; 239
    d3de:	88 83       	st	Y, r24
    d3e0:	8a e3       	ldi	r24, 0x3A	; 58
    d3e2:	02 df       	rcall	.-508    	; 0xd1e8 <ILI9486_Write8>
    d3e4:	88 81       	ld	r24, Y
    d3e6:	80 61       	ori	r24, 0x10	; 16
    d3e8:	88 83       	st	Y, r24
    d3ea:	85 e5       	ldi	r24, 0x55	; 85
    d3ec:	fd de       	rcall	.-518    	; 0xd1e8 <ILI9486_Write8>
    d3ee:	88 81       	ld	r24, Y
    d3f0:	80 62       	ori	r24, 0x20	; 32
    d3f2:	88 83       	st	Y, r24
    d3f4:	88 81       	ld	r24, Y
    d3f6:	8f 7d       	andi	r24, 0xDF	; 223
    d3f8:	88 83       	st	Y, r24
    d3fa:	88 81       	ld	r24, Y
    d3fc:	8f 7e       	andi	r24, 0xEF	; 239
    d3fe:	88 83       	st	Y, r24
    d400:	80 ec       	ldi	r24, 0xC0	; 192
    d402:	f2 de       	rcall	.-540    	; 0xd1e8 <ILI9486_Write8>
    d404:	88 81       	ld	r24, Y
    d406:	80 61       	ori	r24, 0x10	; 16
    d408:	88 83       	st	Y, r24
    d40a:	8d e0       	ldi	r24, 0x0D	; 13
    d40c:	ed de       	rcall	.-550    	; 0xd1e8 <ILI9486_Write8>
    d40e:	88 81       	ld	r24, Y
    d410:	80 61       	ori	r24, 0x10	; 16
    d412:	88 83       	st	Y, r24
    d414:	8d e0       	ldi	r24, 0x0D	; 13
    d416:	e8 de       	rcall	.-560    	; 0xd1e8 <ILI9486_Write8>
    d418:	88 81       	ld	r24, Y
    d41a:	80 62       	ori	r24, 0x20	; 32
    d41c:	88 83       	st	Y, r24
    d41e:	88 81       	ld	r24, Y
    d420:	8f 7d       	andi	r24, 0xDF	; 223
    d422:	88 83       	st	Y, r24
    d424:	88 81       	ld	r24, Y
    d426:	8f 7e       	andi	r24, 0xEF	; 239
    d428:	88 83       	st	Y, r24
    d42a:	81 ec       	ldi	r24, 0xC1	; 193
    d42c:	dd de       	rcall	.-582    	; 0xd1e8 <ILI9486_Write8>
    d42e:	88 81       	ld	r24, Y
    d430:	80 61       	ori	r24, 0x10	; 16
    d432:	88 83       	st	Y, r24
    d434:	83 e4       	ldi	r24, 0x43	; 67
    d436:	d8 de       	rcall	.-592    	; 0xd1e8 <ILI9486_Write8>
    d438:	88 81       	ld	r24, Y
    d43a:	80 61       	ori	r24, 0x10	; 16
    d43c:	88 83       	st	Y, r24
    d43e:	80 e0       	ldi	r24, 0x00	; 0
    d440:	d3 de       	rcall	.-602    	; 0xd1e8 <ILI9486_Write8>
    d442:	88 81       	ld	r24, Y
    d444:	80 62       	ori	r24, 0x20	; 32
    d446:	88 83       	st	Y, r24
    d448:	88 81       	ld	r24, Y
    d44a:	8f 7d       	andi	r24, 0xDF	; 223
    d44c:	88 83       	st	Y, r24
    d44e:	88 81       	ld	r24, Y
    d450:	8f 7e       	andi	r24, 0xEF	; 239
    d452:	88 83       	st	Y, r24
    d454:	82 ec       	ldi	r24, 0xC2	; 194
    d456:	c8 de       	rcall	.-624    	; 0xd1e8 <ILI9486_Write8>
    d458:	88 81       	ld	r24, Y
    d45a:	80 61       	ori	r24, 0x10	; 16
    d45c:	88 83       	st	Y, r24
    d45e:	80 e0       	ldi	r24, 0x00	; 0
    d460:	c3 de       	rcall	.-634    	; 0xd1e8 <ILI9486_Write8>
    d462:	88 81       	ld	r24, Y
    d464:	80 62       	ori	r24, 0x20	; 32
    d466:	88 83       	st	Y, r24
    d468:	88 81       	ld	r24, Y
    d46a:	8f 7d       	andi	r24, 0xDF	; 223
    d46c:	88 83       	st	Y, r24
    d46e:	88 81       	ld	r24, Y
    d470:	8f 7e       	andi	r24, 0xEF	; 239
    d472:	88 83       	st	Y, r24
    d474:	85 ec       	ldi	r24, 0xC5	; 197
    d476:	b8 de       	rcall	.-656    	; 0xd1e8 <ILI9486_Write8>
    d478:	88 81       	ld	r24, Y
    d47a:	80 61       	ori	r24, 0x10	; 16
    d47c:	88 83       	st	Y, r24
    d47e:	80 e0       	ldi	r24, 0x00	; 0
    d480:	b3 de       	rcall	.-666    	; 0xd1e8 <ILI9486_Write8>
    d482:	88 81       	ld	r24, Y
    d484:	80 61       	ori	r24, 0x10	; 16
    d486:	88 83       	st	Y, r24
    d488:	88 e4       	ldi	r24, 0x48	; 72
    d48a:	ae de       	rcall	.-676    	; 0xd1e8 <ILI9486_Write8>
    d48c:	88 81       	ld	r24, Y
    d48e:	80 61       	ori	r24, 0x10	; 16
    d490:	88 83       	st	Y, r24
    d492:	80 e0       	ldi	r24, 0x00	; 0
    d494:	a9 de       	rcall	.-686    	; 0xd1e8 <ILI9486_Write8>
    d496:	88 81       	ld	r24, Y
    d498:	80 61       	ori	r24, 0x10	; 16
    d49a:	88 83       	st	Y, r24
    d49c:	88 e4       	ldi	r24, 0x48	; 72
    d49e:	a4 de       	rcall	.-696    	; 0xd1e8 <ILI9486_Write8>
    d4a0:	88 81       	ld	r24, Y
    d4a2:	80 62       	ori	r24, 0x20	; 32
    d4a4:	88 83       	st	Y, r24
    d4a6:	88 81       	ld	r24, Y
    d4a8:	8f 7d       	andi	r24, 0xDF	; 223
    d4aa:	88 83       	st	Y, r24
    d4ac:	88 81       	ld	r24, Y
    d4ae:	8f 7e       	andi	r24, 0xEF	; 239
    d4b0:	88 83       	st	Y, r24
    d4b2:	84 eb       	ldi	r24, 0xB4	; 180
    d4b4:	99 de       	rcall	.-718    	; 0xd1e8 <ILI9486_Write8>
    d4b6:	88 81       	ld	r24, Y
    d4b8:	80 61       	ori	r24, 0x10	; 16
    d4ba:	88 83       	st	Y, r24
    d4bc:	80 e0       	ldi	r24, 0x00	; 0
    d4be:	94 de       	rcall	.-728    	; 0xd1e8 <ILI9486_Write8>
    d4c0:	88 81       	ld	r24, Y
    d4c2:	80 62       	ori	r24, 0x20	; 32
    d4c4:	88 83       	st	Y, r24
    d4c6:	88 81       	ld	r24, Y
    d4c8:	8f 7d       	andi	r24, 0xDF	; 223
    d4ca:	88 83       	st	Y, r24
    d4cc:	88 81       	ld	r24, Y
    d4ce:	8f 7e       	andi	r24, 0xEF	; 239
    d4d0:	88 83       	st	Y, r24
    d4d2:	86 eb       	ldi	r24, 0xB6	; 182
    d4d4:	89 de       	rcall	.-750    	; 0xd1e8 <ILI9486_Write8>
    d4d6:	88 81       	ld	r24, Y
    d4d8:	80 61       	ori	r24, 0x10	; 16
    d4da:	88 83       	st	Y, r24
    d4dc:	82 e0       	ldi	r24, 0x02	; 2
    d4de:	84 de       	rcall	.-760    	; 0xd1e8 <ILI9486_Write8>
    d4e0:	88 81       	ld	r24, Y
    d4e2:	80 61       	ori	r24, 0x10	; 16
    d4e4:	88 83       	st	Y, r24
    d4e6:	82 e0       	ldi	r24, 0x02	; 2
    d4e8:	7f de       	rcall	.-770    	; 0xd1e8 <ILI9486_Write8>
    d4ea:	88 81       	ld	r24, Y
    d4ec:	80 61       	ori	r24, 0x10	; 16
    d4ee:	88 83       	st	Y, r24
    d4f0:	8b e3       	ldi	r24, 0x3B	; 59
    d4f2:	7a de       	rcall	.-780    	; 0xd1e8 <ILI9486_Write8>
    d4f4:	88 81       	ld	r24, Y
    d4f6:	80 62       	ori	r24, 0x20	; 32
    d4f8:	88 83       	st	Y, r24
    d4fa:	88 81       	ld	r24, Y
    d4fc:	8f 7d       	andi	r24, 0xDF	; 223
    d4fe:	88 83       	st	Y, r24
    d500:	88 81       	ld	r24, Y
    d502:	8f 7e       	andi	r24, 0xEF	; 239
    d504:	88 83       	st	Y, r24
    d506:	80 ee       	ldi	r24, 0xE0	; 224
    d508:	6f de       	rcall	.-802    	; 0xd1e8 <ILI9486_Write8>
    d50a:	88 81       	ld	r24, Y
    d50c:	80 61       	ori	r24, 0x10	; 16
    d50e:	88 83       	st	Y, r24
    d510:	8f e0       	ldi	r24, 0x0F	; 15
    d512:	6a de       	rcall	.-812    	; 0xd1e8 <ILI9486_Write8>
    d514:	88 81       	ld	r24, Y
    d516:	80 61       	ori	r24, 0x10	; 16
    d518:	88 83       	st	Y, r24
    d51a:	81 e2       	ldi	r24, 0x21	; 33
    d51c:	65 de       	rcall	.-822    	; 0xd1e8 <ILI9486_Write8>
    d51e:	88 81       	ld	r24, Y
    d520:	80 61       	ori	r24, 0x10	; 16
    d522:	88 83       	st	Y, r24
    d524:	8c e1       	ldi	r24, 0x1C	; 28
    d526:	60 de       	rcall	.-832    	; 0xd1e8 <ILI9486_Write8>
    d528:	88 81       	ld	r24, Y
    d52a:	80 61       	ori	r24, 0x10	; 16
    d52c:	88 83       	st	Y, r24
    d52e:	8b e0       	ldi	r24, 0x0B	; 11
    d530:	5b de       	rcall	.-842    	; 0xd1e8 <ILI9486_Write8>
    d532:	88 81       	ld	r24, Y
    d534:	80 61       	ori	r24, 0x10	; 16
    d536:	88 83       	st	Y, r24
    d538:	8e e0       	ldi	r24, 0x0E	; 14
    d53a:	56 de       	rcall	.-852    	; 0xd1e8 <ILI9486_Write8>
    d53c:	88 81       	ld	r24, Y
    d53e:	80 61       	ori	r24, 0x10	; 16
    d540:	88 83       	st	Y, r24
    d542:	88 e0       	ldi	r24, 0x08	; 8
    d544:	51 de       	rcall	.-862    	; 0xd1e8 <ILI9486_Write8>
    d546:	88 81       	ld	r24, Y
    d548:	80 61       	ori	r24, 0x10	; 16
    d54a:	88 83       	st	Y, r24
    d54c:	89 e4       	ldi	r24, 0x49	; 73
    d54e:	4c de       	rcall	.-872    	; 0xd1e8 <ILI9486_Write8>
    d550:	88 81       	ld	r24, Y
    d552:	80 61       	ori	r24, 0x10	; 16
    d554:	88 83       	st	Y, r24
    d556:	88 e9       	ldi	r24, 0x98	; 152
    d558:	47 de       	rcall	.-882    	; 0xd1e8 <ILI9486_Write8>
    d55a:	88 81       	ld	r24, Y
    d55c:	80 61       	ori	r24, 0x10	; 16
    d55e:	88 83       	st	Y, r24
    d560:	88 e3       	ldi	r24, 0x38	; 56
    d562:	42 de       	rcall	.-892    	; 0xd1e8 <ILI9486_Write8>
    d564:	88 81       	ld	r24, Y
    d566:	80 61       	ori	r24, 0x10	; 16
    d568:	88 83       	st	Y, r24
    d56a:	89 e0       	ldi	r24, 0x09	; 9
    d56c:	3d de       	rcall	.-902    	; 0xd1e8 <ILI9486_Write8>
    d56e:	88 81       	ld	r24, Y
    d570:	80 61       	ori	r24, 0x10	; 16
    d572:	88 83       	st	Y, r24
    d574:	81 e1       	ldi	r24, 0x11	; 17
    d576:	38 de       	rcall	.-912    	; 0xd1e8 <ILI9486_Write8>
    d578:	88 81       	ld	r24, Y
    d57a:	80 61       	ori	r24, 0x10	; 16
    d57c:	88 83       	st	Y, r24
    d57e:	83 e0       	ldi	r24, 0x03	; 3
    d580:	33 de       	rcall	.-922    	; 0xd1e8 <ILI9486_Write8>
    d582:	88 81       	ld	r24, Y
    d584:	80 61       	ori	r24, 0x10	; 16
    d586:	88 83       	st	Y, r24
    d588:	84 e1       	ldi	r24, 0x14	; 20
    d58a:	2e de       	rcall	.-932    	; 0xd1e8 <ILI9486_Write8>
    d58c:	88 81       	ld	r24, Y
    d58e:	80 61       	ori	r24, 0x10	; 16
    d590:	88 83       	st	Y, r24
    d592:	80 e1       	ldi	r24, 0x10	; 16
    d594:	29 de       	rcall	.-942    	; 0xd1e8 <ILI9486_Write8>
    d596:	88 81       	ld	r24, Y
    d598:	80 61       	ori	r24, 0x10	; 16
    d59a:	88 83       	st	Y, r24
    d59c:	80 e0       	ldi	r24, 0x00	; 0
    d59e:	24 de       	rcall	.-952    	; 0xd1e8 <ILI9486_Write8>
    d5a0:	88 81       	ld	r24, Y
    d5a2:	80 62       	ori	r24, 0x20	; 32
    d5a4:	88 83       	st	Y, r24
    d5a6:	88 81       	ld	r24, Y
    d5a8:	8f 7d       	andi	r24, 0xDF	; 223
    d5aa:	88 83       	st	Y, r24
    d5ac:	88 81       	ld	r24, Y
    d5ae:	8f 7e       	andi	r24, 0xEF	; 239
    d5b0:	88 83       	st	Y, r24
    d5b2:	81 ee       	ldi	r24, 0xE1	; 225
    d5b4:	19 de       	rcall	.-974    	; 0xd1e8 <ILI9486_Write8>
    d5b6:	88 81       	ld	r24, Y
    d5b8:	80 61       	ori	r24, 0x10	; 16
    d5ba:	88 83       	st	Y, r24
    d5bc:	8f e0       	ldi	r24, 0x0F	; 15
    d5be:	14 de       	rcall	.-984    	; 0xd1e8 <ILI9486_Write8>
    d5c0:	88 81       	ld	r24, Y
    d5c2:	80 61       	ori	r24, 0x10	; 16
    d5c4:	88 83       	st	Y, r24
    d5c6:	8f e2       	ldi	r24, 0x2F	; 47
    d5c8:	0f de       	rcall	.-994    	; 0xd1e8 <ILI9486_Write8>
    d5ca:	88 81       	ld	r24, Y
    d5cc:	80 61       	ori	r24, 0x10	; 16
    d5ce:	88 83       	st	Y, r24
    d5d0:	8b e2       	ldi	r24, 0x2B	; 43
    d5d2:	0a de       	rcall	.-1004   	; 0xd1e8 <ILI9486_Write8>
    d5d4:	88 81       	ld	r24, Y
    d5d6:	80 61       	ori	r24, 0x10	; 16
    d5d8:	88 83       	st	Y, r24
    d5da:	8c e0       	ldi	r24, 0x0C	; 12
    d5dc:	05 de       	rcall	.-1014   	; 0xd1e8 <ILI9486_Write8>
    d5de:	88 81       	ld	r24, Y
    d5e0:	80 61       	ori	r24, 0x10	; 16
    d5e2:	88 83       	st	Y, r24
    d5e4:	8e e0       	ldi	r24, 0x0E	; 14
    d5e6:	00 de       	rcall	.-1024   	; 0xd1e8 <ILI9486_Write8>
    d5e8:	88 81       	ld	r24, Y
    d5ea:	80 61       	ori	r24, 0x10	; 16
    d5ec:	88 83       	st	Y, r24
    d5ee:	86 e0       	ldi	r24, 0x06	; 6
    d5f0:	fb dd       	rcall	.-1034   	; 0xd1e8 <ILI9486_Write8>
    d5f2:	88 81       	ld	r24, Y
    d5f4:	80 61       	ori	r24, 0x10	; 16
    d5f6:	88 83       	st	Y, r24
    d5f8:	87 e4       	ldi	r24, 0x47	; 71
    d5fa:	f6 dd       	rcall	.-1044   	; 0xd1e8 <ILI9486_Write8>
    d5fc:	88 81       	ld	r24, Y
    d5fe:	80 61       	ori	r24, 0x10	; 16
    d600:	88 83       	st	Y, r24
    d602:	86 e7       	ldi	r24, 0x76	; 118
    d604:	f1 dd       	rcall	.-1054   	; 0xd1e8 <ILI9486_Write8>
    d606:	88 81       	ld	r24, Y
    d608:	80 61       	ori	r24, 0x10	; 16
    d60a:	88 83       	st	Y, r24
    d60c:	87 e3       	ldi	r24, 0x37	; 55
    d60e:	ec dd       	rcall	.-1064   	; 0xd1e8 <ILI9486_Write8>
    d610:	88 81       	ld	r24, Y
    d612:	80 61       	ori	r24, 0x10	; 16
    d614:	88 83       	st	Y, r24
    d616:	87 e0       	ldi	r24, 0x07	; 7
    d618:	e7 dd       	rcall	.-1074   	; 0xd1e8 <ILI9486_Write8>
    d61a:	88 81       	ld	r24, Y
    d61c:	80 61       	ori	r24, 0x10	; 16
    d61e:	88 83       	st	Y, r24
    d620:	81 e1       	ldi	r24, 0x11	; 17
    d622:	e2 dd       	rcall	.-1084   	; 0xd1e8 <ILI9486_Write8>
    d624:	88 81       	ld	r24, Y
    d626:	80 61       	ori	r24, 0x10	; 16
    d628:	88 83       	st	Y, r24
    d62a:	84 e0       	ldi	r24, 0x04	; 4
    d62c:	dd dd       	rcall	.-1094   	; 0xd1e8 <ILI9486_Write8>
    d62e:	88 81       	ld	r24, Y
    d630:	80 61       	ori	r24, 0x10	; 16
    d632:	88 83       	st	Y, r24
    d634:	83 e2       	ldi	r24, 0x23	; 35
    d636:	d8 dd       	rcall	.-1104   	; 0xd1e8 <ILI9486_Write8>
    d638:	88 81       	ld	r24, Y
    d63a:	80 61       	ori	r24, 0x10	; 16
    d63c:	88 83       	st	Y, r24
    d63e:	8e e1       	ldi	r24, 0x1E	; 30
    d640:	d3 dd       	rcall	.-1114   	; 0xd1e8 <ILI9486_Write8>
    d642:	88 81       	ld	r24, Y
    d644:	80 61       	ori	r24, 0x10	; 16
    d646:	88 83       	st	Y, r24
    d648:	80 e0       	ldi	r24, 0x00	; 0
    d64a:	ce dd       	rcall	.-1124   	; 0xd1e8 <ILI9486_Write8>
    d64c:	88 81       	ld	r24, Y
    d64e:	80 62       	ori	r24, 0x20	; 32
    d650:	88 83       	st	Y, r24
    d652:	88 81       	ld	r24, Y
    d654:	8f 7d       	andi	r24, 0xDF	; 223
    d656:	88 83       	st	Y, r24
    d658:	88 81       	ld	r24, Y
    d65a:	8f 7e       	andi	r24, 0xEF	; 239
    d65c:	88 83       	st	Y, r24
    d65e:	81 e1       	ldi	r24, 0x11	; 17
    d660:	c3 dd       	rcall	.-1146   	; 0xd1e8 <ILI9486_Write8>
    d662:	88 81       	ld	r24, Y
    d664:	80 62       	ori	r24, 0x20	; 32
    d666:	88 83       	st	Y, r24
    d668:	2f ef       	ldi	r18, 0xFF	; 255
    d66a:	82 e5       	ldi	r24, 0x52	; 82
    d66c:	97 e0       	ldi	r25, 0x07	; 7
    d66e:	21 50       	subi	r18, 0x01	; 1
    d670:	80 40       	sbci	r24, 0x00	; 0
    d672:	90 40       	sbci	r25, 0x00	; 0
    d674:	e1 f7       	brne	.-8      	; 0xd66e <ILI9486_ini+0x2f8>
    d676:	00 c0       	rjmp	.+0      	; 0xd678 <ILI9486_ini+0x302>
    d678:	00 00       	nop
    d67a:	a8 95       	wdr
    d67c:	88 81       	ld	r24, Y
    d67e:	8f 7d       	andi	r24, 0xDF	; 223
    d680:	88 83       	st	Y, r24
    d682:	88 81       	ld	r24, Y
    d684:	8f 7e       	andi	r24, 0xEF	; 239
    d686:	88 83       	st	Y, r24
    d688:	89 e2       	ldi	r24, 0x29	; 41
    d68a:	ae dd       	rcall	.-1188   	; 0xd1e8 <ILI9486_Write8>
    d68c:	88 81       	ld	r24, Y
    d68e:	80 62       	ori	r24, 0x20	; 32
    d690:	88 83       	st	Y, r24
    d692:	80 e0       	ldi	r24, 0x00	; 0
    d694:	1c de       	rcall	.-968    	; 0xd2ce <ILI9486_SetRotation>
    d696:	df 91       	pop	r29
    d698:	cf 91       	pop	r28
    d69a:	08 95       	ret

0000d69c <ILI9486_SetAddrWindow>:
    d69c:	af 92       	push	r10
    d69e:	bf 92       	push	r11
    d6a0:	cf 92       	push	r12
    d6a2:	df 92       	push	r13
    d6a4:	ef 92       	push	r14
    d6a6:	ff 92       	push	r15
    d6a8:	0f 93       	push	r16
    d6aa:	1f 93       	push	r17
    d6ac:	cf 93       	push	r28
    d6ae:	df 93       	push	r29
    d6b0:	b8 2e       	mov	r11, r24
    d6b2:	a9 2e       	mov	r10, r25
    d6b4:	f6 2e       	mov	r15, r22
    d6b6:	e7 2e       	mov	r14, r23
    d6b8:	d4 2e       	mov	r13, r20
    d6ba:	c5 2e       	mov	r12, r21
    d6bc:	12 2f       	mov	r17, r18
    d6be:	03 2f       	mov	r16, r19
    d6c0:	c2 e0       	ldi	r28, 0x02	; 2
    d6c2:	d1 e0       	ldi	r29, 0x01	; 1
    d6c4:	88 81       	ld	r24, Y
    d6c6:	8f 7d       	andi	r24, 0xDF	; 223
    d6c8:	88 83       	st	Y, r24
    d6ca:	88 81       	ld	r24, Y
    d6cc:	8f 7e       	andi	r24, 0xEF	; 239
    d6ce:	88 83       	st	Y, r24
    d6d0:	8a e2       	ldi	r24, 0x2A	; 42
    d6d2:	8a dd       	rcall	.-1260   	; 0xd1e8 <ILI9486_Write8>
    d6d4:	88 81       	ld	r24, Y
    d6d6:	80 61       	ori	r24, 0x10	; 16
    d6d8:	88 83       	st	Y, r24
    d6da:	8a 2d       	mov	r24, r10
    d6dc:	85 dd       	rcall	.-1270   	; 0xd1e8 <ILI9486_Write8>
    d6de:	88 81       	ld	r24, Y
    d6e0:	80 61       	ori	r24, 0x10	; 16
    d6e2:	88 83       	st	Y, r24
    d6e4:	8b 2d       	mov	r24, r11
    d6e6:	80 dd       	rcall	.-1280   	; 0xd1e8 <ILI9486_Write8>
    d6e8:	88 81       	ld	r24, Y
    d6ea:	80 61       	ori	r24, 0x10	; 16
    d6ec:	88 83       	st	Y, r24
    d6ee:	8c 2d       	mov	r24, r12
    d6f0:	7b dd       	rcall	.-1290   	; 0xd1e8 <ILI9486_Write8>
    d6f2:	88 81       	ld	r24, Y
    d6f4:	80 61       	ori	r24, 0x10	; 16
    d6f6:	88 83       	st	Y, r24
    d6f8:	8d 2d       	mov	r24, r13
    d6fa:	76 dd       	rcall	.-1300   	; 0xd1e8 <ILI9486_Write8>
    d6fc:	88 81       	ld	r24, Y
    d6fe:	80 62       	ori	r24, 0x20	; 32
    d700:	88 83       	st	Y, r24
    d702:	88 81       	ld	r24, Y
    d704:	8f 7d       	andi	r24, 0xDF	; 223
    d706:	88 83       	st	Y, r24
    d708:	88 81       	ld	r24, Y
    d70a:	8f 7e       	andi	r24, 0xEF	; 239
    d70c:	88 83       	st	Y, r24
    d70e:	8b e2       	ldi	r24, 0x2B	; 43
    d710:	6b dd       	rcall	.-1322   	; 0xd1e8 <ILI9486_Write8>
    d712:	88 81       	ld	r24, Y
    d714:	80 61       	ori	r24, 0x10	; 16
    d716:	88 83       	st	Y, r24
    d718:	8e 2d       	mov	r24, r14
    d71a:	66 dd       	rcall	.-1332   	; 0xd1e8 <ILI9486_Write8>
    d71c:	88 81       	ld	r24, Y
    d71e:	80 61       	ori	r24, 0x10	; 16
    d720:	88 83       	st	Y, r24
    d722:	8f 2d       	mov	r24, r15
    d724:	61 dd       	rcall	.-1342   	; 0xd1e8 <ILI9486_Write8>
    d726:	88 81       	ld	r24, Y
    d728:	80 61       	ori	r24, 0x10	; 16
    d72a:	88 83       	st	Y, r24
    d72c:	80 2f       	mov	r24, r16
    d72e:	5c dd       	rcall	.-1352   	; 0xd1e8 <ILI9486_Write8>
    d730:	88 81       	ld	r24, Y
    d732:	80 61       	ori	r24, 0x10	; 16
    d734:	88 83       	st	Y, r24
    d736:	81 2f       	mov	r24, r17
    d738:	57 dd       	rcall	.-1362   	; 0xd1e8 <ILI9486_Write8>
    d73a:	88 81       	ld	r24, Y
    d73c:	80 62       	ori	r24, 0x20	; 32
    d73e:	88 83       	st	Y, r24
    d740:	df 91       	pop	r29
    d742:	cf 91       	pop	r28
    d744:	1f 91       	pop	r17
    d746:	0f 91       	pop	r16
    d748:	ff 90       	pop	r15
    d74a:	ef 90       	pop	r14
    d74c:	df 90       	pop	r13
    d74e:	cf 90       	pop	r12
    d750:	bf 90       	pop	r11
    d752:	af 90       	pop	r10
    d754:	08 95       	ret

0000d756 <ILI9486_drawPixel>:
    d756:	cf 93       	push	r28
    d758:	df 93       	push	r29
    d75a:	ea 01       	movw	r28, r20
    d75c:	9b 01       	movw	r18, r22
    d75e:	ac 01       	movw	r20, r24
    d760:	9d df       	rcall	.-198    	; 0xd69c <ILI9486_SetAddrWindow>
    d762:	be 01       	movw	r22, r28
    d764:	8c e2       	ldi	r24, 0x2C	; 44
    d766:	90 e0       	ldi	r25, 0x00	; 0
    d768:	66 dd       	rcall	.-1332   	; 0xd236 <ILI9486_Write_Cmd_Data>
    d76a:	df 91       	pop	r29
    d76c:	cf 91       	pop	r28
    d76e:	08 95       	ret

0000d770 <ILI9486_FillScreen>:
    d770:	cf 92       	push	r12
    d772:	df 92       	push	r13
    d774:	ef 92       	push	r14
    d776:	ff 92       	push	r15
    d778:	0f 93       	push	r16
    d77a:	1f 93       	push	r17
    d77c:	cf 93       	push	r28
    d77e:	df 93       	push	r29
    d780:	c8 2e       	mov	r12, r24
    d782:	d9 2e       	mov	r13, r25
    d784:	20 91 de 03 	lds	r18, 0x03DE	; 0x8003de <__data_end>
    d788:	30 91 df 03 	lds	r19, 0x03DF	; 0x8003df <__data_end+0x1>
    d78c:	21 50       	subi	r18, 0x01	; 1
    d78e:	31 09       	sbc	r19, r1
    d790:	40 91 e0 03 	lds	r20, 0x03E0	; 0x8003e0 <X_SIZE>
    d794:	50 91 e1 03 	lds	r21, 0x03E1	; 0x8003e1 <X_SIZE+0x1>
    d798:	41 50       	subi	r20, 0x01	; 1
    d79a:	51 09       	sbc	r21, r1
    d79c:	60 e0       	ldi	r22, 0x00	; 0
    d79e:	70 e0       	ldi	r23, 0x00	; 0
    d7a0:	80 e0       	ldi	r24, 0x00	; 0
    d7a2:	90 e0       	ldi	r25, 0x00	; 0
    d7a4:	7b df       	rcall	.-266    	; 0xd69c <ILI9486_SetAddrWindow>
    d7a6:	c2 e0       	ldi	r28, 0x02	; 2
    d7a8:	d1 e0       	ldi	r29, 0x01	; 1
    d7aa:	88 81       	ld	r24, Y
    d7ac:	8f 7d       	andi	r24, 0xDF	; 223
    d7ae:	88 83       	st	Y, r24
    d7b0:	88 81       	ld	r24, Y
    d7b2:	8f 7e       	andi	r24, 0xEF	; 239
    d7b4:	88 83       	st	Y, r24
    d7b6:	8c e2       	ldi	r24, 0x2C	; 44
    d7b8:	17 dd       	rcall	.-1490   	; 0xd1e8 <ILI9486_Write8>
    d7ba:	88 81       	ld	r24, Y
    d7bc:	80 61       	ori	r24, 0x10	; 16
    d7be:	88 83       	st	Y, r24
    d7c0:	e1 2c       	mov	r14, r1
    d7c2:	f1 2c       	mov	r15, r1
    d7c4:	1b c0       	rjmp	.+54     	; 0xd7fc <ILI9486_FillScreen+0x8c>
    d7c6:	c2 e0       	ldi	r28, 0x02	; 2
    d7c8:	d1 e0       	ldi	r29, 0x01	; 1
    d7ca:	88 81       	ld	r24, Y
    d7cc:	80 61       	ori	r24, 0x10	; 16
    d7ce:	88 83       	st	Y, r24
    d7d0:	8d 2d       	mov	r24, r13
    d7d2:	0a dd       	rcall	.-1516   	; 0xd1e8 <ILI9486_Write8>
    d7d4:	88 81       	ld	r24, Y
    d7d6:	80 61       	ori	r24, 0x10	; 16
    d7d8:	88 83       	st	Y, r24
    d7da:	8c 2d       	mov	r24, r12
    d7dc:	05 dd       	rcall	.-1526   	; 0xd1e8 <ILI9486_Write8>
    d7de:	0f 5f       	subi	r16, 0xFF	; 255
    d7e0:	1f 4f       	sbci	r17, 0xFF	; 255
    d7e2:	02 c0       	rjmp	.+4      	; 0xd7e8 <ILI9486_FillScreen+0x78>
    d7e4:	00 e0       	ldi	r16, 0x00	; 0
    d7e6:	10 e0       	ldi	r17, 0x00	; 0
    d7e8:	80 91 de 03 	lds	r24, 0x03DE	; 0x8003de <__data_end>
    d7ec:	90 91 df 03 	lds	r25, 0x03DF	; 0x8003df <__data_end+0x1>
    d7f0:	08 17       	cp	r16, r24
    d7f2:	19 07       	cpc	r17, r25
    d7f4:	40 f3       	brcs	.-48     	; 0xd7c6 <ILI9486_FillScreen+0x56>
    d7f6:	8f ef       	ldi	r24, 0xFF	; 255
    d7f8:	e8 1a       	sub	r14, r24
    d7fa:	f8 0a       	sbc	r15, r24
    d7fc:	80 91 e0 03 	lds	r24, 0x03E0	; 0x8003e0 <X_SIZE>
    d800:	90 91 e1 03 	lds	r25, 0x03E1	; 0x8003e1 <X_SIZE+0x1>
    d804:	e8 16       	cp	r14, r24
    d806:	f9 06       	cpc	r15, r25
    d808:	68 f3       	brcs	.-38     	; 0xd7e4 <ILI9486_FillScreen+0x74>
    d80a:	e2 e0       	ldi	r30, 0x02	; 2
    d80c:	f1 e0       	ldi	r31, 0x01	; 1
    d80e:	80 81       	ld	r24, Z
    d810:	80 62       	ori	r24, 0x20	; 32
    d812:	80 83       	st	Z, r24
    d814:	df 91       	pop	r29
    d816:	cf 91       	pop	r28
    d818:	1f 91       	pop	r17
    d81a:	0f 91       	pop	r16
    d81c:	ff 90       	pop	r15
    d81e:	ef 90       	pop	r14
    d820:	df 90       	pop	r13
    d822:	cf 90       	pop	r12
    d824:	08 95       	ret

0000d826 <ILI9486_fillRect>:
    d826:	af 92       	push	r10
    d828:	bf 92       	push	r11
    d82a:	cf 92       	push	r12
    d82c:	df 92       	push	r13
    d82e:	ef 92       	push	r14
    d830:	ff 92       	push	r15
    d832:	0f 93       	push	r16
    d834:	1f 93       	push	r17
    d836:	cf 93       	push	r28
    d838:	df 93       	push	r29
    d83a:	fc 01       	movw	r30, r24
    d83c:	e4 0f       	add	r30, r20
    d83e:	f5 1f       	adc	r31, r21
    d840:	40 91 e0 03 	lds	r20, 0x03E0	; 0x8003e0 <X_SIZE>
    d844:	50 91 e1 03 	lds	r21, 0x03E1	; 0x8003e1 <X_SIZE+0x1>
    d848:	4e 17       	cp	r20, r30
    d84a:	5f 07       	cpc	r21, r31
    d84c:	08 f0       	brcs	.+2      	; 0xd850 <ILI9486_fillRect+0x2a>
    d84e:	af 01       	movw	r20, r30
    d850:	5a 01       	movw	r10, r20
    d852:	a8 1a       	sub	r10, r24
    d854:	b9 0a       	sbc	r11, r25
    d856:	fb 01       	movw	r30, r22
    d858:	e2 0f       	add	r30, r18
    d85a:	f3 1f       	adc	r31, r19
    d85c:	20 91 de 03 	lds	r18, 0x03DE	; 0x8003de <__data_end>
    d860:	30 91 df 03 	lds	r19, 0x03DF	; 0x8003df <__data_end+0x1>
    d864:	2e 17       	cp	r18, r30
    d866:	3f 07       	cpc	r19, r31
    d868:	08 f0       	brcs	.+2      	; 0xd86c <ILI9486_fillRect+0x46>
    d86a:	9f 01       	movw	r18, r30
    d86c:	e9 01       	movw	r28, r18
    d86e:	c6 1b       	sub	r28, r22
    d870:	d7 0b       	sbc	r29, r23
    d872:	21 50       	subi	r18, 0x01	; 1
    d874:	31 09       	sbc	r19, r1
    d876:	41 50       	subi	r20, 0x01	; 1
    d878:	51 09       	sbc	r21, r1
    d87a:	10 df       	rcall	.-480    	; 0xd69c <ILI9486_SetAddrWindow>
    d87c:	68 94       	set
    d87e:	ee 24       	eor	r14, r14
    d880:	e1 f8       	bld	r14, 1
    d882:	ff 24       	eor	r15, r15
    d884:	f3 94       	inc	r15
    d886:	f7 01       	movw	r30, r14
    d888:	80 81       	ld	r24, Z
    d88a:	8f 7d       	andi	r24, 0xDF	; 223
    d88c:	80 83       	st	Z, r24
    d88e:	80 81       	ld	r24, Z
    d890:	8f 7e       	andi	r24, 0xEF	; 239
    d892:	80 83       	st	Z, r24
    d894:	8c e2       	ldi	r24, 0x2C	; 44
    d896:	a8 dc       	rcall	.-1712   	; 0xd1e8 <ILI9486_Write8>
    d898:	f7 01       	movw	r30, r14
    d89a:	80 81       	ld	r24, Z
    d89c:	80 61       	ori	r24, 0x10	; 16
    d89e:	80 83       	st	Z, r24
    d8a0:	ac 16       	cp	r10, r28
    d8a2:	bd 06       	cpc	r11, r29
    d8a4:	a0 f0       	brcs	.+40     	; 0xd8ce <ILI9486_fillRect+0xa8>
    d8a6:	18 c0       	rjmp	.+48     	; 0xd8d8 <ILI9486_fillRect+0xb2>
    d8a8:	75 01       	movw	r14, r10
    d8aa:	c2 e0       	ldi	r28, 0x02	; 2
    d8ac:	d1 e0       	ldi	r29, 0x01	; 1
    d8ae:	88 81       	ld	r24, Y
    d8b0:	80 61       	ori	r24, 0x10	; 16
    d8b2:	88 83       	st	Y, r24
    d8b4:	81 2f       	mov	r24, r17
    d8b6:	98 dc       	rcall	.-1744   	; 0xd1e8 <ILI9486_Write8>
    d8b8:	88 81       	ld	r24, Y
    d8ba:	80 61       	ori	r24, 0x10	; 16
    d8bc:	88 83       	st	Y, r24
    d8be:	80 2f       	mov	r24, r16
    d8c0:	93 dc       	rcall	.-1754   	; 0xd1e8 <ILI9486_Write8>
    d8c2:	f1 e0       	ldi	r31, 0x01	; 1
    d8c4:	ef 1a       	sub	r14, r31
    d8c6:	f1 08       	sbc	r15, r1
    d8c8:	81 f7       	brne	.-32     	; 0xd8aa <ILI9486_fillRect+0x84>
    d8ca:	e6 01       	movw	r28, r12
    d8cc:	05 c0       	rjmp	.+10     	; 0xd8d8 <ILI9486_fillRect+0xb2>
    d8ce:	9a 2d       	mov	r25, r10
    d8d0:	8b 2d       	mov	r24, r11
    d8d2:	5e 01       	movw	r10, r28
    d8d4:	c9 2f       	mov	r28, r25
    d8d6:	d8 2f       	mov	r29, r24
    d8d8:	6e 01       	movw	r12, r28
    d8da:	81 e0       	ldi	r24, 0x01	; 1
    d8dc:	c8 1a       	sub	r12, r24
    d8de:	d1 08       	sbc	r13, r1
    d8e0:	cd 2b       	or	r28, r29
    d8e2:	11 f7       	brne	.-60     	; 0xd8a8 <ILI9486_fillRect+0x82>
    d8e4:	e2 e0       	ldi	r30, 0x02	; 2
    d8e6:	f1 e0       	ldi	r31, 0x01	; 1
    d8e8:	80 81       	ld	r24, Z
    d8ea:	80 62       	ori	r24, 0x20	; 32
    d8ec:	80 83       	st	Z, r24
    d8ee:	df 91       	pop	r29
    d8f0:	cf 91       	pop	r28
    d8f2:	1f 91       	pop	r17
    d8f4:	0f 91       	pop	r16
    d8f6:	ff 90       	pop	r15
    d8f8:	ef 90       	pop	r14
    d8fa:	df 90       	pop	r13
    d8fc:	cf 90       	pop	r12
    d8fe:	bf 90       	pop	r11
    d900:	af 90       	pop	r10
    d902:	08 95       	ret

0000d904 <ILI9486_DrawFastVLine>:
    d904:	0f 93       	push	r16
    d906:	1f 93       	push	r17
    d908:	e0 91 e0 03 	lds	r30, 0x03E0	; 0x8003e0 <X_SIZE>
    d90c:	f0 91 e1 03 	lds	r31, 0x03E1	; 0x8003e1 <X_SIZE+0x1>
    d910:	8e 17       	cp	r24, r30
    d912:	9f 07       	cpc	r25, r31
    d914:	c8 f4       	brcc	.+50     	; 0xd948 <ILI9486_DrawFastVLine+0x44>
    d916:	e0 91 de 03 	lds	r30, 0x03DE	; 0x8003de <__data_end>
    d91a:	f0 91 df 03 	lds	r31, 0x03DF	; 0x8003df <__data_end+0x1>
    d91e:	6e 17       	cp	r22, r30
    d920:	7f 07       	cpc	r23, r31
    d922:	90 f4       	brcc	.+36     	; 0xd948 <ILI9486_DrawFastVLine+0x44>
    d924:	41 15       	cp	r20, r1
    d926:	51 05       	cpc	r21, r1
    d928:	79 f0       	breq	.+30     	; 0xd948 <ILI9486_DrawFastVLine+0x44>
    d92a:	db 01       	movw	r26, r22
    d92c:	a4 0f       	add	r26, r20
    d92e:	b5 1f       	adc	r27, r21
    d930:	11 97       	sbiw	r26, 0x01	; 1
    d932:	ae 17       	cp	r26, r30
    d934:	bf 07       	cpc	r27, r31
    d936:	18 f0       	brcs	.+6      	; 0xd93e <ILI9486_DrawFastVLine+0x3a>
    d938:	af 01       	movw	r20, r30
    d93a:	46 1b       	sub	r20, r22
    d93c:	57 0b       	sbc	r21, r23
    d93e:	89 01       	movw	r16, r18
    d940:	9a 01       	movw	r18, r20
    d942:	41 e0       	ldi	r20, 0x01	; 1
    d944:	50 e0       	ldi	r21, 0x00	; 0
    d946:	6f df       	rcall	.-290    	; 0xd826 <ILI9486_fillRect>
    d948:	1f 91       	pop	r17
    d94a:	0f 91       	pop	r16
    d94c:	08 95       	ret

0000d94e <ILI9486_DrawFastHLine>:
    d94e:	0f 93       	push	r16
    d950:	1f 93       	push	r17
    d952:	e0 91 e0 03 	lds	r30, 0x03E0	; 0x8003e0 <X_SIZE>
    d956:	f0 91 e1 03 	lds	r31, 0x03E1	; 0x8003e1 <X_SIZE+0x1>
    d95a:	8e 17       	cp	r24, r30
    d95c:	9f 07       	cpc	r25, r31
    d95e:	c0 f4       	brcc	.+48     	; 0xd990 <ILI9486_DrawFastHLine+0x42>
    d960:	a0 91 de 03 	lds	r26, 0x03DE	; 0x8003de <__data_end>
    d964:	b0 91 df 03 	lds	r27, 0x03DF	; 0x8003df <__data_end+0x1>
    d968:	6a 17       	cp	r22, r26
    d96a:	7b 07       	cpc	r23, r27
    d96c:	88 f4       	brcc	.+34     	; 0xd990 <ILI9486_DrawFastHLine+0x42>
    d96e:	41 15       	cp	r20, r1
    d970:	51 05       	cpc	r21, r1
    d972:	71 f0       	breq	.+28     	; 0xd990 <ILI9486_DrawFastHLine+0x42>
    d974:	dc 01       	movw	r26, r24
    d976:	a4 0f       	add	r26, r20
    d978:	b5 1f       	adc	r27, r21
    d97a:	11 97       	sbiw	r26, 0x01	; 1
    d97c:	ae 17       	cp	r26, r30
    d97e:	bf 07       	cpc	r27, r31
    d980:	18 f0       	brcs	.+6      	; 0xd988 <ILI9486_DrawFastHLine+0x3a>
    d982:	af 01       	movw	r20, r30
    d984:	48 1b       	sub	r20, r24
    d986:	59 0b       	sbc	r21, r25
    d988:	89 01       	movw	r16, r18
    d98a:	21 e0       	ldi	r18, 0x01	; 1
    d98c:	30 e0       	ldi	r19, 0x00	; 0
    d98e:	4b df       	rcall	.-362    	; 0xd826 <ILI9486_fillRect>
    d990:	1f 91       	pop	r17
    d992:	0f 91       	pop	r16
    d994:	08 95       	ret

0000d996 <ILI9486_writeLine>:
    d996:	2f 92       	push	r2
    d998:	3f 92       	push	r3
    d99a:	4f 92       	push	r4
    d99c:	5f 92       	push	r5
    d99e:	6f 92       	push	r6
    d9a0:	7f 92       	push	r7
    d9a2:	8f 92       	push	r8
    d9a4:	9f 92       	push	r9
    d9a6:	af 92       	push	r10
    d9a8:	bf 92       	push	r11
    d9aa:	cf 92       	push	r12
    d9ac:	df 92       	push	r13
    d9ae:	ef 92       	push	r14
    d9b0:	ff 92       	push	r15
    d9b2:	0f 93       	push	r16
    d9b4:	1f 93       	push	r17
    d9b6:	cf 93       	push	r28
    d9b8:	df 93       	push	r29
    d9ba:	00 d0       	rcall	.+0      	; 0xd9bc <ILI9486_writeLine+0x26>
    d9bc:	1f 92       	push	r1
    d9be:	cd b7       	in	r28, 0x3d	; 61
    d9c0:	de b7       	in	r29, 0x3e	; 62
    d9c2:	9c 83       	std	Y+4, r25	; 0x04
    d9c4:	8b 83       	std	Y+3, r24	; 0x03
    d9c6:	7b 01       	movw	r14, r22
    d9c8:	6a 01       	movw	r12, r20
    d9ca:	1a 83       	std	Y+2, r17	; 0x02
    d9cc:	09 83       	std	Y+1, r16	; 0x01
    d9ce:	c9 01       	movw	r24, r18
    d9d0:	86 1b       	sub	r24, r22
    d9d2:	97 0b       	sbc	r25, r23
    d9d4:	8c 01       	movw	r16, r24
    d9d6:	22 f4       	brpl	.+8      	; 0xd9e0 <ILI9486_writeLine+0x4a>
    d9d8:	00 27       	eor	r16, r16
    d9da:	11 27       	eor	r17, r17
    d9dc:	08 1b       	sub	r16, r24
    d9de:	19 0b       	sbc	r17, r25
    d9e0:	c6 01       	movw	r24, r12
    d9e2:	4b 81       	ldd	r20, Y+3	; 0x03
    d9e4:	5c 81       	ldd	r21, Y+4	; 0x04
    d9e6:	84 1b       	sub	r24, r20
    d9e8:	95 0b       	sbc	r25, r21
    d9ea:	5c 01       	movw	r10, r24
    d9ec:	22 f4       	brpl	.+8      	; 0xd9f6 <ILI9486_writeLine+0x60>
    d9ee:	aa 24       	eor	r10, r10
    d9f0:	bb 24       	eor	r11, r11
    d9f2:	a8 1a       	sub	r10, r24
    d9f4:	b9 0a       	sbc	r11, r25
    d9f6:	a0 16       	cp	r10, r16
    d9f8:	b1 06       	cpc	r11, r17
    d9fa:	5c f4       	brge	.+22     	; 0xda12 <ILI9486_writeLine+0x7c>
    d9fc:	9c 2d       	mov	r25, r12
    d9fe:	8d 2d       	mov	r24, r13
    da00:	69 01       	movw	r12, r18
    da02:	29 2f       	mov	r18, r25
    da04:	38 2f       	mov	r19, r24
    da06:	9b 81       	ldd	r25, Y+3	; 0x03
    da08:	8c 81       	ldd	r24, Y+4	; 0x04
    da0a:	fc 82       	std	Y+4, r15	; 0x04
    da0c:	eb 82       	std	Y+3, r14	; 0x03
    da0e:	e9 2e       	mov	r14, r25
    da10:	f8 2e       	mov	r15, r24
    da12:	8b 81       	ldd	r24, Y+3	; 0x03
    da14:	9c 81       	ldd	r25, Y+4	; 0x04
    da16:	c8 16       	cp	r12, r24
    da18:	d9 06       	cpc	r13, r25
    da1a:	5c f4       	brge	.+22     	; 0xda32 <ILI9486_writeLine+0x9c>
    da1c:	9e 2d       	mov	r25, r14
    da1e:	8f 2d       	mov	r24, r15
    da20:	79 01       	movw	r14, r18
    da22:	29 2f       	mov	r18, r25
    da24:	38 2f       	mov	r19, r24
    da26:	9b 81       	ldd	r25, Y+3	; 0x03
    da28:	8c 81       	ldd	r24, Y+4	; 0x04
    da2a:	dc 82       	std	Y+4, r13	; 0x04
    da2c:	cb 82       	std	Y+3, r12	; 0x03
    da2e:	c9 2e       	mov	r12, r25
    da30:	d8 2e       	mov	r13, r24
    da32:	16 01       	movw	r2, r12
    da34:	4b 81       	ldd	r20, Y+3	; 0x03
    da36:	5c 81       	ldd	r21, Y+4	; 0x04
    da38:	24 1a       	sub	r2, r20
    da3a:	35 0a       	sbc	r3, r21
    da3c:	c9 01       	movw	r24, r18
    da3e:	8e 19       	sub	r24, r14
    da40:	9f 09       	sbc	r25, r15
    da42:	3c 01       	movw	r6, r24
    da44:	22 f4       	brpl	.+8      	; 0xda4e <ILI9486_writeLine+0xb8>
    da46:	66 24       	eor	r6, r6
    da48:	77 24       	eor	r7, r7
    da4a:	68 1a       	sub	r6, r24
    da4c:	79 0a       	sbc	r7, r25
    da4e:	41 01       	movw	r8, r2
    da50:	33 20       	and	r3, r3
    da52:	1c f4       	brge	.+6      	; 0xda5a <ILI9486_writeLine+0xc4>
    da54:	5f ef       	ldi	r21, 0xFF	; 255
    da56:	85 1a       	sub	r8, r21
    da58:	95 0a       	sbc	r9, r21
    da5a:	95 94       	asr	r9
    da5c:	87 94       	ror	r8
    da5e:	e2 16       	cp	r14, r18
    da60:	f3 06       	cpc	r15, r19
    da62:	24 f4       	brge	.+8      	; 0xda6c <ILI9486_writeLine+0xd6>
    da64:	44 24       	eor	r4, r4
    da66:	43 94       	inc	r4
    da68:	51 2c       	mov	r5, r1
    da6a:	20 c0       	rjmp	.+64     	; 0xdaac <ILI9486_writeLine+0x116>
    da6c:	44 24       	eor	r4, r4
    da6e:	4a 94       	dec	r4
    da70:	54 2c       	mov	r5, r4
    da72:	1c c0       	rjmp	.+56     	; 0xdaac <ILI9486_writeLine+0x116>
    da74:	a0 16       	cp	r10, r16
    da76:	b1 06       	cpc	r11, r17
    da78:	3c f4       	brge	.+14     	; 0xda88 <ILI9486_writeLine+0xf2>
    da7a:	49 81       	ldd	r20, Y+1	; 0x01
    da7c:	5a 81       	ldd	r21, Y+2	; 0x02
    da7e:	6b 81       	ldd	r22, Y+3	; 0x03
    da80:	7c 81       	ldd	r23, Y+4	; 0x04
    da82:	c7 01       	movw	r24, r14
    da84:	68 de       	rcall	.-816    	; 0xd756 <ILI9486_drawPixel>
    da86:	06 c0       	rjmp	.+12     	; 0xda94 <ILI9486_writeLine+0xfe>
    da88:	49 81       	ldd	r20, Y+1	; 0x01
    da8a:	5a 81       	ldd	r21, Y+2	; 0x02
    da8c:	b7 01       	movw	r22, r14
    da8e:	8b 81       	ldd	r24, Y+3	; 0x03
    da90:	9c 81       	ldd	r25, Y+4	; 0x04
    da92:	61 de       	rcall	.-830    	; 0xd756 <ILI9486_drawPixel>
    da94:	86 18       	sub	r8, r6
    da96:	97 08       	sbc	r9, r7
    da98:	22 f4       	brpl	.+8      	; 0xdaa2 <ILI9486_writeLine+0x10c>
    da9a:	e4 0c       	add	r14, r4
    da9c:	f5 1c       	adc	r15, r5
    da9e:	82 0c       	add	r8, r2
    daa0:	93 1c       	adc	r9, r3
    daa2:	8b 81       	ldd	r24, Y+3	; 0x03
    daa4:	9c 81       	ldd	r25, Y+4	; 0x04
    daa6:	01 96       	adiw	r24, 0x01	; 1
    daa8:	9c 83       	std	Y+4, r25	; 0x04
    daaa:	8b 83       	std	Y+3, r24	; 0x03
    daac:	4b 81       	ldd	r20, Y+3	; 0x03
    daae:	5c 81       	ldd	r21, Y+4	; 0x04
    dab0:	c4 16       	cp	r12, r20
    dab2:	d5 06       	cpc	r13, r21
    dab4:	fc f6       	brge	.-66     	; 0xda74 <ILI9486_writeLine+0xde>
    dab6:	0f 90       	pop	r0
    dab8:	0f 90       	pop	r0
    daba:	0f 90       	pop	r0
    dabc:	0f 90       	pop	r0
    dabe:	df 91       	pop	r29
    dac0:	cf 91       	pop	r28
    dac2:	1f 91       	pop	r17
    dac4:	0f 91       	pop	r16
    dac6:	ff 90       	pop	r15
    dac8:	ef 90       	pop	r14
    daca:	df 90       	pop	r13
    dacc:	cf 90       	pop	r12
    dace:	bf 90       	pop	r11
    dad0:	af 90       	pop	r10
    dad2:	9f 90       	pop	r9
    dad4:	8f 90       	pop	r8
    dad6:	7f 90       	pop	r7
    dad8:	6f 90       	pop	r6
    dada:	5f 90       	pop	r5
    dadc:	4f 90       	pop	r4
    dade:	3f 90       	pop	r3
    dae0:	2f 90       	pop	r2
    dae2:	08 95       	ret

0000dae4 <ILI9486_Draw_Line>:
    dae4:	0f 93       	push	r16
    dae6:	1f 93       	push	r17
    dae8:	84 17       	cp	r24, r20
    daea:	95 07       	cpc	r25, r21
    daec:	81 f4       	brne	.+32     	; 0xdb0e <ILI9486_Draw_Line+0x2a>
    daee:	26 17       	cp	r18, r22
    daf0:	37 07       	cpc	r19, r23
    daf2:	2c f4       	brge	.+10     	; 0xdafe <ILI9486_Draw_Line+0x1a>
    daf4:	56 2f       	mov	r21, r22
    daf6:	47 2f       	mov	r20, r23
    daf8:	b9 01       	movw	r22, r18
    dafa:	25 2f       	mov	r18, r21
    dafc:	34 2f       	mov	r19, r20
    dafe:	a9 01       	movw	r20, r18
    db00:	46 1b       	sub	r20, r22
    db02:	57 0b       	sbc	r21, r23
    db04:	4f 5f       	subi	r20, 0xFF	; 255
    db06:	5f 4f       	sbci	r21, 0xFF	; 255
    db08:	98 01       	movw	r18, r16
    db0a:	fc de       	rcall	.-520    	; 0xd904 <ILI9486_DrawFastVLine>
    db0c:	13 c0       	rjmp	.+38     	; 0xdb34 <ILI9486_Draw_Line+0x50>
    db0e:	62 17       	cp	r22, r18
    db10:	73 07       	cpc	r23, r19
    db12:	79 f4       	brne	.+30     	; 0xdb32 <ILI9486_Draw_Line+0x4e>
    db14:	48 17       	cp	r20, r24
    db16:	59 07       	cpc	r21, r25
    db18:	2c f4       	brge	.+10     	; 0xdb24 <ILI9486_Draw_Line+0x40>
    db1a:	38 2f       	mov	r19, r24
    db1c:	29 2f       	mov	r18, r25
    db1e:	ca 01       	movw	r24, r20
    db20:	43 2f       	mov	r20, r19
    db22:	52 2f       	mov	r21, r18
    db24:	48 1b       	sub	r20, r24
    db26:	59 0b       	sbc	r21, r25
    db28:	4f 5f       	subi	r20, 0xFF	; 255
    db2a:	5f 4f       	sbci	r21, 0xFF	; 255
    db2c:	98 01       	movw	r18, r16
    db2e:	0f df       	rcall	.-482    	; 0xd94e <ILI9486_DrawFastHLine>
    db30:	01 c0       	rjmp	.+2      	; 0xdb34 <ILI9486_Draw_Line+0x50>
    db32:	31 df       	rcall	.-414    	; 0xd996 <ILI9486_writeLine>
    db34:	1f 91       	pop	r17
    db36:	0f 91       	pop	r16
    db38:	08 95       	ret

0000db3a <ILI9486_Draw_Circle>:
    db3a:	2f 92       	push	r2
    db3c:	3f 92       	push	r3
    db3e:	4f 92       	push	r4
    db40:	5f 92       	push	r5
    db42:	6f 92       	push	r6
    db44:	7f 92       	push	r7
    db46:	8f 92       	push	r8
    db48:	9f 92       	push	r9
    db4a:	af 92       	push	r10
    db4c:	bf 92       	push	r11
    db4e:	cf 92       	push	r12
    db50:	df 92       	push	r13
    db52:	ef 92       	push	r14
    db54:	ff 92       	push	r15
    db56:	0f 93       	push	r16
    db58:	1f 93       	push	r17
    db5a:	cf 93       	push	r28
    db5c:	df 93       	push	r29
    db5e:	00 d0       	rcall	.+0      	; 0xdb60 <ILI9486_Draw_Circle+0x26>
    db60:	00 d0       	rcall	.+0      	; 0xdb62 <ILI9486_Draw_Circle+0x28>
    db62:	cd b7       	in	r28, 0x3d	; 61
    db64:	de b7       	in	r29, 0x3e	; 62
    db66:	6c 01       	movw	r12, r24
    db68:	4b 01       	movw	r8, r22
    db6a:	5e 83       	std	Y+6, r21	; 0x06
    db6c:	4d 83       	std	Y+5, r20	; 0x05
    db6e:	02 2f       	mov	r16, r18
    db70:	13 2f       	mov	r17, r19
    db72:	81 e0       	ldi	r24, 0x01	; 1
    db74:	90 e0       	ldi	r25, 0x00	; 0
    db76:	7c 01       	movw	r14, r24
    db78:	e4 1a       	sub	r14, r20
    db7a:	f5 0a       	sbc	r15, r21
    db7c:	ca 01       	movw	r24, r20
    db7e:	91 95       	neg	r25
    db80:	81 95       	neg	r24
    db82:	91 09       	sbc	r25, r1
    db84:	88 0f       	add	r24, r24
    db86:	99 1f       	adc	r25, r25
    db88:	9c 83       	std	Y+4, r25	; 0x04
    db8a:	8b 83       	std	Y+3, r24	; 0x03
    db8c:	29 83       	std	Y+1, r18	; 0x01
    db8e:	3a 83       	std	Y+2, r19	; 0x02
    db90:	ba 01       	movw	r22, r20
    db92:	68 0d       	add	r22, r8
    db94:	79 1d       	adc	r23, r9
    db96:	42 2f       	mov	r20, r18
    db98:	53 2f       	mov	r21, r19
    db9a:	c6 01       	movw	r24, r12
    db9c:	dc dd       	rcall	.-1096   	; 0xd756 <ILI9486_drawPixel>
    db9e:	b4 01       	movw	r22, r8
    dba0:	2d 81       	ldd	r18, Y+5	; 0x05
    dba2:	3e 81       	ldd	r19, Y+6	; 0x06
    dba4:	62 1b       	sub	r22, r18
    dba6:	73 0b       	sbc	r23, r19
    dba8:	40 2f       	mov	r20, r16
    dbaa:	51 2f       	mov	r21, r17
    dbac:	c6 01       	movw	r24, r12
    dbae:	d3 dd       	rcall	.-1114   	; 0xd756 <ILI9486_drawPixel>
    dbb0:	40 2f       	mov	r20, r16
    dbb2:	51 2f       	mov	r21, r17
    dbb4:	b4 01       	movw	r22, r8
    dbb6:	8d 81       	ldd	r24, Y+5	; 0x05
    dbb8:	9e 81       	ldd	r25, Y+6	; 0x06
    dbba:	8c 0d       	add	r24, r12
    dbbc:	9d 1d       	adc	r25, r13
    dbbe:	cb dd       	rcall	.-1130   	; 0xd756 <ILI9486_drawPixel>
    dbc0:	40 2f       	mov	r20, r16
    dbc2:	51 2f       	mov	r21, r17
    dbc4:	b4 01       	movw	r22, r8
    dbc6:	c6 01       	movw	r24, r12
    dbc8:	2d 81       	ldd	r18, Y+5	; 0x05
    dbca:	3e 81       	ldd	r19, Y+6	; 0x06
    dbcc:	82 1b       	sub	r24, r18
    dbce:	93 0b       	sbc	r25, r19
    dbd0:	c2 dd       	rcall	.-1148   	; 0xd756 <ILI9486_drawPixel>
    dbd2:	00 e0       	ldi	r16, 0x00	; 0
    dbd4:	10 e0       	ldi	r17, 0x00	; 0
    dbd6:	66 24       	eor	r6, r6
    dbd8:	63 94       	inc	r6
    dbda:	71 2c       	mov	r7, r1
    dbdc:	5c c0       	rjmp	.+184    	; 0xdc96 <ILI9486_Draw_Circle+0x15c>
    dbde:	ff 20       	and	r15, r15
    dbe0:	6c f0       	brlt	.+26     	; 0xdbfc <ILI9486_Draw_Circle+0xc2>
    dbe2:	8d 81       	ldd	r24, Y+5	; 0x05
    dbe4:	9e 81       	ldd	r25, Y+6	; 0x06
    dbe6:	01 97       	sbiw	r24, 0x01	; 1
    dbe8:	9e 83       	std	Y+6, r25	; 0x06
    dbea:	8d 83       	std	Y+5, r24	; 0x05
    dbec:	2b 81       	ldd	r18, Y+3	; 0x03
    dbee:	3c 81       	ldd	r19, Y+4	; 0x04
    dbf0:	2e 5f       	subi	r18, 0xFE	; 254
    dbf2:	3f 4f       	sbci	r19, 0xFF	; 255
    dbf4:	3c 83       	std	Y+4, r19	; 0x04
    dbf6:	2b 83       	std	Y+3, r18	; 0x03
    dbf8:	e2 0e       	add	r14, r18
    dbfa:	f3 1e       	adc	r15, r19
    dbfc:	0f 5f       	subi	r16, 0xFF	; 255
    dbfe:	1f 4f       	sbci	r17, 0xFF	; 255
    dc00:	32 e0       	ldi	r19, 0x02	; 2
    dc02:	63 0e       	add	r6, r19
    dc04:	71 1c       	adc	r7, r1
    dc06:	e6 0c       	add	r14, r6
    dc08:	f7 1c       	adc	r15, r7
    dc0a:	56 01       	movw	r10, r12
    dc0c:	a0 0e       	add	r10, r16
    dc0e:	b1 1e       	adc	r11, r17
    dc10:	49 81       	ldd	r20, Y+1	; 0x01
    dc12:	5a 81       	ldd	r21, Y+2	; 0x02
    dc14:	2d 80       	ldd	r2, Y+5	; 0x05
    dc16:	3e 80       	ldd	r3, Y+6	; 0x06
    dc18:	28 0c       	add	r2, r8
    dc1a:	39 1c       	adc	r3, r9
    dc1c:	b1 01       	movw	r22, r2
    dc1e:	c5 01       	movw	r24, r10
    dc20:	9a dd       	rcall	.-1228   	; 0xd756 <ILI9486_drawPixel>
    dc22:	26 01       	movw	r4, r12
    dc24:	40 1a       	sub	r4, r16
    dc26:	51 0a       	sbc	r5, r17
    dc28:	49 81       	ldd	r20, Y+1	; 0x01
    dc2a:	5a 81       	ldd	r21, Y+2	; 0x02
    dc2c:	b1 01       	movw	r22, r2
    dc2e:	c2 01       	movw	r24, r4
    dc30:	92 dd       	rcall	.-1244   	; 0xd756 <ILI9486_drawPixel>
    dc32:	49 81       	ldd	r20, Y+1	; 0x01
    dc34:	5a 81       	ldd	r21, Y+2	; 0x02
    dc36:	14 01       	movw	r2, r8
    dc38:	8d 81       	ldd	r24, Y+5	; 0x05
    dc3a:	9e 81       	ldd	r25, Y+6	; 0x06
    dc3c:	28 1a       	sub	r2, r24
    dc3e:	39 0a       	sbc	r3, r25
    dc40:	b1 01       	movw	r22, r2
    dc42:	c5 01       	movw	r24, r10
    dc44:	88 dd       	rcall	.-1264   	; 0xd756 <ILI9486_drawPixel>
    dc46:	49 81       	ldd	r20, Y+1	; 0x01
    dc48:	5a 81       	ldd	r21, Y+2	; 0x02
    dc4a:	b1 01       	movw	r22, r2
    dc4c:	c2 01       	movw	r24, r4
    dc4e:	83 dd       	rcall	.-1274   	; 0xd756 <ILI9486_drawPixel>
    dc50:	54 01       	movw	r10, r8
    dc52:	a0 0e       	add	r10, r16
    dc54:	b1 1e       	adc	r11, r17
    dc56:	49 81       	ldd	r20, Y+1	; 0x01
    dc58:	5a 81       	ldd	r21, Y+2	; 0x02
    dc5a:	b5 01       	movw	r22, r10
    dc5c:	4d 80       	ldd	r4, Y+5	; 0x05
    dc5e:	5e 80       	ldd	r5, Y+6	; 0x06
    dc60:	4c 0c       	add	r4, r12
    dc62:	5d 1c       	adc	r5, r13
    dc64:	c2 01       	movw	r24, r4
    dc66:	77 dd       	rcall	.-1298   	; 0xd756 <ILI9486_drawPixel>
    dc68:	49 81       	ldd	r20, Y+1	; 0x01
    dc6a:	5a 81       	ldd	r21, Y+2	; 0x02
    dc6c:	b5 01       	movw	r22, r10
    dc6e:	16 01       	movw	r2, r12
    dc70:	2d 81       	ldd	r18, Y+5	; 0x05
    dc72:	3e 81       	ldd	r19, Y+6	; 0x06
    dc74:	22 1a       	sub	r2, r18
    dc76:	33 0a       	sbc	r3, r19
    dc78:	c1 01       	movw	r24, r2
    dc7a:	6d dd       	rcall	.-1318   	; 0xd756 <ILI9486_drawPixel>
    dc7c:	54 01       	movw	r10, r8
    dc7e:	a0 1a       	sub	r10, r16
    dc80:	b1 0a       	sbc	r11, r17
    dc82:	49 81       	ldd	r20, Y+1	; 0x01
    dc84:	5a 81       	ldd	r21, Y+2	; 0x02
    dc86:	b5 01       	movw	r22, r10
    dc88:	c2 01       	movw	r24, r4
    dc8a:	65 dd       	rcall	.-1334   	; 0xd756 <ILI9486_drawPixel>
    dc8c:	49 81       	ldd	r20, Y+1	; 0x01
    dc8e:	5a 81       	ldd	r21, Y+2	; 0x02
    dc90:	b5 01       	movw	r22, r10
    dc92:	c1 01       	movw	r24, r2
    dc94:	60 dd       	rcall	.-1344   	; 0xd756 <ILI9486_drawPixel>
    dc96:	8d 81       	ldd	r24, Y+5	; 0x05
    dc98:	9e 81       	ldd	r25, Y+6	; 0x06
    dc9a:	08 17       	cp	r16, r24
    dc9c:	19 07       	cpc	r17, r25
    dc9e:	0c f4       	brge	.+2      	; 0xdca2 <ILI9486_Draw_Circle+0x168>
    dca0:	9e cf       	rjmp	.-196    	; 0xdbde <ILI9486_Draw_Circle+0xa4>
    dca2:	26 96       	adiw	r28, 0x06	; 6
    dca4:	0f b6       	in	r0, 0x3f	; 63
    dca6:	f8 94       	cli
    dca8:	de bf       	out	0x3e, r29	; 62
    dcaa:	0f be       	out	0x3f, r0	; 63
    dcac:	cd bf       	out	0x3d, r28	; 61
    dcae:	df 91       	pop	r29
    dcb0:	cf 91       	pop	r28
    dcb2:	1f 91       	pop	r17
    dcb4:	0f 91       	pop	r16
    dcb6:	ff 90       	pop	r15
    dcb8:	ef 90       	pop	r14
    dcba:	df 90       	pop	r13
    dcbc:	cf 90       	pop	r12
    dcbe:	bf 90       	pop	r11
    dcc0:	af 90       	pop	r10
    dcc2:	9f 90       	pop	r9
    dcc4:	8f 90       	pop	r8
    dcc6:	7f 90       	pop	r7
    dcc8:	6f 90       	pop	r6
    dcca:	5f 90       	pop	r5
    dccc:	4f 90       	pop	r4
    dcce:	3f 90       	pop	r3
    dcd0:	2f 90       	pop	r2
    dcd2:	08 95       	ret

0000dcd4 <ILI9486_fillCircleHelper>:
    dcd4:	3f 92       	push	r3
    dcd6:	4f 92       	push	r4
    dcd8:	5f 92       	push	r5
    dcda:	6f 92       	push	r6
    dcdc:	7f 92       	push	r7
    dcde:	8f 92       	push	r8
    dce0:	9f 92       	push	r9
    dce2:	af 92       	push	r10
    dce4:	bf 92       	push	r11
    dce6:	cf 92       	push	r12
    dce8:	df 92       	push	r13
    dcea:	ef 92       	push	r14
    dcec:	ff 92       	push	r15
    dcee:	0f 93       	push	r16
    dcf0:	1f 93       	push	r17
    dcf2:	cf 93       	push	r28
    dcf4:	df 93       	push	r29
    dcf6:	00 d0       	rcall	.+0      	; 0xdcf8 <ILI9486_fillCircleHelper+0x24>
    dcf8:	1f 92       	push	r1
    dcfa:	cd b7       	in	r28, 0x3d	; 61
    dcfc:	de b7       	in	r29, 0x3e	; 62
    dcfe:	4c 01       	movw	r8, r24
    dd00:	5b 01       	movw	r10, r22
    dd02:	6a 01       	movw	r12, r20
    dd04:	32 2e       	mov	r3, r18
    dd06:	38 01       	movw	r6, r16
    dd08:	fa 82       	std	Y+2, r15	; 0x02
    dd0a:	e9 82       	std	Y+1, r14	; 0x01
    dd0c:	01 e0       	ldi	r16, 0x01	; 1
    dd0e:	10 e0       	ldi	r17, 0x00	; 0
    dd10:	04 1b       	sub	r16, r20
    dd12:	15 0b       	sbc	r17, r21
    dd14:	44 24       	eor	r4, r4
    dd16:	55 24       	eor	r5, r5
    dd18:	44 1a       	sub	r4, r20
    dd1a:	55 0a       	sbc	r5, r21
    dd1c:	44 0c       	add	r4, r4
    dd1e:	55 1c       	adc	r5, r5
    dd20:	1c 82       	std	Y+4, r1	; 0x04
    dd22:	1b 82       	std	Y+3, r1	; 0x03
    dd24:	ee 24       	eor	r14, r14
    dd26:	e3 94       	inc	r14
    dd28:	f1 2c       	mov	r15, r1
    dd2a:	61 c0       	rjmp	.+194    	; 0xddee <ILI9486_fillCircleHelper+0x11a>
    dd2c:	11 23       	and	r17, r17
    dd2e:	44 f0       	brlt	.+16     	; 0xdd40 <ILI9486_fillCircleHelper+0x6c>
    dd30:	81 e0       	ldi	r24, 0x01	; 1
    dd32:	c8 1a       	sub	r12, r24
    dd34:	d1 08       	sbc	r13, r1
    dd36:	92 e0       	ldi	r25, 0x02	; 2
    dd38:	49 0e       	add	r4, r25
    dd3a:	51 1c       	adc	r5, r1
    dd3c:	04 0d       	add	r16, r4
    dd3e:	15 1d       	adc	r17, r5
    dd40:	eb 81       	ldd	r30, Y+3	; 0x03
    dd42:	fc 81       	ldd	r31, Y+4	; 0x04
    dd44:	31 96       	adiw	r30, 0x01	; 1
    dd46:	fc 83       	std	Y+4, r31	; 0x04
    dd48:	eb 83       	std	Y+3, r30	; 0x03
    dd4a:	f2 e0       	ldi	r31, 0x02	; 2
    dd4c:	ef 0e       	add	r14, r31
    dd4e:	f1 1c       	adc	r15, r1
    dd50:	0e 0d       	add	r16, r14
    dd52:	1f 1d       	adc	r17, r15
    dd54:	30 fe       	sbrs	r3, 0
    dd56:	24 c0       	rjmp	.+72     	; 0xdda0 <ILI9486_fillCircleHelper+0xcc>
    dd58:	a6 01       	movw	r20, r12
    dd5a:	44 0f       	add	r20, r20
    dd5c:	55 1f       	adc	r21, r21
    dd5e:	4f 5f       	subi	r20, 0xFF	; 255
    dd60:	5f 4f       	sbci	r21, 0xFF	; 255
    dd62:	46 0d       	add	r20, r6
    dd64:	57 1d       	adc	r21, r7
    dd66:	29 81       	ldd	r18, Y+1	; 0x01
    dd68:	3a 81       	ldd	r19, Y+2	; 0x02
    dd6a:	b5 01       	movw	r22, r10
    dd6c:	6c 19       	sub	r22, r12
    dd6e:	7d 09       	sbc	r23, r13
    dd70:	8b 81       	ldd	r24, Y+3	; 0x03
    dd72:	9c 81       	ldd	r25, Y+4	; 0x04
    dd74:	88 0d       	add	r24, r8
    dd76:	99 1d       	adc	r25, r9
    dd78:	c5 dd       	rcall	.-1142   	; 0xd904 <ILI9486_DrawFastVLine>
    dd7a:	4b 81       	ldd	r20, Y+3	; 0x03
    dd7c:	5c 81       	ldd	r21, Y+4	; 0x04
    dd7e:	44 0f       	add	r20, r20
    dd80:	55 1f       	adc	r21, r21
    dd82:	4f 5f       	subi	r20, 0xFF	; 255
    dd84:	5f 4f       	sbci	r21, 0xFF	; 255
    dd86:	46 0d       	add	r20, r6
    dd88:	57 1d       	adc	r21, r7
    dd8a:	29 81       	ldd	r18, Y+1	; 0x01
    dd8c:	3a 81       	ldd	r19, Y+2	; 0x02
    dd8e:	b5 01       	movw	r22, r10
    dd90:	8b 81       	ldd	r24, Y+3	; 0x03
    dd92:	9c 81       	ldd	r25, Y+4	; 0x04
    dd94:	68 1b       	sub	r22, r24
    dd96:	79 0b       	sbc	r23, r25
    dd98:	c6 01       	movw	r24, r12
    dd9a:	88 0d       	add	r24, r8
    dd9c:	99 1d       	adc	r25, r9
    dd9e:	b2 dd       	rcall	.-1180   	; 0xd904 <ILI9486_DrawFastVLine>
    dda0:	31 fe       	sbrs	r3, 1
    dda2:	25 c0       	rjmp	.+74     	; 0xddee <ILI9486_fillCircleHelper+0x11a>
    dda4:	a6 01       	movw	r20, r12
    dda6:	44 0f       	add	r20, r20
    dda8:	55 1f       	adc	r21, r21
    ddaa:	4f 5f       	subi	r20, 0xFF	; 255
    ddac:	5f 4f       	sbci	r21, 0xFF	; 255
    ddae:	46 0d       	add	r20, r6
    ddb0:	57 1d       	adc	r21, r7
    ddb2:	29 81       	ldd	r18, Y+1	; 0x01
    ddb4:	3a 81       	ldd	r19, Y+2	; 0x02
    ddb6:	b5 01       	movw	r22, r10
    ddb8:	6c 19       	sub	r22, r12
    ddba:	7d 09       	sbc	r23, r13
    ddbc:	c4 01       	movw	r24, r8
    ddbe:	eb 81       	ldd	r30, Y+3	; 0x03
    ddc0:	fc 81       	ldd	r31, Y+4	; 0x04
    ddc2:	8e 1b       	sub	r24, r30
    ddc4:	9f 0b       	sbc	r25, r31
    ddc6:	9e dd       	rcall	.-1220   	; 0xd904 <ILI9486_DrawFastVLine>
    ddc8:	4b 81       	ldd	r20, Y+3	; 0x03
    ddca:	5c 81       	ldd	r21, Y+4	; 0x04
    ddcc:	44 0f       	add	r20, r20
    ddce:	55 1f       	adc	r21, r21
    ddd0:	4f 5f       	subi	r20, 0xFF	; 255
    ddd2:	5f 4f       	sbci	r21, 0xFF	; 255
    ddd4:	46 0d       	add	r20, r6
    ddd6:	57 1d       	adc	r21, r7
    ddd8:	29 81       	ldd	r18, Y+1	; 0x01
    ddda:	3a 81       	ldd	r19, Y+2	; 0x02
    dddc:	b5 01       	movw	r22, r10
    ddde:	8b 81       	ldd	r24, Y+3	; 0x03
    dde0:	9c 81       	ldd	r25, Y+4	; 0x04
    dde2:	68 1b       	sub	r22, r24
    dde4:	79 0b       	sbc	r23, r25
    dde6:	c4 01       	movw	r24, r8
    dde8:	8c 19       	sub	r24, r12
    ddea:	9d 09       	sbc	r25, r13
    ddec:	8b dd       	rcall	.-1258   	; 0xd904 <ILI9486_DrawFastVLine>
    ddee:	eb 81       	ldd	r30, Y+3	; 0x03
    ddf0:	fc 81       	ldd	r31, Y+4	; 0x04
    ddf2:	ec 15       	cp	r30, r12
    ddf4:	fd 05       	cpc	r31, r13
    ddf6:	0c f4       	brge	.+2      	; 0xddfa <ILI9486_fillCircleHelper+0x126>
    ddf8:	99 cf       	rjmp	.-206    	; 0xdd2c <ILI9486_fillCircleHelper+0x58>
    ddfa:	0f 90       	pop	r0
    ddfc:	0f 90       	pop	r0
    ddfe:	0f 90       	pop	r0
    de00:	0f 90       	pop	r0
    de02:	df 91       	pop	r29
    de04:	cf 91       	pop	r28
    de06:	1f 91       	pop	r17
    de08:	0f 91       	pop	r16
    de0a:	ff 90       	pop	r15
    de0c:	ef 90       	pop	r14
    de0e:	df 90       	pop	r13
    de10:	cf 90       	pop	r12
    de12:	bf 90       	pop	r11
    de14:	af 90       	pop	r10
    de16:	9f 90       	pop	r9
    de18:	8f 90       	pop	r8
    de1a:	7f 90       	pop	r7
    de1c:	6f 90       	pop	r6
    de1e:	5f 90       	pop	r5
    de20:	4f 90       	pop	r4
    de22:	3f 90       	pop	r3
    de24:	08 95       	ret

0000de26 <ILI9486_fillCircle>:
    de26:	af 92       	push	r10
    de28:	bf 92       	push	r11
    de2a:	cf 92       	push	r12
    de2c:	df 92       	push	r13
    de2e:	ef 92       	push	r14
    de30:	ff 92       	push	r15
    de32:	0f 93       	push	r16
    de34:	1f 93       	push	r17
    de36:	cf 93       	push	r28
    de38:	df 93       	push	r29
    de3a:	6c 01       	movw	r12, r24
    de3c:	5b 01       	movw	r10, r22
    de3e:	ea 01       	movw	r28, r20
    de40:	79 01       	movw	r14, r18
    de42:	44 0f       	add	r20, r20
    de44:	55 1f       	adc	r21, r21
    de46:	4f 5f       	subi	r20, 0xFF	; 255
    de48:	5f 4f       	sbci	r21, 0xFF	; 255
    de4a:	6c 1b       	sub	r22, r28
    de4c:	7d 0b       	sbc	r23, r29
    de4e:	5a dd       	rcall	.-1356   	; 0xd904 <ILI9486_DrawFastVLine>
    de50:	00 e0       	ldi	r16, 0x00	; 0
    de52:	10 e0       	ldi	r17, 0x00	; 0
    de54:	23 e0       	ldi	r18, 0x03	; 3
    de56:	ae 01       	movw	r20, r28
    de58:	b5 01       	movw	r22, r10
    de5a:	c6 01       	movw	r24, r12
    de5c:	3b df       	rcall	.-394    	; 0xdcd4 <ILI9486_fillCircleHelper>
    de5e:	df 91       	pop	r29
    de60:	cf 91       	pop	r28
    de62:	1f 91       	pop	r17
    de64:	0f 91       	pop	r16
    de66:	ff 90       	pop	r15
    de68:	ef 90       	pop	r14
    de6a:	df 90       	pop	r13
    de6c:	cf 90       	pop	r12
    de6e:	bf 90       	pop	r11
    de70:	af 90       	pop	r10
    de72:	08 95       	ret

0000de74 <ILI9486_DrawRect>:
    de74:	af 92       	push	r10
    de76:	bf 92       	push	r11
    de78:	cf 92       	push	r12
    de7a:	df 92       	push	r13
    de7c:	ef 92       	push	r14
    de7e:	ff 92       	push	r15
    de80:	0f 93       	push	r16
    de82:	1f 93       	push	r17
    de84:	cf 93       	push	r28
    de86:	df 93       	push	r29
    de88:	ec 01       	movw	r28, r24
    de8a:	7b 01       	movw	r14, r22
    de8c:	5a 01       	movw	r10, r20
    de8e:	69 01       	movw	r12, r18
    de90:	98 01       	movw	r18, r16
    de92:	5d dd       	rcall	.-1350   	; 0xd94e <ILI9486_DrawFastHLine>
    de94:	b7 01       	movw	r22, r14
    de96:	6c 0d       	add	r22, r12
    de98:	7d 1d       	adc	r23, r13
    de9a:	61 50       	subi	r22, 0x01	; 1
    de9c:	71 09       	sbc	r23, r1
    de9e:	98 01       	movw	r18, r16
    dea0:	a5 01       	movw	r20, r10
    dea2:	ce 01       	movw	r24, r28
    dea4:	54 dd       	rcall	.-1368   	; 0xd94e <ILI9486_DrawFastHLine>
    dea6:	98 01       	movw	r18, r16
    dea8:	a6 01       	movw	r20, r12
    deaa:	b7 01       	movw	r22, r14
    deac:	ce 01       	movw	r24, r28
    deae:	2a dd       	rcall	.-1452   	; 0xd904 <ILI9486_DrawFastVLine>
    deb0:	c5 01       	movw	r24, r10
    deb2:	8c 0f       	add	r24, r28
    deb4:	9d 1f       	adc	r25, r29
    deb6:	98 01       	movw	r18, r16
    deb8:	a6 01       	movw	r20, r12
    deba:	b7 01       	movw	r22, r14
    debc:	01 97       	sbiw	r24, 0x01	; 1
    debe:	22 dd       	rcall	.-1468   	; 0xd904 <ILI9486_DrawFastVLine>
    dec0:	df 91       	pop	r29
    dec2:	cf 91       	pop	r28
    dec4:	1f 91       	pop	r17
    dec6:	0f 91       	pop	r16
    dec8:	ff 90       	pop	r15
    deca:	ef 90       	pop	r14
    decc:	df 90       	pop	r13
    dece:	cf 90       	pop	r12
    ded0:	bf 90       	pop	r11
    ded2:	af 90       	pop	r10
    ded4:	08 95       	ret

0000ded6 <ILI9486_fillTriangle>:
    ded6:	2f 92       	push	r2
    ded8:	3f 92       	push	r3
    deda:	4f 92       	push	r4
    dedc:	5f 92       	push	r5
    dede:	6f 92       	push	r6
    dee0:	7f 92       	push	r7
    dee2:	8f 92       	push	r8
    dee4:	9f 92       	push	r9
    dee6:	af 92       	push	r10
    dee8:	bf 92       	push	r11
    deea:	cf 92       	push	r12
    deec:	df 92       	push	r13
    deee:	ef 92       	push	r14
    def0:	ff 92       	push	r15
    def2:	0f 93       	push	r16
    def4:	1f 93       	push	r17
    def6:	cf 93       	push	r28
    def8:	df 93       	push	r29
    defa:	cd b7       	in	r28, 0x3d	; 61
    defc:	de b7       	in	r29, 0x3e	; 62
    defe:	68 97       	sbiw	r28, 0x18	; 24
    df00:	0f b6       	in	r0, 0x3f	; 63
    df02:	f8 94       	cli
    df04:	de bf       	out	0x3e, r29	; 62
    df06:	0f be       	out	0x3f, r0	; 63
    df08:	cd bf       	out	0x3d, r28	; 61
    df0a:	1c 01       	movw	r2, r24
    df0c:	78 8b       	std	Y+16, r23	; 0x10
    df0e:	6f 87       	std	Y+15, r22	; 0x0f
    df10:	5e 83       	std	Y+6, r21	; 0x06
    df12:	4d 83       	std	Y+5, r20	; 0x05
    df14:	3e 87       	std	Y+14, r19	; 0x0e
    df16:	2d 87       	std	Y+13, r18	; 0x0d
    df18:	fc 86       	std	Y+12, r15	; 0x0c
    df1a:	eb 86       	std	Y+11, r14	; 0x0b
    df1c:	d8 86       	std	Y+8, r13	; 0x08
    df1e:	cf 82       	std	Y+7, r12	; 0x07
    df20:	26 17       	cp	r18, r22
    df22:	37 07       	cpc	r19, r23
    df24:	5c f4       	brge	.+22     	; 0xdf3c <ILI9486_fillTriangle+0x66>
    df26:	9f 85       	ldd	r25, Y+15	; 0x0f
    df28:	88 89       	ldd	r24, Y+16	; 0x10
    df2a:	38 8b       	std	Y+16, r19	; 0x10
    df2c:	2f 87       	std	Y+15, r18	; 0x0f
    df2e:	9d 87       	std	Y+13, r25	; 0x0d
    df30:	8e 87       	std	Y+14, r24	; 0x0e
    df32:	92 2d       	mov	r25, r2
    df34:	83 2d       	mov	r24, r3
    df36:	1a 01       	movw	r2, r20
    df38:	9d 83       	std	Y+5, r25	; 0x05
    df3a:	8e 83       	std	Y+6, r24	; 0x06
    df3c:	2d 85       	ldd	r18, Y+13	; 0x0d
    df3e:	3e 85       	ldd	r19, Y+14	; 0x0e
    df40:	4b 85       	ldd	r20, Y+11	; 0x0b
    df42:	5c 85       	ldd	r21, Y+12	; 0x0c
    df44:	42 17       	cp	r20, r18
    df46:	53 07       	cpc	r21, r19
    df48:	64 f4       	brge	.+24     	; 0xdf62 <ILI9486_fillTriangle+0x8c>
    df4a:	9d 85       	ldd	r25, Y+13	; 0x0d
    df4c:	8e 85       	ldd	r24, Y+14	; 0x0e
    df4e:	5e 87       	std	Y+14, r21	; 0x0e
    df50:	4d 87       	std	Y+13, r20	; 0x0d
    df52:	9b 87       	std	Y+11, r25	; 0x0b
    df54:	8c 87       	std	Y+12, r24	; 0x0c
    df56:	9d 81       	ldd	r25, Y+5	; 0x05
    df58:	8e 81       	ldd	r24, Y+6	; 0x06
    df5a:	1e 83       	std	Y+6, r17	; 0x06
    df5c:	0d 83       	std	Y+5, r16	; 0x05
    df5e:	09 2f       	mov	r16, r25
    df60:	18 2f       	mov	r17, r24
    df62:	8f 85       	ldd	r24, Y+15	; 0x0f
    df64:	98 89       	ldd	r25, Y+16	; 0x10
    df66:	ad 85       	ldd	r26, Y+13	; 0x0d
    df68:	be 85       	ldd	r27, Y+14	; 0x0e
    df6a:	a8 17       	cp	r26, r24
    df6c:	b9 07       	cpc	r27, r25
    df6e:	64 f4       	brge	.+24     	; 0xdf88 <ILI9486_fillTriangle+0xb2>
    df70:	9f 85       	ldd	r25, Y+15	; 0x0f
    df72:	88 89       	ldd	r24, Y+16	; 0x10
    df74:	b8 8b       	std	Y+16, r27	; 0x10
    df76:	af 87       	std	Y+15, r26	; 0x0f
    df78:	9d 87       	std	Y+13, r25	; 0x0d
    df7a:	8e 87       	std	Y+14, r24	; 0x0e
    df7c:	92 2d       	mov	r25, r2
    df7e:	83 2d       	mov	r24, r3
    df80:	2d 80       	ldd	r2, Y+5	; 0x05
    df82:	3e 80       	ldd	r3, Y+6	; 0x06
    df84:	9d 83       	std	Y+5, r25	; 0x05
    df86:	8e 83       	std	Y+6, r24	; 0x06
    df88:	ef 85       	ldd	r30, Y+15	; 0x0f
    df8a:	f8 89       	ldd	r31, Y+16	; 0x10
    df8c:	2b 85       	ldd	r18, Y+11	; 0x0b
    df8e:	3c 85       	ldd	r19, Y+12	; 0x0c
    df90:	e2 17       	cp	r30, r18
    df92:	f3 07       	cpc	r31, r19
    df94:	51 f5       	brne	.+84     	; 0xdfea <ILI9486_fillTriangle+0x114>
    df96:	4d 81       	ldd	r20, Y+5	; 0x05
    df98:	5e 81       	ldd	r21, Y+6	; 0x06
    df9a:	42 15       	cp	r20, r2
    df9c:	53 05       	cpc	r21, r3
    df9e:	64 f0       	brlt	.+24     	; 0xdfb8 <ILI9486_fillTriangle+0xe2>
    dfa0:	24 16       	cp	r2, r20
    dfa2:	35 06       	cpc	r3, r21
    dfa4:	1c f0       	brlt	.+6      	; 0xdfac <ILI9486_fillTriangle+0xd6>
    dfa6:	3e 82       	std	Y+6, r3	; 0x06
    dfa8:	2d 82       	std	Y+5, r2	; 0x05
    dfaa:	06 c0       	rjmp	.+12     	; 0xdfb8 <ILI9486_fillTriangle+0xe2>
    dfac:	9d 81       	ldd	r25, Y+5	; 0x05
    dfae:	8e 81       	ldd	r24, Y+6	; 0x06
    dfb0:	3e 82       	std	Y+6, r3	; 0x06
    dfb2:	2d 82       	std	Y+5, r2	; 0x05
    dfb4:	29 2e       	mov	r2, r25
    dfb6:	38 2e       	mov	r3, r24
    dfb8:	8d 81       	ldd	r24, Y+5	; 0x05
    dfba:	9e 81       	ldd	r25, Y+6	; 0x06
    dfbc:	08 17       	cp	r16, r24
    dfbe:	19 07       	cpc	r17, r25
    dfc0:	44 f0       	brlt	.+16     	; 0xdfd2 <ILI9486_fillTriangle+0xfc>
    dfc2:	20 16       	cp	r2, r16
    dfc4:	31 06       	cpc	r3, r17
    dfc6:	14 f0       	brlt	.+4      	; 0xdfcc <ILI9486_fillTriangle+0xf6>
    dfc8:	8c 01       	movw	r16, r24
    dfca:	03 c0       	rjmp	.+6      	; 0xdfd2 <ILI9486_fillTriangle+0xfc>
    dfcc:	18 01       	movw	r2, r16
    dfce:	0d 81       	ldd	r16, Y+5	; 0x05
    dfd0:	1e 81       	ldd	r17, Y+6	; 0x06
    dfd2:	a1 01       	movw	r20, r2
    dfd4:	40 1b       	sub	r20, r16
    dfd6:	51 0b       	sbc	r21, r17
    dfd8:	4f 5f       	subi	r20, 0xFF	; 255
    dfda:	5f 4f       	sbci	r21, 0xFF	; 255
    dfdc:	2f 81       	ldd	r18, Y+7	; 0x07
    dfde:	38 85       	ldd	r19, Y+8	; 0x08
    dfe0:	6f 85       	ldd	r22, Y+15	; 0x0f
    dfe2:	78 89       	ldd	r23, Y+16	; 0x10
    dfe4:	c8 01       	movw	r24, r16
    dfe6:	b3 dc       	rcall	.-1690   	; 0xd94e <ILI9486_DrawFastHLine>
    dfe8:	f2 c0       	rjmp	.+484    	; 0xe1ce <ILI9486_fillTriangle+0x2f8>
    dfea:	ad 81       	ldd	r26, Y+5	; 0x05
    dfec:	be 81       	ldd	r27, Y+6	; 0x06
    dfee:	a2 19       	sub	r26, r2
    dff0:	b3 09       	sbc	r27, r3
    dff2:	ba 8b       	std	Y+18, r27	; 0x12
    dff4:	a9 8b       	std	Y+17, r26	; 0x11
    dff6:	4d 84       	ldd	r4, Y+13	; 0x0d
    dff8:	5e 84       	ldd	r5, Y+14	; 0x0e
    dffa:	ef 85       	ldd	r30, Y+15	; 0x0f
    dffc:	f8 89       	ldd	r31, Y+16	; 0x10
    dffe:	4e 1a       	sub	r4, r30
    e000:	5f 0a       	sbc	r5, r31
    e002:	98 01       	movw	r18, r16
    e004:	22 19       	sub	r18, r2
    e006:	33 09       	sbc	r19, r3
    e008:	3a 83       	std	Y+2, r19	; 0x02
    e00a:	29 83       	std	Y+1, r18	; 0x01
    e00c:	4b 85       	ldd	r20, Y+11	; 0x0b
    e00e:	5c 85       	ldd	r21, Y+12	; 0x0c
    e010:	4e 1b       	sub	r20, r30
    e012:	5f 0b       	sbc	r21, r31
    e014:	5a 87       	std	Y+10, r21	; 0x0a
    e016:	49 87       	std	Y+9, r20	; 0x09
    e018:	c8 01       	movw	r24, r16
    e01a:	ad 81       	ldd	r26, Y+5	; 0x05
    e01c:	be 81       	ldd	r27, Y+6	; 0x06
    e01e:	8a 1b       	sub	r24, r26
    e020:	9b 0b       	sbc	r25, r27
    e022:	9e 8b       	std	Y+22, r25	; 0x16
    e024:	8d 8b       	std	Y+21, r24	; 0x15
    e026:	eb 85       	ldd	r30, Y+11	; 0x0b
    e028:	fc 85       	ldd	r31, Y+12	; 0x0c
    e02a:	2d 85       	ldd	r18, Y+13	; 0x0d
    e02c:	3e 85       	ldd	r19, Y+14	; 0x0e
    e02e:	e2 1b       	sub	r30, r18
    e030:	f3 0b       	sbc	r31, r19
    e032:	fc 8b       	std	Y+20, r31	; 0x14
    e034:	eb 8b       	std	Y+19, r30	; 0x13
    e036:	4b 85       	ldd	r20, Y+11	; 0x0b
    e038:	5c 85       	ldd	r21, Y+12	; 0x0c
    e03a:	24 17       	cp	r18, r20
    e03c:	35 07       	cpc	r19, r21
    e03e:	29 f0       	breq	.+10     	; 0xe04a <ILI9486_fillTriangle+0x174>
    e040:	39 01       	movw	r6, r18
    e042:	51 e0       	ldi	r21, 0x01	; 1
    e044:	65 1a       	sub	r6, r21
    e046:	71 08       	sbc	r7, r1
    e048:	02 c0       	rjmp	.+4      	; 0xe04e <ILI9486_fillTriangle+0x178>
    e04a:	6d 84       	ldd	r6, Y+13	; 0x0d
    e04c:	7e 84       	ldd	r7, Y+14	; 0x0e
    e04e:	0f 85       	ldd	r16, Y+15	; 0x0f
    e050:	18 89       	ldd	r17, Y+16	; 0x10
    e052:	81 2c       	mov	r8, r1
    e054:	91 2c       	mov	r9, r1
    e056:	54 01       	movw	r10, r8
    e058:	c1 2c       	mov	r12, r1
    e05a:	d1 2c       	mov	r13, r1
    e05c:	76 01       	movw	r14, r12
    e05e:	45 c0       	rjmp	.+138    	; 0xe0ea <ILI9486_fillTriangle+0x214>
    e060:	c7 01       	movw	r24, r14
    e062:	b6 01       	movw	r22, r12
    e064:	92 01       	movw	r18, r4
    e066:	05 2c       	mov	r0, r5
    e068:	00 0c       	add	r0, r0
    e06a:	44 0b       	sbc	r20, r20
    e06c:	55 0b       	sbc	r21, r21
    e06e:	0e 94 86 9d 	call	0x13b0c	; 0x13b0c <__divmodsi4>
    e072:	c1 01       	movw	r24, r2
    e074:	82 0f       	add	r24, r18
    e076:	93 1f       	adc	r25, r19
    e078:	98 8f       	std	Y+24, r25	; 0x18
    e07a:	8f 8b       	std	Y+23, r24	; 0x17
    e07c:	c5 01       	movw	r24, r10
    e07e:	b4 01       	movw	r22, r8
    e080:	a9 85       	ldd	r26, Y+9	; 0x09
    e082:	ba 85       	ldd	r27, Y+10	; 0x0a
    e084:	9d 01       	movw	r18, r26
    e086:	bb 0f       	add	r27, r27
    e088:	44 0b       	sbc	r20, r20
    e08a:	55 0b       	sbc	r21, r21
    e08c:	0e 94 86 9d 	call	0x13b0c	; 0x13b0c <__divmodsi4>
    e090:	c1 01       	movw	r24, r2
    e092:	82 0f       	add	r24, r18
    e094:	93 1f       	adc	r25, r19
    e096:	e9 89       	ldd	r30, Y+17	; 0x11
    e098:	fa 89       	ldd	r31, Y+18	; 0x12
    e09a:	af 01       	movw	r20, r30
    e09c:	ff 0f       	add	r31, r31
    e09e:	66 0b       	sbc	r22, r22
    e0a0:	77 0b       	sbc	r23, r23
    e0a2:	c4 0e       	add	r12, r20
    e0a4:	d5 1e       	adc	r13, r21
    e0a6:	e6 1e       	adc	r14, r22
    e0a8:	f7 1e       	adc	r15, r23
    e0aa:	29 81       	ldd	r18, Y+1	; 0x01
    e0ac:	3a 81       	ldd	r19, Y+2	; 0x02
    e0ae:	a9 01       	movw	r20, r18
    e0b0:	33 0f       	add	r19, r19
    e0b2:	66 0b       	sbc	r22, r22
    e0b4:	77 0b       	sbc	r23, r23
    e0b6:	84 0e       	add	r8, r20
    e0b8:	95 1e       	adc	r9, r21
    e0ba:	a6 1e       	adc	r10, r22
    e0bc:	b7 1e       	adc	r11, r23
    e0be:	4f 89       	ldd	r20, Y+23	; 0x17
    e0c0:	58 8d       	ldd	r21, Y+24	; 0x18
    e0c2:	84 17       	cp	r24, r20
    e0c4:	95 07       	cpc	r25, r21
    e0c6:	2c f0       	brlt	.+10     	; 0xe0d2 <ILI9486_fillTriangle+0x1fc>
    e0c8:	38 2f       	mov	r19, r24
    e0ca:	29 2f       	mov	r18, r25
    e0cc:	ca 01       	movw	r24, r20
    e0ce:	3f 8b       	std	Y+23, r19	; 0x17
    e0d0:	28 8f       	std	Y+24, r18	; 0x18
    e0d2:	4f 89       	ldd	r20, Y+23	; 0x17
    e0d4:	58 8d       	ldd	r21, Y+24	; 0x18
    e0d6:	48 1b       	sub	r20, r24
    e0d8:	59 0b       	sbc	r21, r25
    e0da:	4f 5f       	subi	r20, 0xFF	; 255
    e0dc:	5f 4f       	sbci	r21, 0xFF	; 255
    e0de:	2f 81       	ldd	r18, Y+7	; 0x07
    e0e0:	38 85       	ldd	r19, Y+8	; 0x08
    e0e2:	b8 01       	movw	r22, r16
    e0e4:	34 dc       	rcall	.-1944   	; 0xd94e <ILI9486_DrawFastHLine>
    e0e6:	0f 5f       	subi	r16, 0xFF	; 255
    e0e8:	1f 4f       	sbci	r17, 0xFF	; 255
    e0ea:	60 16       	cp	r6, r16
    e0ec:	71 06       	cpc	r7, r17
    e0ee:	0c f0       	brlt	.+2      	; 0xe0f2 <ILI9486_fillTriangle+0x21c>
    e0f0:	b7 cf       	rjmp	.-146    	; 0xe060 <ILI9486_fillTriangle+0x18a>
    e0f2:	8d 89       	ldd	r24, Y+21	; 0x15
    e0f4:	9e 89       	ldd	r25, Y+22	; 0x16
    e0f6:	2c 01       	movw	r4, r24
    e0f8:	99 0f       	add	r25, r25
    e0fa:	66 08       	sbc	r6, r6
    e0fc:	77 08       	sbc	r7, r7
    e0fe:	d8 01       	movw	r26, r16
    e100:	ed 85       	ldd	r30, Y+13	; 0x0d
    e102:	fe 85       	ldd	r31, Y+14	; 0x0e
    e104:	ae 1b       	sub	r26, r30
    e106:	bf 0b       	sbc	r27, r31
    e108:	a3 01       	movw	r20, r6
    e10a:	92 01       	movw	r18, r4
    e10c:	0e 94 b4 9d 	call	0x13b68	; 0x13b68 <__mulshisi3>
    e110:	4b 01       	movw	r8, r22
    e112:	5c 01       	movw	r10, r24
    e114:	29 81       	ldd	r18, Y+1	; 0x01
    e116:	3a 81       	ldd	r19, Y+2	; 0x02
    e118:	03 2e       	mov	r0, r19
    e11a:	00 0c       	add	r0, r0
    e11c:	44 0b       	sbc	r20, r20
    e11e:	55 0b       	sbc	r21, r21
    e120:	29 83       	std	Y+1, r18	; 0x01
    e122:	3a 83       	std	Y+2, r19	; 0x02
    e124:	4b 83       	std	Y+3, r20	; 0x03
    e126:	5c 83       	std	Y+4, r21	; 0x04
    e128:	d8 01       	movw	r26, r16
    e12a:	4f 85       	ldd	r20, Y+15	; 0x0f
    e12c:	58 89       	ldd	r21, Y+16	; 0x10
    e12e:	a4 1b       	sub	r26, r20
    e130:	b5 0b       	sbc	r27, r21
    e132:	29 81       	ldd	r18, Y+1	; 0x01
    e134:	3a 81       	ldd	r19, Y+2	; 0x02
    e136:	4b 81       	ldd	r20, Y+3	; 0x03
    e138:	5c 81       	ldd	r21, Y+4	; 0x04
    e13a:	0e 94 b4 9d 	call	0x13b68	; 0x13b68 <__mulshisi3>
    e13e:	6b 01       	movw	r12, r22
    e140:	7c 01       	movw	r14, r24
    e142:	3f c0       	rjmp	.+126    	; 0xe1c2 <ILI9486_fillTriangle+0x2ec>
    e144:	c5 01       	movw	r24, r10
    e146:	b4 01       	movw	r22, r8
    e148:	ab 89       	ldd	r26, Y+19	; 0x13
    e14a:	bc 89       	ldd	r27, Y+20	; 0x14
    e14c:	9d 01       	movw	r18, r26
    e14e:	bb 0f       	add	r27, r27
    e150:	44 0b       	sbc	r20, r20
    e152:	55 0b       	sbc	r21, r21
    e154:	0e 94 86 9d 	call	0x13b0c	; 0x13b0c <__divmodsi4>
    e158:	ed 81       	ldd	r30, Y+5	; 0x05
    e15a:	fe 81       	ldd	r31, Y+6	; 0x06
    e15c:	e2 0f       	add	r30, r18
    e15e:	f3 1f       	adc	r31, r19
    e160:	fe 87       	std	Y+14, r31	; 0x0e
    e162:	ed 87       	std	Y+13, r30	; 0x0d
    e164:	c7 01       	movw	r24, r14
    e166:	b6 01       	movw	r22, r12
    e168:	a9 85       	ldd	r26, Y+9	; 0x09
    e16a:	ba 85       	ldd	r27, Y+10	; 0x0a
    e16c:	9d 01       	movw	r18, r26
    e16e:	bb 0f       	add	r27, r27
    e170:	44 0b       	sbc	r20, r20
    e172:	55 0b       	sbc	r21, r21
    e174:	0e 94 86 9d 	call	0x13b0c	; 0x13b0c <__divmodsi4>
    e178:	c1 01       	movw	r24, r2
    e17a:	82 0f       	add	r24, r18
    e17c:	93 1f       	adc	r25, r19
    e17e:	84 0c       	add	r8, r4
    e180:	95 1c       	adc	r9, r5
    e182:	a6 1c       	adc	r10, r6
    e184:	b7 1c       	adc	r11, r7
    e186:	29 81       	ldd	r18, Y+1	; 0x01
    e188:	3a 81       	ldd	r19, Y+2	; 0x02
    e18a:	4b 81       	ldd	r20, Y+3	; 0x03
    e18c:	5c 81       	ldd	r21, Y+4	; 0x04
    e18e:	c2 0e       	add	r12, r18
    e190:	d3 1e       	adc	r13, r19
    e192:	e4 1e       	adc	r14, r20
    e194:	f5 1e       	adc	r15, r21
    e196:	4d 85       	ldd	r20, Y+13	; 0x0d
    e198:	5e 85       	ldd	r21, Y+14	; 0x0e
    e19a:	84 17       	cp	r24, r20
    e19c:	95 07       	cpc	r25, r21
    e19e:	2c f0       	brlt	.+10     	; 0xe1aa <ILI9486_fillTriangle+0x2d4>
    e1a0:	38 2f       	mov	r19, r24
    e1a2:	29 2f       	mov	r18, r25
    e1a4:	ca 01       	movw	r24, r20
    e1a6:	3d 87       	std	Y+13, r19	; 0x0d
    e1a8:	2e 87       	std	Y+14, r18	; 0x0e
    e1aa:	4d 85       	ldd	r20, Y+13	; 0x0d
    e1ac:	5e 85       	ldd	r21, Y+14	; 0x0e
    e1ae:	48 1b       	sub	r20, r24
    e1b0:	59 0b       	sbc	r21, r25
    e1b2:	4f 5f       	subi	r20, 0xFF	; 255
    e1b4:	5f 4f       	sbci	r21, 0xFF	; 255
    e1b6:	2f 81       	ldd	r18, Y+7	; 0x07
    e1b8:	38 85       	ldd	r19, Y+8	; 0x08
    e1ba:	b8 01       	movw	r22, r16
    e1bc:	c8 db       	rcall	.-2160   	; 0xd94e <ILI9486_DrawFastHLine>
    e1be:	0f 5f       	subi	r16, 0xFF	; 255
    e1c0:	1f 4f       	sbci	r17, 0xFF	; 255
    e1c2:	8b 85       	ldd	r24, Y+11	; 0x0b
    e1c4:	9c 85       	ldd	r25, Y+12	; 0x0c
    e1c6:	80 17       	cp	r24, r16
    e1c8:	91 07       	cpc	r25, r17
    e1ca:	0c f0       	brlt	.+2      	; 0xe1ce <ILI9486_fillTriangle+0x2f8>
    e1cc:	bb cf       	rjmp	.-138    	; 0xe144 <ILI9486_fillTriangle+0x26e>
    e1ce:	68 96       	adiw	r28, 0x18	; 24
    e1d0:	0f b6       	in	r0, 0x3f	; 63
    e1d2:	f8 94       	cli
    e1d4:	de bf       	out	0x3e, r29	; 62
    e1d6:	0f be       	out	0x3f, r0	; 63
    e1d8:	cd bf       	out	0x3d, r28	; 61
    e1da:	df 91       	pop	r29
    e1dc:	cf 91       	pop	r28
    e1de:	1f 91       	pop	r17
    e1e0:	0f 91       	pop	r16
    e1e2:	ff 90       	pop	r15
    e1e4:	ef 90       	pop	r14
    e1e6:	df 90       	pop	r13
    e1e8:	cf 90       	pop	r12
    e1ea:	bf 90       	pop	r11
    e1ec:	af 90       	pop	r10
    e1ee:	9f 90       	pop	r9
    e1f0:	8f 90       	pop	r8
    e1f2:	7f 90       	pop	r7
    e1f4:	6f 90       	pop	r6
    e1f6:	5f 90       	pop	r5
    e1f8:	4f 90       	pop	r4
    e1fa:	3f 90       	pop	r3
    e1fc:	2f 90       	pop	r2
    e1fe:	08 95       	ret

0000e200 <ILI9486_SetTextColor>:
    e200:	90 93 56 04 	sts	0x0456, r25	; 0x800456 <POINT_COLOR+0x1>
    e204:	80 93 55 04 	sts	0x0455, r24	; 0x800455 <POINT_COLOR>
    e208:	70 93 54 04 	sts	0x0454, r23	; 0x800454 <BACK_COLOR+0x1>
    e20c:	60 93 53 04 	sts	0x0453, r22	; 0x800453 <BACK_COLOR>
    e210:	08 95       	ret

0000e212 <ILI9486_Print_Char14x24>:
    e212:	bf 92       	push	r11
    e214:	cf 92       	push	r12
    e216:	df 92       	push	r13
    e218:	ef 92       	push	r14
    e21a:	ff 92       	push	r15
    e21c:	0f 93       	push	r16
    e21e:	1f 93       	push	r17
    e220:	cf 93       	push	r28
    e222:	df 93       	push	r29
    e224:	e0 91 e0 03 	lds	r30, 0x03E0	; 0x8003e0 <X_SIZE>
    e228:	f0 91 e1 03 	lds	r31, 0x03E1	; 0x8003e1 <X_SIZE+0x1>
    e22c:	3e 97       	sbiw	r30, 0x0e	; 14
    e22e:	e8 17       	cp	r30, r24
    e230:	f9 07       	cpc	r31, r25
    e232:	08 f4       	brcc	.+2      	; 0xe236 <ILI9486_Print_Char14x24+0x24>
    e234:	9b c0       	rjmp	.+310    	; 0xe36c <ILI9486_Print_Char14x24+0x15a>
    e236:	e0 91 de 03 	lds	r30, 0x03DE	; 0x8003de <__data_end>
    e23a:	f0 91 df 03 	lds	r31, 0x03DF	; 0x8003df <__data_end+0x1>
    e23e:	78 97       	sbiw	r30, 0x18	; 24
    e240:	e6 17       	cp	r30, r22
    e242:	f7 07       	cpc	r31, r23
    e244:	08 f4       	brcc	.+2      	; 0xe248 <ILI9486_Print_Char14x24+0x36>
    e246:	92 c0       	rjmp	.+292    	; 0xe36c <ILI9486_Print_Char14x24+0x15a>
    e248:	b2 2e       	mov	r11, r18
    e24a:	d4 2e       	mov	r13, r20
    e24c:	8b 01       	movw	r16, r22
    e24e:	ec 01       	movw	r28, r24
    e250:	9b 01       	movw	r18, r22
    e252:	29 5e       	subi	r18, 0xE9	; 233
    e254:	3f 4f       	sbci	r19, 0xFF	; 255
    e256:	ac 01       	movw	r20, r24
    e258:	41 5f       	subi	r20, 0xF1	; 241
    e25a:	5f 4f       	sbci	r21, 0xFF	; 255
    e25c:	1f da       	rcall	.-3010   	; 0xd69c <ILI9486_SetAddrWindow>
    e25e:	c1 2c       	mov	r12, r1
    e260:	82 c0       	rjmp	.+260    	; 0xe366 <ILI9486_Print_Char14x24+0x154>
    e262:	80 e2       	ldi	r24, 0x20	; 32
    e264:	d8 16       	cp	r13, r24
    e266:	c9 f0       	breq	.+50     	; 0xe29a <ILI9486_Print_Char14x24+0x88>
    e268:	2d 2d       	mov	r18, r13
    e26a:	30 e0       	ldi	r19, 0x00	; 0
    e26c:	21 54       	subi	r18, 0x41	; 65
    e26e:	31 09       	sbc	r19, r1
    e270:	8a e2       	ldi	r24, 0x2A	; 42
    e272:	82 9f       	mul	r24, r18
    e274:	f0 01       	movw	r30, r0
    e276:	83 9f       	mul	r24, r19
    e278:	f0 0d       	add	r31, r0
    e27a:	11 24       	eor	r1, r1
    e27c:	8f 2d       	mov	r24, r15
    e27e:	90 e0       	ldi	r25, 0x00	; 0
    e280:	9c 01       	movw	r18, r24
    e282:	22 0f       	add	r18, r18
    e284:	33 1f       	adc	r19, r19
    e286:	82 0f       	add	r24, r18
    e288:	93 1f       	adc	r25, r19
    e28a:	e8 0f       	add	r30, r24
    e28c:	f9 1f       	adc	r31, r25
    e28e:	ec 0d       	add	r30, r12
    e290:	f1 1d       	adc	r31, r1
    e292:	e6 50       	subi	r30, 0x06	; 6
    e294:	f4 43       	sbci	r31, 0x34	; 52
    e296:	84 91       	lpm	r24, Z
    e298:	01 c0       	rjmp	.+2      	; 0xe29c <ILI9486_Print_Char14x24+0x8a>
    e29a:	80 e0       	ldi	r24, 0x00	; 0
    e29c:	a8 95       	wdr
    e29e:	b1 10       	cpse	r11, r1
    e2a0:	35 c0       	rjmp	.+106    	; 0xe30c <ILI9486_Print_Char14x24+0xfa>
    e2a2:	6e 2d       	mov	r22, r14
    e2a4:	70 e0       	ldi	r23, 0x00	; 0
    e2a6:	90 e0       	ldi	r25, 0x00	; 0
    e2a8:	0e 2c       	mov	r0, r14
    e2aa:	02 c0       	rjmp	.+4      	; 0xe2b0 <ILI9486_Print_Char14x24+0x9e>
    e2ac:	95 95       	asr	r25
    e2ae:	87 95       	ror	r24
    e2b0:	0a 94       	dec	r0
    e2b2:	e2 f7       	brpl	.-8      	; 0xe2ac <ILI9486_Print_Char14x24+0x9a>
    e2b4:	80 ff       	sbrs	r24, 0
    e2b6:	15 c0       	rjmp	.+42     	; 0xe2e2 <ILI9486_Print_Char14x24+0xd0>
    e2b8:	8c 2d       	mov	r24, r12
    e2ba:	90 e0       	ldi	r25, 0x00	; 0
    e2bc:	88 0f       	add	r24, r24
    e2be:	99 1f       	adc	r25, r25
    e2c0:	88 0f       	add	r24, r24
    e2c2:	99 1f       	adc	r25, r25
    e2c4:	88 0f       	add	r24, r24
    e2c6:	99 1f       	adc	r25, r25
    e2c8:	68 0f       	add	r22, r24
    e2ca:	79 1f       	adc	r23, r25
    e2cc:	40 91 55 04 	lds	r20, 0x0455	; 0x800455 <POINT_COLOR>
    e2d0:	50 91 56 04 	lds	r21, 0x0456	; 0x800456 <POINT_COLOR+0x1>
    e2d4:	60 0f       	add	r22, r16
    e2d6:	71 1f       	adc	r23, r17
    e2d8:	ce 01       	movw	r24, r28
    e2da:	8f 0d       	add	r24, r15
    e2dc:	91 1d       	adc	r25, r1
    e2de:	3b da       	rcall	.-2954   	; 0xd756 <ILI9486_drawPixel>
    e2e0:	34 c0       	rjmp	.+104    	; 0xe34a <ILI9486_Print_Char14x24+0x138>
    e2e2:	8c 2d       	mov	r24, r12
    e2e4:	90 e0       	ldi	r25, 0x00	; 0
    e2e6:	88 0f       	add	r24, r24
    e2e8:	99 1f       	adc	r25, r25
    e2ea:	88 0f       	add	r24, r24
    e2ec:	99 1f       	adc	r25, r25
    e2ee:	88 0f       	add	r24, r24
    e2f0:	99 1f       	adc	r25, r25
    e2f2:	68 0f       	add	r22, r24
    e2f4:	79 1f       	adc	r23, r25
    e2f6:	40 91 53 04 	lds	r20, 0x0453	; 0x800453 <BACK_COLOR>
    e2fa:	50 91 54 04 	lds	r21, 0x0454	; 0x800454 <BACK_COLOR+0x1>
    e2fe:	60 0f       	add	r22, r16
    e300:	71 1f       	adc	r23, r17
    e302:	ce 01       	movw	r24, r28
    e304:	8f 0d       	add	r24, r15
    e306:	91 1d       	adc	r25, r1
    e308:	26 da       	rcall	.-2996   	; 0xd756 <ILI9486_drawPixel>
    e30a:	1f c0       	rjmp	.+62     	; 0xe34a <ILI9486_Print_Char14x24+0x138>
    e30c:	2e 2d       	mov	r18, r14
    e30e:	30 e0       	ldi	r19, 0x00	; 0
    e310:	90 e0       	ldi	r25, 0x00	; 0
    e312:	0e 2c       	mov	r0, r14
    e314:	02 c0       	rjmp	.+4      	; 0xe31a <ILI9486_Print_Char14x24+0x108>
    e316:	95 95       	asr	r25
    e318:	87 95       	ror	r24
    e31a:	0a 94       	dec	r0
    e31c:	e2 f7       	brpl	.-8      	; 0xe316 <ILI9486_Print_Char14x24+0x104>
    e31e:	80 ff       	sbrs	r24, 0
    e320:	14 c0       	rjmp	.+40     	; 0xe34a <ILI9486_Print_Char14x24+0x138>
    e322:	6c 2d       	mov	r22, r12
    e324:	70 e0       	ldi	r23, 0x00	; 0
    e326:	66 0f       	add	r22, r22
    e328:	77 1f       	adc	r23, r23
    e32a:	66 0f       	add	r22, r22
    e32c:	77 1f       	adc	r23, r23
    e32e:	66 0f       	add	r22, r22
    e330:	77 1f       	adc	r23, r23
    e332:	62 0f       	add	r22, r18
    e334:	73 1f       	adc	r23, r19
    e336:	40 91 55 04 	lds	r20, 0x0455	; 0x800455 <POINT_COLOR>
    e33a:	50 91 56 04 	lds	r21, 0x0456	; 0x800456 <POINT_COLOR+0x1>
    e33e:	60 0f       	add	r22, r16
    e340:	71 1f       	adc	r23, r17
    e342:	ce 01       	movw	r24, r28
    e344:	8f 0d       	add	r24, r15
    e346:	91 1d       	adc	r25, r1
    e348:	06 da       	rcall	.-3060   	; 0xd756 <ILI9486_drawPixel>
    e34a:	f3 94       	inc	r15
    e34c:	01 c0       	rjmp	.+2      	; 0xe350 <ILI9486_Print_Char14x24+0x13e>
    e34e:	f1 2c       	mov	r15, r1
    e350:	8d e0       	ldi	r24, 0x0D	; 13
    e352:	8f 15       	cp	r24, r15
    e354:	08 f0       	brcs	.+2      	; 0xe358 <ILI9486_Print_Char14x24+0x146>
    e356:	85 cf       	rjmp	.-246    	; 0xe262 <ILI9486_Print_Char14x24+0x50>
    e358:	e3 94       	inc	r14
    e35a:	01 c0       	rjmp	.+2      	; 0xe35e <ILI9486_Print_Char14x24+0x14c>
    e35c:	e1 2c       	mov	r14, r1
    e35e:	87 e0       	ldi	r24, 0x07	; 7
    e360:	8e 15       	cp	r24, r14
    e362:	a8 f7       	brcc	.-22     	; 0xe34e <ILI9486_Print_Char14x24+0x13c>
    e364:	c3 94       	inc	r12
    e366:	82 e0       	ldi	r24, 0x02	; 2
    e368:	8c 15       	cp	r24, r12
    e36a:	c0 f7       	brcc	.-16     	; 0xe35c <ILI9486_Print_Char14x24+0x14a>
    e36c:	df 91       	pop	r29
    e36e:	cf 91       	pop	r28
    e370:	1f 91       	pop	r17
    e372:	0f 91       	pop	r16
    e374:	ff 90       	pop	r15
    e376:	ef 90       	pop	r14
    e378:	df 90       	pop	r13
    e37a:	cf 90       	pop	r12
    e37c:	bf 90       	pop	r11
    e37e:	08 95       	ret

0000e380 <ILI9486_Print_Char18x32>:
    e380:	bf 92       	push	r11
    e382:	cf 92       	push	r12
    e384:	df 92       	push	r13
    e386:	ef 92       	push	r14
    e388:	ff 92       	push	r15
    e38a:	0f 93       	push	r16
    e38c:	1f 93       	push	r17
    e38e:	cf 93       	push	r28
    e390:	df 93       	push	r29
    e392:	e0 91 e0 03 	lds	r30, 0x03E0	; 0x8003e0 <X_SIZE>
    e396:	f0 91 e1 03 	lds	r31, 0x03E1	; 0x8003e1 <X_SIZE+0x1>
    e39a:	72 97       	sbiw	r30, 0x12	; 18
    e39c:	e8 17       	cp	r30, r24
    e39e:	f9 07       	cpc	r31, r25
    e3a0:	08 f4       	brcc	.+2      	; 0xe3a4 <ILI9486_Print_Char18x32+0x24>
    e3a2:	9a c0       	rjmp	.+308    	; 0xe4d8 <ILI9486_Print_Char18x32+0x158>
    e3a4:	e0 91 de 03 	lds	r30, 0x03DE	; 0x8003de <__data_end>
    e3a8:	f0 91 df 03 	lds	r31, 0x03DF	; 0x8003df <__data_end+0x1>
    e3ac:	b0 97       	sbiw	r30, 0x20	; 32
    e3ae:	e6 17       	cp	r30, r22
    e3b0:	f7 07       	cpc	r31, r23
    e3b2:	08 f4       	brcc	.+2      	; 0xe3b6 <ILI9486_Print_Char18x32+0x36>
    e3b4:	91 c0       	rjmp	.+290    	; 0xe4d8 <ILI9486_Print_Char18x32+0x158>
    e3b6:	b2 2e       	mov	r11, r18
    e3b8:	c4 2e       	mov	r12, r20
    e3ba:	8b 01       	movw	r16, r22
    e3bc:	ec 01       	movw	r28, r24
    e3be:	9b 01       	movw	r18, r22
    e3c0:	21 5e       	subi	r18, 0xE1	; 225
    e3c2:	3f 4f       	sbci	r19, 0xFF	; 255
    e3c4:	ac 01       	movw	r20, r24
    e3c6:	4f 5e       	subi	r20, 0xEF	; 239
    e3c8:	5f 4f       	sbci	r21, 0xFF	; 255
    e3ca:	68 d9       	rcall	.-3376   	; 0xd69c <ILI9486_SetAddrWindow>
    e3cc:	d1 2c       	mov	r13, r1
    e3ce:	7d c0       	rjmp	.+250    	; 0xe4ca <ILI9486_Print_Char18x32+0x14a>
    e3d0:	ec 2d       	mov	r30, r12
    e3d2:	f0 e0       	ldi	r31, 0x00	; 0
    e3d4:	b0 97       	sbiw	r30, 0x20	; 32
    e3d6:	ee 0f       	add	r30, r30
    e3d8:	ff 1f       	adc	r31, r31
    e3da:	cf 01       	movw	r24, r30
    e3dc:	88 0f       	add	r24, r24
    e3de:	99 1f       	adc	r25, r25
    e3e0:	88 0f       	add	r24, r24
    e3e2:	99 1f       	adc	r25, r25
    e3e4:	88 0f       	add	r24, r24
    e3e6:	99 1f       	adc	r25, r25
    e3e8:	e8 0f       	add	r30, r24
    e3ea:	f9 1f       	adc	r31, r25
    e3ec:	ef 0d       	add	r30, r15
    e3ee:	f1 1d       	adc	r31, r1
    e3f0:	ee 0f       	add	r30, r30
    e3f2:	ff 1f       	adc	r31, r31
    e3f4:	ee 0f       	add	r30, r30
    e3f6:	ff 1f       	adc	r31, r31
    e3f8:	8d 2d       	mov	r24, r13
    e3fa:	90 e0       	ldi	r25, 0x00	; 0
    e3fc:	e8 0f       	add	r30, r24
    e3fe:	f9 1f       	adc	r31, r25
    e400:	e6 50       	subi	r30, 0x06	; 6
    e402:	ff 44       	sbci	r31, 0x4F	; 79
    e404:	24 91       	lpm	r18, Z
    e406:	a8 95       	wdr
    e408:	b1 10       	cpse	r11, r1
    e40a:	33 c0       	rjmp	.+102    	; 0xe472 <ILI9486_Print_Char18x32+0xf2>
    e40c:	4e 2d       	mov	r20, r14
    e40e:	50 e0       	ldi	r21, 0x00	; 0
    e410:	30 e0       	ldi	r19, 0x00	; 0
    e412:	0e 2c       	mov	r0, r14
    e414:	02 c0       	rjmp	.+4      	; 0xe41a <ILI9486_Print_Char18x32+0x9a>
    e416:	35 95       	asr	r19
    e418:	27 95       	ror	r18
    e41a:	0a 94       	dec	r0
    e41c:	e2 f7       	brpl	.-8      	; 0xe416 <ILI9486_Print_Char18x32+0x96>
    e41e:	20 ff       	sbrs	r18, 0
    e420:	14 c0       	rjmp	.+40     	; 0xe44a <ILI9486_Print_Char18x32+0xca>
    e422:	bc 01       	movw	r22, r24
    e424:	66 0f       	add	r22, r22
    e426:	77 1f       	adc	r23, r23
    e428:	66 0f       	add	r22, r22
    e42a:	77 1f       	adc	r23, r23
    e42c:	66 0f       	add	r22, r22
    e42e:	77 1f       	adc	r23, r23
    e430:	64 0f       	add	r22, r20
    e432:	75 1f       	adc	r23, r21
    e434:	40 91 55 04 	lds	r20, 0x0455	; 0x800455 <POINT_COLOR>
    e438:	50 91 56 04 	lds	r21, 0x0456	; 0x800456 <POINT_COLOR+0x1>
    e43c:	60 0f       	add	r22, r16
    e43e:	71 1f       	adc	r23, r17
    e440:	ce 01       	movw	r24, r28
    e442:	8f 0d       	add	r24, r15
    e444:	91 1d       	adc	r25, r1
    e446:	87 d9       	rcall	.-3314   	; 0xd756 <ILI9486_drawPixel>
    e448:	32 c0       	rjmp	.+100    	; 0xe4ae <ILI9486_Print_Char18x32+0x12e>
    e44a:	bc 01       	movw	r22, r24
    e44c:	66 0f       	add	r22, r22
    e44e:	77 1f       	adc	r23, r23
    e450:	66 0f       	add	r22, r22
    e452:	77 1f       	adc	r23, r23
    e454:	66 0f       	add	r22, r22
    e456:	77 1f       	adc	r23, r23
    e458:	64 0f       	add	r22, r20
    e45a:	75 1f       	adc	r23, r21
    e45c:	40 91 53 04 	lds	r20, 0x0453	; 0x800453 <BACK_COLOR>
    e460:	50 91 54 04 	lds	r21, 0x0454	; 0x800454 <BACK_COLOR+0x1>
    e464:	60 0f       	add	r22, r16
    e466:	71 1f       	adc	r23, r17
    e468:	ce 01       	movw	r24, r28
    e46a:	8f 0d       	add	r24, r15
    e46c:	91 1d       	adc	r25, r1
    e46e:	73 d9       	rcall	.-3354   	; 0xd756 <ILI9486_drawPixel>
    e470:	1e c0       	rjmp	.+60     	; 0xe4ae <ILI9486_Print_Char18x32+0x12e>
    e472:	4e 2d       	mov	r20, r14
    e474:	50 e0       	ldi	r21, 0x00	; 0
    e476:	30 e0       	ldi	r19, 0x00	; 0
    e478:	0e 2c       	mov	r0, r14
    e47a:	02 c0       	rjmp	.+4      	; 0xe480 <ILI9486_Print_Char18x32+0x100>
    e47c:	35 95       	asr	r19
    e47e:	27 95       	ror	r18
    e480:	0a 94       	dec	r0
    e482:	e2 f7       	brpl	.-8      	; 0xe47c <ILI9486_Print_Char18x32+0xfc>
    e484:	20 ff       	sbrs	r18, 0
    e486:	13 c0       	rjmp	.+38     	; 0xe4ae <ILI9486_Print_Char18x32+0x12e>
    e488:	bc 01       	movw	r22, r24
    e48a:	66 0f       	add	r22, r22
    e48c:	77 1f       	adc	r23, r23
    e48e:	66 0f       	add	r22, r22
    e490:	77 1f       	adc	r23, r23
    e492:	66 0f       	add	r22, r22
    e494:	77 1f       	adc	r23, r23
    e496:	64 0f       	add	r22, r20
    e498:	75 1f       	adc	r23, r21
    e49a:	40 91 55 04 	lds	r20, 0x0455	; 0x800455 <POINT_COLOR>
    e49e:	50 91 56 04 	lds	r21, 0x0456	; 0x800456 <POINT_COLOR+0x1>
    e4a2:	60 0f       	add	r22, r16
    e4a4:	71 1f       	adc	r23, r17
    e4a6:	ce 01       	movw	r24, r28
    e4a8:	8f 0d       	add	r24, r15
    e4aa:	91 1d       	adc	r25, r1
    e4ac:	54 d9       	rcall	.-3416   	; 0xd756 <ILI9486_drawPixel>
    e4ae:	f3 94       	inc	r15
    e4b0:	01 c0       	rjmp	.+2      	; 0xe4b4 <ILI9486_Print_Char18x32+0x134>
    e4b2:	f1 2c       	mov	r15, r1
    e4b4:	81 e1       	ldi	r24, 0x11	; 17
    e4b6:	8f 15       	cp	r24, r15
    e4b8:	08 f0       	brcs	.+2      	; 0xe4bc <ILI9486_Print_Char18x32+0x13c>
    e4ba:	8a cf       	rjmp	.-236    	; 0xe3d0 <ILI9486_Print_Char18x32+0x50>
    e4bc:	e3 94       	inc	r14
    e4be:	01 c0       	rjmp	.+2      	; 0xe4c2 <ILI9486_Print_Char18x32+0x142>
    e4c0:	e1 2c       	mov	r14, r1
    e4c2:	87 e0       	ldi	r24, 0x07	; 7
    e4c4:	8e 15       	cp	r24, r14
    e4c6:	a8 f7       	brcc	.-22     	; 0xe4b2 <ILI9486_Print_Char18x32+0x132>
    e4c8:	d3 94       	inc	r13
    e4ca:	83 e0       	ldi	r24, 0x03	; 3
    e4cc:	8d 15       	cp	r24, r13
    e4ce:	c0 f7       	brcc	.-16     	; 0xe4c0 <ILI9486_Print_Char18x32+0x140>
    e4d0:	80 e0       	ldi	r24, 0x00	; 0
    e4d2:	90 e0       	ldi	r25, 0x00	; 0
    e4d4:	0e 94 50 81 	call	0x102a0	; 0x102a0 <pf_mount>
    e4d8:	df 91       	pop	r29
    e4da:	cf 91       	pop	r28
    e4dc:	1f 91       	pop	r17
    e4de:	0f 91       	pop	r16
    e4e0:	ff 90       	pop	r15
    e4e2:	ef 90       	pop	r14
    e4e4:	df 90       	pop	r13
    e4e6:	cf 90       	pop	r12
    e4e8:	bf 90       	pop	r11
    e4ea:	08 95       	ret

0000e4ec <ILI9486_Print_Char32x32>:
    e4ec:	bf 92       	push	r11
    e4ee:	cf 92       	push	r12
    e4f0:	df 92       	push	r13
    e4f2:	ef 92       	push	r14
    e4f4:	ff 92       	push	r15
    e4f6:	0f 93       	push	r16
    e4f8:	1f 93       	push	r17
    e4fa:	cf 93       	push	r28
    e4fc:	df 93       	push	r29
    e4fe:	e0 91 e0 03 	lds	r30, 0x03E0	; 0x8003e0 <X_SIZE>
    e502:	f0 91 e1 03 	lds	r31, 0x03E1	; 0x8003e1 <X_SIZE+0x1>
    e506:	b0 97       	sbiw	r30, 0x20	; 32
    e508:	e8 17       	cp	r30, r24
    e50a:	f9 07       	cpc	r31, r25
    e50c:	08 f4       	brcc	.+2      	; 0xe510 <ILI9486_Print_Char32x32+0x24>
    e50e:	93 c0       	rjmp	.+294    	; 0xe636 <ILI9486_Print_Char32x32+0x14a>
    e510:	e0 91 de 03 	lds	r30, 0x03DE	; 0x8003de <__data_end>
    e514:	f0 91 df 03 	lds	r31, 0x03DF	; 0x8003df <__data_end+0x1>
    e518:	b0 97       	sbiw	r30, 0x20	; 32
    e51a:	e6 17       	cp	r30, r22
    e51c:	f7 07       	cpc	r31, r23
    e51e:	08 f4       	brcc	.+2      	; 0xe522 <ILI9486_Print_Char32x32+0x36>
    e520:	8a c0       	rjmp	.+276    	; 0xe636 <ILI9486_Print_Char32x32+0x14a>
    e522:	b2 2e       	mov	r11, r18
    e524:	c4 2e       	mov	r12, r20
    e526:	8b 01       	movw	r16, r22
    e528:	ec 01       	movw	r28, r24
    e52a:	9b 01       	movw	r18, r22
    e52c:	21 5e       	subi	r18, 0xE1	; 225
    e52e:	3f 4f       	sbci	r19, 0xFF	; 255
    e530:	ac 01       	movw	r20, r24
    e532:	41 5e       	subi	r20, 0xE1	; 225
    e534:	5f 4f       	sbci	r21, 0xFF	; 255
    e536:	b2 d8       	rcall	.-3740   	; 0xd69c <ILI9486_SetAddrWindow>
    e538:	d1 2c       	mov	r13, r1
    e53a:	7a c0       	rjmp	.+244    	; 0xe630 <ILI9486_Print_Char32x32+0x144>
    e53c:	ec 2d       	mov	r30, r12
    e53e:	f0 e0       	ldi	r31, 0x00	; 0
    e540:	b0 97       	sbiw	r30, 0x20	; 32
    e542:	ee 0f       	add	r30, r30
    e544:	ff 1f       	adc	r31, r31
    e546:	e2 95       	swap	r30
    e548:	f2 95       	swap	r31
    e54a:	f0 7f       	andi	r31, 0xF0	; 240
    e54c:	fe 27       	eor	r31, r30
    e54e:	e0 7f       	andi	r30, 0xF0	; 240
    e550:	fe 27       	eor	r31, r30
    e552:	ef 0d       	add	r30, r15
    e554:	f1 1d       	adc	r31, r1
    e556:	ee 0f       	add	r30, r30
    e558:	ff 1f       	adc	r31, r31
    e55a:	ee 0f       	add	r30, r30
    e55c:	ff 1f       	adc	r31, r31
    e55e:	8d 2d       	mov	r24, r13
    e560:	90 e0       	ldi	r25, 0x00	; 0
    e562:	e8 0f       	add	r30, r24
    e564:	f9 1f       	adc	r31, r25
    e566:	e6 5e       	subi	r30, 0xE6	; 230
    e568:	fc 4c       	sbci	r31, 0xCC	; 204
    e56a:	24 91       	lpm	r18, Z
    e56c:	a8 95       	wdr
    e56e:	b1 10       	cpse	r11, r1
    e570:	33 c0       	rjmp	.+102    	; 0xe5d8 <ILI9486_Print_Char32x32+0xec>
    e572:	4e 2d       	mov	r20, r14
    e574:	50 e0       	ldi	r21, 0x00	; 0
    e576:	30 e0       	ldi	r19, 0x00	; 0
    e578:	0e 2c       	mov	r0, r14
    e57a:	02 c0       	rjmp	.+4      	; 0xe580 <ILI9486_Print_Char32x32+0x94>
    e57c:	35 95       	asr	r19
    e57e:	27 95       	ror	r18
    e580:	0a 94       	dec	r0
    e582:	e2 f7       	brpl	.-8      	; 0xe57c <ILI9486_Print_Char32x32+0x90>
    e584:	20 ff       	sbrs	r18, 0
    e586:	14 c0       	rjmp	.+40     	; 0xe5b0 <ILI9486_Print_Char32x32+0xc4>
    e588:	bc 01       	movw	r22, r24
    e58a:	66 0f       	add	r22, r22
    e58c:	77 1f       	adc	r23, r23
    e58e:	66 0f       	add	r22, r22
    e590:	77 1f       	adc	r23, r23
    e592:	66 0f       	add	r22, r22
    e594:	77 1f       	adc	r23, r23
    e596:	64 0f       	add	r22, r20
    e598:	75 1f       	adc	r23, r21
    e59a:	40 91 55 04 	lds	r20, 0x0455	; 0x800455 <POINT_COLOR>
    e59e:	50 91 56 04 	lds	r21, 0x0456	; 0x800456 <POINT_COLOR+0x1>
    e5a2:	60 0f       	add	r22, r16
    e5a4:	71 1f       	adc	r23, r17
    e5a6:	ce 01       	movw	r24, r28
    e5a8:	8f 0d       	add	r24, r15
    e5aa:	91 1d       	adc	r25, r1
    e5ac:	d4 d8       	rcall	.-3672   	; 0xd756 <ILI9486_drawPixel>
    e5ae:	32 c0       	rjmp	.+100    	; 0xe614 <ILI9486_Print_Char32x32+0x128>
    e5b0:	bc 01       	movw	r22, r24
    e5b2:	66 0f       	add	r22, r22
    e5b4:	77 1f       	adc	r23, r23
    e5b6:	66 0f       	add	r22, r22
    e5b8:	77 1f       	adc	r23, r23
    e5ba:	66 0f       	add	r22, r22
    e5bc:	77 1f       	adc	r23, r23
    e5be:	64 0f       	add	r22, r20
    e5c0:	75 1f       	adc	r23, r21
    e5c2:	40 91 53 04 	lds	r20, 0x0453	; 0x800453 <BACK_COLOR>
    e5c6:	50 91 54 04 	lds	r21, 0x0454	; 0x800454 <BACK_COLOR+0x1>
    e5ca:	60 0f       	add	r22, r16
    e5cc:	71 1f       	adc	r23, r17
    e5ce:	ce 01       	movw	r24, r28
    e5d0:	8f 0d       	add	r24, r15
    e5d2:	91 1d       	adc	r25, r1
    e5d4:	c0 d8       	rcall	.-3712   	; 0xd756 <ILI9486_drawPixel>
    e5d6:	1e c0       	rjmp	.+60     	; 0xe614 <ILI9486_Print_Char32x32+0x128>
    e5d8:	4e 2d       	mov	r20, r14
    e5da:	50 e0       	ldi	r21, 0x00	; 0
    e5dc:	30 e0       	ldi	r19, 0x00	; 0
    e5de:	0e 2c       	mov	r0, r14
    e5e0:	02 c0       	rjmp	.+4      	; 0xe5e6 <ILI9486_Print_Char32x32+0xfa>
    e5e2:	35 95       	asr	r19
    e5e4:	27 95       	ror	r18
    e5e6:	0a 94       	dec	r0
    e5e8:	e2 f7       	brpl	.-8      	; 0xe5e2 <ILI9486_Print_Char32x32+0xf6>
    e5ea:	20 ff       	sbrs	r18, 0
    e5ec:	13 c0       	rjmp	.+38     	; 0xe614 <ILI9486_Print_Char32x32+0x128>
    e5ee:	bc 01       	movw	r22, r24
    e5f0:	66 0f       	add	r22, r22
    e5f2:	77 1f       	adc	r23, r23
    e5f4:	66 0f       	add	r22, r22
    e5f6:	77 1f       	adc	r23, r23
    e5f8:	66 0f       	add	r22, r22
    e5fa:	77 1f       	adc	r23, r23
    e5fc:	64 0f       	add	r22, r20
    e5fe:	75 1f       	adc	r23, r21
    e600:	40 91 55 04 	lds	r20, 0x0455	; 0x800455 <POINT_COLOR>
    e604:	50 91 56 04 	lds	r21, 0x0456	; 0x800456 <POINT_COLOR+0x1>
    e608:	60 0f       	add	r22, r16
    e60a:	71 1f       	adc	r23, r17
    e60c:	ce 01       	movw	r24, r28
    e60e:	8f 0d       	add	r24, r15
    e610:	91 1d       	adc	r25, r1
    e612:	a1 d8       	rcall	.-3774   	; 0xd756 <ILI9486_drawPixel>
    e614:	f3 94       	inc	r15
    e616:	01 c0       	rjmp	.+2      	; 0xe61a <ILI9486_Print_Char32x32+0x12e>
    e618:	f1 2c       	mov	r15, r1
    e61a:	8f e1       	ldi	r24, 0x1F	; 31
    e61c:	8f 15       	cp	r24, r15
    e61e:	08 f0       	brcs	.+2      	; 0xe622 <ILI9486_Print_Char32x32+0x136>
    e620:	8d cf       	rjmp	.-230    	; 0xe53c <ILI9486_Print_Char32x32+0x50>
    e622:	e3 94       	inc	r14
    e624:	01 c0       	rjmp	.+2      	; 0xe628 <ILI9486_Print_Char32x32+0x13c>
    e626:	e1 2c       	mov	r14, r1
    e628:	87 e0       	ldi	r24, 0x07	; 7
    e62a:	8e 15       	cp	r24, r14
    e62c:	a8 f7       	brcc	.-22     	; 0xe618 <ILI9486_Print_Char32x32+0x12c>
    e62e:	d3 94       	inc	r13
    e630:	83 e0       	ldi	r24, 0x03	; 3
    e632:	8d 15       	cp	r24, r13
    e634:	c0 f7       	brcc	.-16     	; 0xe626 <ILI9486_Print_Char32x32+0x13a>
    e636:	df 91       	pop	r29
    e638:	cf 91       	pop	r28
    e63a:	1f 91       	pop	r17
    e63c:	0f 91       	pop	r16
    e63e:	ff 90       	pop	r15
    e640:	ef 90       	pop	r14
    e642:	df 90       	pop	r13
    e644:	cf 90       	pop	r12
    e646:	bf 90       	pop	r11
    e648:	08 95       	ret

0000e64a <ILI9486_Print_Char24x32>:
    e64a:	bf 92       	push	r11
    e64c:	cf 92       	push	r12
    e64e:	df 92       	push	r13
    e650:	ef 92       	push	r14
    e652:	ff 92       	push	r15
    e654:	0f 93       	push	r16
    e656:	1f 93       	push	r17
    e658:	cf 93       	push	r28
    e65a:	df 93       	push	r29
    e65c:	e0 91 e0 03 	lds	r30, 0x03E0	; 0x8003e0 <X_SIZE>
    e660:	f0 91 e1 03 	lds	r31, 0x03E1	; 0x8003e1 <X_SIZE+0x1>
    e664:	78 97       	sbiw	r30, 0x18	; 24
    e666:	e8 17       	cp	r30, r24
    e668:	f9 07       	cpc	r31, r25
    e66a:	08 f4       	brcc	.+2      	; 0xe66e <ILI9486_Print_Char24x32+0x24>
    e66c:	97 c0       	rjmp	.+302    	; 0xe79c <ILI9486_Print_Char24x32+0x152>
    e66e:	e0 91 de 03 	lds	r30, 0x03DE	; 0x8003de <__data_end>
    e672:	f0 91 df 03 	lds	r31, 0x03DF	; 0x8003df <__data_end+0x1>
    e676:	b0 97       	sbiw	r30, 0x20	; 32
    e678:	e6 17       	cp	r30, r22
    e67a:	f7 07       	cpc	r31, r23
    e67c:	08 f4       	brcc	.+2      	; 0xe680 <ILI9486_Print_Char24x32+0x36>
    e67e:	8e c0       	rjmp	.+284    	; 0xe79c <ILI9486_Print_Char24x32+0x152>
    e680:	b2 2e       	mov	r11, r18
    e682:	c4 2e       	mov	r12, r20
    e684:	8b 01       	movw	r16, r22
    e686:	ec 01       	movw	r28, r24
    e688:	9b 01       	movw	r18, r22
    e68a:	21 50       	subi	r18, 0x01	; 1
    e68c:	31 09       	sbc	r19, r1
    e68e:	ac 01       	movw	r20, r24
    e690:	41 50       	subi	r20, 0x01	; 1
    e692:	51 09       	sbc	r21, r1
    e694:	03 d8       	rcall	.-4090   	; 0xd69c <ILI9486_SetAddrWindow>
    e696:	d1 2c       	mov	r13, r1
    e698:	7e c0       	rjmp	.+252    	; 0xe796 <ILI9486_Print_Char24x32+0x14c>
    e69a:	8c 2d       	mov	r24, r12
    e69c:	90 e0       	ldi	r25, 0x00	; 0
    e69e:	c0 97       	sbiw	r24, 0x30	; 48
    e6a0:	fc 01       	movw	r30, r24
    e6a2:	ee 0f       	add	r30, r30
    e6a4:	ff 1f       	adc	r31, r31
    e6a6:	e8 0f       	add	r30, r24
    e6a8:	f9 1f       	adc	r31, r25
    e6aa:	ee 0f       	add	r30, r30
    e6ac:	ff 1f       	adc	r31, r31
    e6ae:	ee 0f       	add	r30, r30
    e6b0:	ff 1f       	adc	r31, r31
    e6b2:	ee 0f       	add	r30, r30
    e6b4:	ff 1f       	adc	r31, r31
    e6b6:	ef 0d       	add	r30, r15
    e6b8:	f1 1d       	adc	r31, r1
    e6ba:	ee 0f       	add	r30, r30
    e6bc:	ff 1f       	adc	r31, r31
    e6be:	ee 0f       	add	r30, r30
    e6c0:	ff 1f       	adc	r31, r31
    e6c2:	8d 2d       	mov	r24, r13
    e6c4:	90 e0       	ldi	r25, 0x00	; 0
    e6c6:	e8 0f       	add	r30, r24
    e6c8:	f9 1f       	adc	r31, r25
    e6ca:	e6 52       	subi	r30, 0x26	; 38
    e6cc:	f3 45       	sbci	r31, 0x53	; 83
    e6ce:	24 91       	lpm	r18, Z
    e6d0:	a8 95       	wdr
    e6d2:	b1 10       	cpse	r11, r1
    e6d4:	33 c0       	rjmp	.+102    	; 0xe73c <ILI9486_Print_Char24x32+0xf2>
    e6d6:	4e 2d       	mov	r20, r14
    e6d8:	50 e0       	ldi	r21, 0x00	; 0
    e6da:	30 e0       	ldi	r19, 0x00	; 0
    e6dc:	0e 2c       	mov	r0, r14
    e6de:	02 c0       	rjmp	.+4      	; 0xe6e4 <ILI9486_Print_Char24x32+0x9a>
    e6e0:	35 95       	asr	r19
    e6e2:	27 95       	ror	r18
    e6e4:	0a 94       	dec	r0
    e6e6:	e2 f7       	brpl	.-8      	; 0xe6e0 <ILI9486_Print_Char24x32+0x96>
    e6e8:	20 ff       	sbrs	r18, 0
    e6ea:	14 c0       	rjmp	.+40     	; 0xe714 <ILI9486_Print_Char24x32+0xca>
    e6ec:	bc 01       	movw	r22, r24
    e6ee:	66 0f       	add	r22, r22
    e6f0:	77 1f       	adc	r23, r23
    e6f2:	66 0f       	add	r22, r22
    e6f4:	77 1f       	adc	r23, r23
    e6f6:	66 0f       	add	r22, r22
    e6f8:	77 1f       	adc	r23, r23
    e6fa:	64 0f       	add	r22, r20
    e6fc:	75 1f       	adc	r23, r21
    e6fe:	40 91 55 04 	lds	r20, 0x0455	; 0x800455 <POINT_COLOR>
    e702:	50 91 56 04 	lds	r21, 0x0456	; 0x800456 <POINT_COLOR+0x1>
    e706:	60 0f       	add	r22, r16
    e708:	71 1f       	adc	r23, r17
    e70a:	ce 01       	movw	r24, r28
    e70c:	8f 0d       	add	r24, r15
    e70e:	91 1d       	adc	r25, r1
    e710:	22 d8       	rcall	.-4028   	; 0xd756 <ILI9486_drawPixel>
    e712:	33 c0       	rjmp	.+102    	; 0xe77a <ILI9486_Print_Char24x32+0x130>
    e714:	bc 01       	movw	r22, r24
    e716:	66 0f       	add	r22, r22
    e718:	77 1f       	adc	r23, r23
    e71a:	66 0f       	add	r22, r22
    e71c:	77 1f       	adc	r23, r23
    e71e:	66 0f       	add	r22, r22
    e720:	77 1f       	adc	r23, r23
    e722:	64 0f       	add	r22, r20
    e724:	75 1f       	adc	r23, r21
    e726:	40 91 53 04 	lds	r20, 0x0453	; 0x800453 <BACK_COLOR>
    e72a:	50 91 54 04 	lds	r21, 0x0454	; 0x800454 <BACK_COLOR+0x1>
    e72e:	60 0f       	add	r22, r16
    e730:	71 1f       	adc	r23, r17
    e732:	ce 01       	movw	r24, r28
    e734:	8f 0d       	add	r24, r15
    e736:	91 1d       	adc	r25, r1
    e738:	0e d8       	rcall	.-4068   	; 0xd756 <ILI9486_drawPixel>
    e73a:	1f c0       	rjmp	.+62     	; 0xe77a <ILI9486_Print_Char24x32+0x130>
    e73c:	4e 2d       	mov	r20, r14
    e73e:	50 e0       	ldi	r21, 0x00	; 0
    e740:	30 e0       	ldi	r19, 0x00	; 0
    e742:	0e 2c       	mov	r0, r14
    e744:	02 c0       	rjmp	.+4      	; 0xe74a <ILI9486_Print_Char24x32+0x100>
    e746:	35 95       	asr	r19
    e748:	27 95       	ror	r18
    e74a:	0a 94       	dec	r0
    e74c:	e2 f7       	brpl	.-8      	; 0xe746 <ILI9486_Print_Char24x32+0xfc>
    e74e:	20 ff       	sbrs	r18, 0
    e750:	14 c0       	rjmp	.+40     	; 0xe77a <ILI9486_Print_Char24x32+0x130>
    e752:	bc 01       	movw	r22, r24
    e754:	66 0f       	add	r22, r22
    e756:	77 1f       	adc	r23, r23
    e758:	66 0f       	add	r22, r22
    e75a:	77 1f       	adc	r23, r23
    e75c:	66 0f       	add	r22, r22
    e75e:	77 1f       	adc	r23, r23
    e760:	64 0f       	add	r22, r20
    e762:	75 1f       	adc	r23, r21
    e764:	40 91 55 04 	lds	r20, 0x0455	; 0x800455 <POINT_COLOR>
    e768:	50 91 56 04 	lds	r21, 0x0456	; 0x800456 <POINT_COLOR+0x1>
    e76c:	60 0f       	add	r22, r16
    e76e:	71 1f       	adc	r23, r17
    e770:	ce 01       	movw	r24, r28
    e772:	8f 0d       	add	r24, r15
    e774:	91 1d       	adc	r25, r1
    e776:	0e 94 ab 6b 	call	0xd756	; 0xd756 <ILI9486_drawPixel>
    e77a:	f3 94       	inc	r15
    e77c:	01 c0       	rjmp	.+2      	; 0xe780 <ILI9486_Print_Char24x32+0x136>
    e77e:	f1 2c       	mov	r15, r1
    e780:	87 e1       	ldi	r24, 0x17	; 23
    e782:	8f 15       	cp	r24, r15
    e784:	08 f0       	brcs	.+2      	; 0xe788 <ILI9486_Print_Char24x32+0x13e>
    e786:	89 cf       	rjmp	.-238    	; 0xe69a <ILI9486_Print_Char24x32+0x50>
    e788:	e3 94       	inc	r14
    e78a:	01 c0       	rjmp	.+2      	; 0xe78e <ILI9486_Print_Char24x32+0x144>
    e78c:	e1 2c       	mov	r14, r1
    e78e:	87 e0       	ldi	r24, 0x07	; 7
    e790:	8e 15       	cp	r24, r14
    e792:	a8 f7       	brcc	.-22     	; 0xe77e <ILI9486_Print_Char24x32+0x134>
    e794:	d3 94       	inc	r13
    e796:	83 e0       	ldi	r24, 0x03	; 3
    e798:	8d 15       	cp	r24, r13
    e79a:	c0 f7       	brcc	.-16     	; 0xe78c <ILI9486_Print_Char24x32+0x142>
    e79c:	df 91       	pop	r29
    e79e:	cf 91       	pop	r28
    e7a0:	1f 91       	pop	r17
    e7a2:	0f 91       	pop	r16
    e7a4:	ff 90       	pop	r15
    e7a6:	ef 90       	pop	r14
    e7a8:	df 90       	pop	r13
    e7aa:	cf 90       	pop	r12
    e7ac:	bf 90       	pop	r11
    e7ae:	08 95       	ret

0000e7b0 <ILI9486_Print_Char32x48>:
    e7b0:	bf 92       	push	r11
    e7b2:	cf 92       	push	r12
    e7b4:	df 92       	push	r13
    e7b6:	ef 92       	push	r14
    e7b8:	ff 92       	push	r15
    e7ba:	0f 93       	push	r16
    e7bc:	1f 93       	push	r17
    e7be:	cf 93       	push	r28
    e7c0:	df 93       	push	r29
    e7c2:	e0 91 e0 03 	lds	r30, 0x03E0	; 0x8003e0 <X_SIZE>
    e7c6:	f0 91 e1 03 	lds	r31, 0x03E1	; 0x8003e1 <X_SIZE+0x1>
    e7ca:	b0 97       	sbiw	r30, 0x20	; 32
    e7cc:	e8 17       	cp	r30, r24
    e7ce:	f9 07       	cpc	r31, r25
    e7d0:	08 f4       	brcc	.+2      	; 0xe7d4 <ILI9486_Print_Char32x48+0x24>
    e7d2:	a1 c0       	rjmp	.+322    	; 0xe916 <ILI9486_Print_Char32x48+0x166>
    e7d4:	e0 91 de 03 	lds	r30, 0x03DE	; 0x8003de <__data_end>
    e7d8:	f0 91 df 03 	lds	r31, 0x03DF	; 0x8003df <__data_end+0x1>
    e7dc:	f0 97       	sbiw	r30, 0x30	; 48
    e7de:	e6 17       	cp	r30, r22
    e7e0:	f7 07       	cpc	r31, r23
    e7e2:	08 f4       	brcc	.+2      	; 0xe7e6 <ILI9486_Print_Char32x48+0x36>
    e7e4:	98 c0       	rjmp	.+304    	; 0xe916 <ILI9486_Print_Char32x48+0x166>
    e7e6:	b2 2e       	mov	r11, r18
    e7e8:	d4 2e       	mov	r13, r20
    e7ea:	8b 01       	movw	r16, r22
    e7ec:	ec 01       	movw	r28, r24
    e7ee:	9b 01       	movw	r18, r22
    e7f0:	21 50       	subi	r18, 0x01	; 1
    e7f2:	31 09       	sbc	r19, r1
    e7f4:	ac 01       	movw	r20, r24
    e7f6:	41 50       	subi	r20, 0x01	; 1
    e7f8:	51 09       	sbc	r21, r1
    e7fa:	0e 94 4e 6b 	call	0xd69c	; 0xd69c <ILI9486_SetAddrWindow>
    e7fe:	c1 2c       	mov	r12, r1
    e800:	87 c0       	rjmp	.+270    	; 0xe910 <ILI9486_Print_Char32x48+0x160>
    e802:	80 e2       	ldi	r24, 0x20	; 32
    e804:	d8 16       	cp	r13, r24
    e806:	d9 f0       	breq	.+54     	; 0xe83e <ILI9486_Print_Char32x48+0x8e>
    e808:	2d 2d       	mov	r18, r13
    e80a:	30 e0       	ldi	r19, 0x00	; 0
    e80c:	2d 52       	subi	r18, 0x2D	; 45
    e80e:	31 09       	sbc	r19, r1
    e810:	80 ec       	ldi	r24, 0xC0	; 192
    e812:	82 9f       	mul	r24, r18
    e814:	f0 01       	movw	r30, r0
    e816:	83 9f       	mul	r24, r19
    e818:	f0 0d       	add	r31, r0
    e81a:	11 24       	eor	r1, r1
    e81c:	8f 2d       	mov	r24, r15
    e81e:	90 e0       	ldi	r25, 0x00	; 0
    e820:	9c 01       	movw	r18, r24
    e822:	22 0f       	add	r18, r18
    e824:	33 1f       	adc	r19, r19
    e826:	82 0f       	add	r24, r18
    e828:	93 1f       	adc	r25, r19
    e82a:	88 0f       	add	r24, r24
    e82c:	99 1f       	adc	r25, r25
    e82e:	e8 0f       	add	r30, r24
    e830:	f9 1f       	adc	r31, r25
    e832:	ec 0d       	add	r30, r12
    e834:	f1 1d       	adc	r31, r1
    e836:	e6 5e       	subi	r30, 0xE6	; 230
    e838:	fc 45       	sbci	r31, 0x5C	; 92
    e83a:	84 91       	lpm	r24, Z
    e83c:	01 c0       	rjmp	.+2      	; 0xe840 <ILI9486_Print_Char32x48+0x90>
    e83e:	80 e0       	ldi	r24, 0x00	; 0
    e840:	a8 95       	wdr
    e842:	b1 10       	cpse	r11, r1
    e844:	37 c0       	rjmp	.+110    	; 0xe8b4 <ILI9486_Print_Char32x48+0x104>
    e846:	6e 2d       	mov	r22, r14
    e848:	70 e0       	ldi	r23, 0x00	; 0
    e84a:	90 e0       	ldi	r25, 0x00	; 0
    e84c:	0e 2c       	mov	r0, r14
    e84e:	02 c0       	rjmp	.+4      	; 0xe854 <ILI9486_Print_Char32x48+0xa4>
    e850:	95 95       	asr	r25
    e852:	87 95       	ror	r24
    e854:	0a 94       	dec	r0
    e856:	e2 f7       	brpl	.-8      	; 0xe850 <ILI9486_Print_Char32x48+0xa0>
    e858:	80 ff       	sbrs	r24, 0
    e85a:	16 c0       	rjmp	.+44     	; 0xe888 <ILI9486_Print_Char32x48+0xd8>
    e85c:	8c 2d       	mov	r24, r12
    e85e:	90 e0       	ldi	r25, 0x00	; 0
    e860:	88 0f       	add	r24, r24
    e862:	99 1f       	adc	r25, r25
    e864:	88 0f       	add	r24, r24
    e866:	99 1f       	adc	r25, r25
    e868:	88 0f       	add	r24, r24
    e86a:	99 1f       	adc	r25, r25
    e86c:	68 0f       	add	r22, r24
    e86e:	79 1f       	adc	r23, r25
    e870:	40 91 55 04 	lds	r20, 0x0455	; 0x800455 <POINT_COLOR>
    e874:	50 91 56 04 	lds	r21, 0x0456	; 0x800456 <POINT_COLOR+0x1>
    e878:	60 0f       	add	r22, r16
    e87a:	71 1f       	adc	r23, r17
    e87c:	ce 01       	movw	r24, r28
    e87e:	8f 0d       	add	r24, r15
    e880:	91 1d       	adc	r25, r1
    e882:	0e 94 ab 6b 	call	0xd756	; 0xd756 <ILI9486_drawPixel>
    e886:	36 c0       	rjmp	.+108    	; 0xe8f4 <ILI9486_Print_Char32x48+0x144>
    e888:	8c 2d       	mov	r24, r12
    e88a:	90 e0       	ldi	r25, 0x00	; 0
    e88c:	88 0f       	add	r24, r24
    e88e:	99 1f       	adc	r25, r25
    e890:	88 0f       	add	r24, r24
    e892:	99 1f       	adc	r25, r25
    e894:	88 0f       	add	r24, r24
    e896:	99 1f       	adc	r25, r25
    e898:	68 0f       	add	r22, r24
    e89a:	79 1f       	adc	r23, r25
    e89c:	40 91 53 04 	lds	r20, 0x0453	; 0x800453 <BACK_COLOR>
    e8a0:	50 91 54 04 	lds	r21, 0x0454	; 0x800454 <BACK_COLOR+0x1>
    e8a4:	60 0f       	add	r22, r16
    e8a6:	71 1f       	adc	r23, r17
    e8a8:	ce 01       	movw	r24, r28
    e8aa:	8f 0d       	add	r24, r15
    e8ac:	91 1d       	adc	r25, r1
    e8ae:	0e 94 ab 6b 	call	0xd756	; 0xd756 <ILI9486_drawPixel>
    e8b2:	20 c0       	rjmp	.+64     	; 0xe8f4 <ILI9486_Print_Char32x48+0x144>
    e8b4:	2e 2d       	mov	r18, r14
    e8b6:	30 e0       	ldi	r19, 0x00	; 0
    e8b8:	90 e0       	ldi	r25, 0x00	; 0
    e8ba:	0e 2c       	mov	r0, r14
    e8bc:	02 c0       	rjmp	.+4      	; 0xe8c2 <ILI9486_Print_Char32x48+0x112>
    e8be:	95 95       	asr	r25
    e8c0:	87 95       	ror	r24
    e8c2:	0a 94       	dec	r0
    e8c4:	e2 f7       	brpl	.-8      	; 0xe8be <ILI9486_Print_Char32x48+0x10e>
    e8c6:	80 ff       	sbrs	r24, 0
    e8c8:	15 c0       	rjmp	.+42     	; 0xe8f4 <ILI9486_Print_Char32x48+0x144>
    e8ca:	6c 2d       	mov	r22, r12
    e8cc:	70 e0       	ldi	r23, 0x00	; 0
    e8ce:	66 0f       	add	r22, r22
    e8d0:	77 1f       	adc	r23, r23
    e8d2:	66 0f       	add	r22, r22
    e8d4:	77 1f       	adc	r23, r23
    e8d6:	66 0f       	add	r22, r22
    e8d8:	77 1f       	adc	r23, r23
    e8da:	62 0f       	add	r22, r18
    e8dc:	73 1f       	adc	r23, r19
    e8de:	40 91 55 04 	lds	r20, 0x0455	; 0x800455 <POINT_COLOR>
    e8e2:	50 91 56 04 	lds	r21, 0x0456	; 0x800456 <POINT_COLOR+0x1>
    e8e6:	60 0f       	add	r22, r16
    e8e8:	71 1f       	adc	r23, r17
    e8ea:	ce 01       	movw	r24, r28
    e8ec:	8f 0d       	add	r24, r15
    e8ee:	91 1d       	adc	r25, r1
    e8f0:	0e 94 ab 6b 	call	0xd756	; 0xd756 <ILI9486_drawPixel>
    e8f4:	f3 94       	inc	r15
    e8f6:	01 c0       	rjmp	.+2      	; 0xe8fa <ILI9486_Print_Char32x48+0x14a>
    e8f8:	f1 2c       	mov	r15, r1
    e8fa:	8f e1       	ldi	r24, 0x1F	; 31
    e8fc:	8f 15       	cp	r24, r15
    e8fe:	08 f0       	brcs	.+2      	; 0xe902 <ILI9486_Print_Char32x48+0x152>
    e900:	80 cf       	rjmp	.-256    	; 0xe802 <ILI9486_Print_Char32x48+0x52>
    e902:	e3 94       	inc	r14
    e904:	01 c0       	rjmp	.+2      	; 0xe908 <ILI9486_Print_Char32x48+0x158>
    e906:	e1 2c       	mov	r14, r1
    e908:	87 e0       	ldi	r24, 0x07	; 7
    e90a:	8e 15       	cp	r24, r14
    e90c:	a8 f7       	brcc	.-22     	; 0xe8f8 <ILI9486_Print_Char32x48+0x148>
    e90e:	c3 94       	inc	r12
    e910:	85 e0       	ldi	r24, 0x05	; 5
    e912:	8c 15       	cp	r24, r12
    e914:	c0 f7       	brcc	.-16     	; 0xe906 <ILI9486_Print_Char32x48+0x156>
    e916:	df 91       	pop	r29
    e918:	cf 91       	pop	r28
    e91a:	1f 91       	pop	r17
    e91c:	0f 91       	pop	r16
    e91e:	ff 90       	pop	r15
    e920:	ef 90       	pop	r14
    e922:	df 90       	pop	r13
    e924:	cf 90       	pop	r12
    e926:	bf 90       	pop	r11
    e928:	08 95       	ret

0000e92a <ILI9486_Print_Char40x40>:
    e92a:	bf 92       	push	r11
    e92c:	cf 92       	push	r12
    e92e:	df 92       	push	r13
    e930:	ef 92       	push	r14
    e932:	ff 92       	push	r15
    e934:	0f 93       	push	r16
    e936:	1f 93       	push	r17
    e938:	cf 93       	push	r28
    e93a:	df 93       	push	r29
    e93c:	e0 91 e0 03 	lds	r30, 0x03E0	; 0x8003e0 <X_SIZE>
    e940:	f0 91 e1 03 	lds	r31, 0x03E1	; 0x8003e1 <X_SIZE+0x1>
    e944:	b8 97       	sbiw	r30, 0x28	; 40
    e946:	e8 17       	cp	r30, r24
    e948:	f9 07       	cpc	r31, r25
    e94a:	08 f4       	brcc	.+2      	; 0xe94e <ILI9486_Print_Char40x40+0x24>
    e94c:	a1 c0       	rjmp	.+322    	; 0xea90 <ILI9486_Print_Char40x40+0x166>
    e94e:	e0 91 de 03 	lds	r30, 0x03DE	; 0x8003de <__data_end>
    e952:	f0 91 df 03 	lds	r31, 0x03DF	; 0x8003df <__data_end+0x1>
    e956:	b8 97       	sbiw	r30, 0x28	; 40
    e958:	e6 17       	cp	r30, r22
    e95a:	f7 07       	cpc	r31, r23
    e95c:	08 f4       	brcc	.+2      	; 0xe960 <ILI9486_Print_Char40x40+0x36>
    e95e:	98 c0       	rjmp	.+304    	; 0xea90 <ILI9486_Print_Char40x40+0x166>
    e960:	b2 2e       	mov	r11, r18
    e962:	d4 2e       	mov	r13, r20
    e964:	8b 01       	movw	r16, r22
    e966:	ec 01       	movw	r28, r24
    e968:	9b 01       	movw	r18, r22
    e96a:	21 50       	subi	r18, 0x01	; 1
    e96c:	31 09       	sbc	r19, r1
    e96e:	ac 01       	movw	r20, r24
    e970:	41 50       	subi	r20, 0x01	; 1
    e972:	51 09       	sbc	r21, r1
    e974:	0e 94 4e 6b 	call	0xd69c	; 0xd69c <ILI9486_SetAddrWindow>
    e978:	c1 2c       	mov	r12, r1
    e97a:	87 c0       	rjmp	.+270    	; 0xea8a <ILI9486_Print_Char40x40+0x160>
    e97c:	80 e2       	ldi	r24, 0x20	; 32
    e97e:	d8 16       	cp	r13, r24
    e980:	d9 f0       	breq	.+54     	; 0xe9b8 <ILI9486_Print_Char40x40+0x8e>
    e982:	2d 2d       	mov	r18, r13
    e984:	30 e0       	ldi	r19, 0x00	; 0
    e986:	20 5c       	subi	r18, 0xC0	; 192
    e988:	31 09       	sbc	r19, r1
    e98a:	88 ec       	ldi	r24, 0xC8	; 200
    e98c:	82 9f       	mul	r24, r18
    e98e:	f0 01       	movw	r30, r0
    e990:	83 9f       	mul	r24, r19
    e992:	f0 0d       	add	r31, r0
    e994:	11 24       	eor	r1, r1
    e996:	8f 2d       	mov	r24, r15
    e998:	90 e0       	ldi	r25, 0x00	; 0
    e99a:	9c 01       	movw	r18, r24
    e99c:	22 0f       	add	r18, r18
    e99e:	33 1f       	adc	r19, r19
    e9a0:	22 0f       	add	r18, r18
    e9a2:	33 1f       	adc	r19, r19
    e9a4:	82 0f       	add	r24, r18
    e9a6:	93 1f       	adc	r25, r19
    e9a8:	e8 0f       	add	r30, r24
    e9aa:	f9 1f       	adc	r31, r25
    e9ac:	ec 0d       	add	r30, r12
    e9ae:	f1 1d       	adc	r31, r1
    e9b0:	e6 5e       	subi	r30, 0xE6	; 230
    e9b2:	fe 4f       	sbci	r31, 0xFE	; 254
    e9b4:	84 91       	lpm	r24, Z
    e9b6:	01 c0       	rjmp	.+2      	; 0xe9ba <ILI9486_Print_Char40x40+0x90>
    e9b8:	80 e0       	ldi	r24, 0x00	; 0
    e9ba:	a8 95       	wdr
    e9bc:	b1 10       	cpse	r11, r1
    e9be:	37 c0       	rjmp	.+110    	; 0xea2e <ILI9486_Print_Char40x40+0x104>
    e9c0:	6e 2d       	mov	r22, r14
    e9c2:	70 e0       	ldi	r23, 0x00	; 0
    e9c4:	90 e0       	ldi	r25, 0x00	; 0
    e9c6:	0e 2c       	mov	r0, r14
    e9c8:	02 c0       	rjmp	.+4      	; 0xe9ce <ILI9486_Print_Char40x40+0xa4>
    e9ca:	95 95       	asr	r25
    e9cc:	87 95       	ror	r24
    e9ce:	0a 94       	dec	r0
    e9d0:	e2 f7       	brpl	.-8      	; 0xe9ca <ILI9486_Print_Char40x40+0xa0>
    e9d2:	80 ff       	sbrs	r24, 0
    e9d4:	16 c0       	rjmp	.+44     	; 0xea02 <ILI9486_Print_Char40x40+0xd8>
    e9d6:	8c 2d       	mov	r24, r12
    e9d8:	90 e0       	ldi	r25, 0x00	; 0
    e9da:	88 0f       	add	r24, r24
    e9dc:	99 1f       	adc	r25, r25
    e9de:	88 0f       	add	r24, r24
    e9e0:	99 1f       	adc	r25, r25
    e9e2:	88 0f       	add	r24, r24
    e9e4:	99 1f       	adc	r25, r25
    e9e6:	68 0f       	add	r22, r24
    e9e8:	79 1f       	adc	r23, r25
    e9ea:	40 91 55 04 	lds	r20, 0x0455	; 0x800455 <POINT_COLOR>
    e9ee:	50 91 56 04 	lds	r21, 0x0456	; 0x800456 <POINT_COLOR+0x1>
    e9f2:	60 0f       	add	r22, r16
    e9f4:	71 1f       	adc	r23, r17
    e9f6:	ce 01       	movw	r24, r28
    e9f8:	8f 0d       	add	r24, r15
    e9fa:	91 1d       	adc	r25, r1
    e9fc:	0e 94 ab 6b 	call	0xd756	; 0xd756 <ILI9486_drawPixel>
    ea00:	36 c0       	rjmp	.+108    	; 0xea6e <ILI9486_Print_Char40x40+0x144>
    ea02:	8c 2d       	mov	r24, r12
    ea04:	90 e0       	ldi	r25, 0x00	; 0
    ea06:	88 0f       	add	r24, r24
    ea08:	99 1f       	adc	r25, r25
    ea0a:	88 0f       	add	r24, r24
    ea0c:	99 1f       	adc	r25, r25
    ea0e:	88 0f       	add	r24, r24
    ea10:	99 1f       	adc	r25, r25
    ea12:	68 0f       	add	r22, r24
    ea14:	79 1f       	adc	r23, r25
    ea16:	40 91 53 04 	lds	r20, 0x0453	; 0x800453 <BACK_COLOR>
    ea1a:	50 91 54 04 	lds	r21, 0x0454	; 0x800454 <BACK_COLOR+0x1>
    ea1e:	60 0f       	add	r22, r16
    ea20:	71 1f       	adc	r23, r17
    ea22:	ce 01       	movw	r24, r28
    ea24:	8f 0d       	add	r24, r15
    ea26:	91 1d       	adc	r25, r1
    ea28:	0e 94 ab 6b 	call	0xd756	; 0xd756 <ILI9486_drawPixel>
    ea2c:	20 c0       	rjmp	.+64     	; 0xea6e <ILI9486_Print_Char40x40+0x144>
    ea2e:	2e 2d       	mov	r18, r14
    ea30:	30 e0       	ldi	r19, 0x00	; 0
    ea32:	90 e0       	ldi	r25, 0x00	; 0
    ea34:	0e 2c       	mov	r0, r14
    ea36:	02 c0       	rjmp	.+4      	; 0xea3c <ILI9486_Print_Char40x40+0x112>
    ea38:	95 95       	asr	r25
    ea3a:	87 95       	ror	r24
    ea3c:	0a 94       	dec	r0
    ea3e:	e2 f7       	brpl	.-8      	; 0xea38 <ILI9486_Print_Char40x40+0x10e>
    ea40:	80 ff       	sbrs	r24, 0
    ea42:	15 c0       	rjmp	.+42     	; 0xea6e <ILI9486_Print_Char40x40+0x144>
    ea44:	6c 2d       	mov	r22, r12
    ea46:	70 e0       	ldi	r23, 0x00	; 0
    ea48:	66 0f       	add	r22, r22
    ea4a:	77 1f       	adc	r23, r23
    ea4c:	66 0f       	add	r22, r22
    ea4e:	77 1f       	adc	r23, r23
    ea50:	66 0f       	add	r22, r22
    ea52:	77 1f       	adc	r23, r23
    ea54:	62 0f       	add	r22, r18
    ea56:	73 1f       	adc	r23, r19
    ea58:	40 91 55 04 	lds	r20, 0x0455	; 0x800455 <POINT_COLOR>
    ea5c:	50 91 56 04 	lds	r21, 0x0456	; 0x800456 <POINT_COLOR+0x1>
    ea60:	60 0f       	add	r22, r16
    ea62:	71 1f       	adc	r23, r17
    ea64:	ce 01       	movw	r24, r28
    ea66:	8f 0d       	add	r24, r15
    ea68:	91 1d       	adc	r25, r1
    ea6a:	0e 94 ab 6b 	call	0xd756	; 0xd756 <ILI9486_drawPixel>
    ea6e:	f3 94       	inc	r15
    ea70:	01 c0       	rjmp	.+2      	; 0xea74 <ILI9486_Print_Char40x40+0x14a>
    ea72:	f1 2c       	mov	r15, r1
    ea74:	87 e2       	ldi	r24, 0x27	; 39
    ea76:	8f 15       	cp	r24, r15
    ea78:	08 f0       	brcs	.+2      	; 0xea7c <ILI9486_Print_Char40x40+0x152>
    ea7a:	80 cf       	rjmp	.-256    	; 0xe97c <ILI9486_Print_Char40x40+0x52>
    ea7c:	e3 94       	inc	r14
    ea7e:	01 c0       	rjmp	.+2      	; 0xea82 <ILI9486_Print_Char40x40+0x158>
    ea80:	e1 2c       	mov	r14, r1
    ea82:	87 e0       	ldi	r24, 0x07	; 7
    ea84:	8e 15       	cp	r24, r14
    ea86:	a8 f7       	brcc	.-22     	; 0xea72 <ILI9486_Print_Char40x40+0x148>
    ea88:	c3 94       	inc	r12
    ea8a:	84 e0       	ldi	r24, 0x04	; 4
    ea8c:	8c 15       	cp	r24, r12
    ea8e:	c0 f7       	brcc	.-16     	; 0xea80 <ILI9486_Print_Char40x40+0x156>
    ea90:	df 91       	pop	r29
    ea92:	cf 91       	pop	r28
    ea94:	1f 91       	pop	r17
    ea96:	0f 91       	pop	r16
    ea98:	ff 90       	pop	r15
    ea9a:	ef 90       	pop	r14
    ea9c:	df 90       	pop	r13
    ea9e:	cf 90       	pop	r12
    eaa0:	bf 90       	pop	r11
    eaa2:	08 95       	ret

0000eaa4 <ILI9486_SetCursor>:
    eaa4:	70 93 5a 04 	sts	0x045A, r23	; 0x80045a <cursor_x+0x1>
    eaa8:	60 93 59 04 	sts	0x0459, r22	; 0x800459 <cursor_x>
    eaac:	90 93 58 04 	sts	0x0458, r25	; 0x800458 <cursor_y+0x1>
    eab0:	80 93 57 04 	sts	0x0457, r24	; 0x800457 <cursor_y>
    eab4:	08 95       	ret

0000eab6 <ILI9486_Print_String40x40>:
}
void ILI9486_Print_String40x40(uint8_t *string,uint8_t TFT_STRING_MODE)
{
    eab6:	0f 93       	push	r16
    eab8:	1f 93       	push	r17
    eaba:	cf 93       	push	r28
    eabc:	df 93       	push	r29
    eabe:	ec 01       	movw	r28, r24
    eac0:	06 2f       	mov	r16, r22
	uint8_t i=0;
    eac2:	10 e0       	ldi	r17, 0x00	; 0
	uint8_t font_w=33;
	uint8_t font_h=40;

	while(*(string+i)!='\0')
    eac4:	5c c0       	rjmp	.+184    	; 0xeb7e <ILI9486_Print_String40x40+0xc8>
	{

		if(*(string+i)==0)
    eac6:	22 23       	and	r18, r18
    eac8:	09 f4       	brne	.+2      	; 0xeacc <ILI9486_Print_String40x40+0x16>
    eaca:	61 c0       	rjmp	.+194    	; 0xeb8e <ILI9486_Print_String40x40+0xd8>
		{
			return;
		}

		if(*(string+i)=='\n')
    eacc:	2a 30       	cpi	r18, 0x0A	; 10
    eace:	79 f4       	brne	.+30     	; 0xeaee <ILI9486_Print_String40x40+0x38>
		{
			cursor_x+=font_h;
    ead0:	20 91 59 04 	lds	r18, 0x0459	; 0x800459 <cursor_x>
    ead4:	30 91 5a 04 	lds	r19, 0x045A	; 0x80045a <cursor_x+0x1>
    ead8:	28 5d       	subi	r18, 0xD8	; 216
    eada:	3f 4f       	sbci	r19, 0xFF	; 255
    eadc:	30 93 5a 04 	sts	0x045A, r19	; 0x80045a <cursor_x+0x1>
    eae0:	20 93 59 04 	sts	0x0459, r18	; 0x800459 <cursor_x>
			cursor_y=0;
    eae4:	10 92 58 04 	sts	0x0458, r1	; 0x800458 <cursor_y+0x1>
    eae8:	10 92 57 04 	sts	0x0457, r1	; 0x800457 <cursor_y>
			string++;
    eaec:	21 96       	adiw	r28, 0x01	; 1
		}

		if(cursor_y>X_SIZE-font_w)
    eaee:	20 91 e0 03 	lds	r18, 0x03E0	; 0x8003e0 <X_SIZE>
    eaf2:	30 91 e1 03 	lds	r19, 0x03E1	; 0x8003e1 <X_SIZE+0x1>
    eaf6:	21 52       	subi	r18, 0x21	; 33
    eaf8:	31 09       	sbc	r19, r1
    eafa:	40 91 57 04 	lds	r20, 0x0457	; 0x800457 <cursor_y>
    eafe:	50 91 58 04 	lds	r21, 0x0458	; 0x800458 <cursor_y+0x1>
    eb02:	24 17       	cp	r18, r20
    eb04:	35 07       	cpc	r19, r21
    eb06:	70 f4       	brcc	.+28     	; 0xeb24 <ILI9486_Print_String40x40+0x6e>
		{
			cursor_y=0;cursor_x+=font_h;
    eb08:	10 92 58 04 	sts	0x0458, r1	; 0x800458 <cursor_y+0x1>
    eb0c:	10 92 57 04 	sts	0x0457, r1	; 0x800457 <cursor_y>
    eb10:	20 91 59 04 	lds	r18, 0x0459	; 0x800459 <cursor_x>
    eb14:	30 91 5a 04 	lds	r19, 0x045A	; 0x80045a <cursor_x+0x1>
    eb18:	28 5d       	subi	r18, 0xD8	; 216
    eb1a:	3f 4f       	sbci	r19, 0xFF	; 255
    eb1c:	30 93 5a 04 	sts	0x045A, r19	; 0x80045a <cursor_x+0x1>
    eb20:	20 93 59 04 	sts	0x0459, r18	; 0x800459 <cursor_x>
		}

		if(cursor_x>Y_SIZE-font_h)
    eb24:	20 91 de 03 	lds	r18, 0x03DE	; 0x8003de <__data_end>
    eb28:	30 91 df 03 	lds	r19, 0x03DF	; 0x8003df <__data_end+0x1>
    eb2c:	28 52       	subi	r18, 0x28	; 40
    eb2e:	31 09       	sbc	r19, r1
    eb30:	40 91 59 04 	lds	r20, 0x0459	; 0x800459 <cursor_x>
    eb34:	50 91 5a 04 	lds	r21, 0x045A	; 0x80045a <cursor_x+0x1>
    eb38:	24 17       	cp	r18, r20
    eb3a:	35 07       	cpc	r19, r21
    eb3c:	40 f4       	brcc	.+16     	; 0xeb4e <ILI9486_Print_String40x40+0x98>
		{
			cursor_x=cursor_y=0;
    eb3e:	10 92 58 04 	sts	0x0458, r1	; 0x800458 <cursor_y+0x1>
    eb42:	10 92 57 04 	sts	0x0457, r1	; 0x800457 <cursor_y>
    eb46:	10 92 5a 04 	sts	0x045A, r1	; 0x80045a <cursor_x+0x1>
    eb4a:	10 92 59 04 	sts	0x0459, r1	; 0x800459 <cursor_x>
		}

		ILI9486_Print_Char40x40(cursor_y,cursor_x,*(string+i),TFT_STRING_MODE);
    eb4e:	fe 01       	movw	r30, r28
    eb50:	e8 0f       	add	r30, r24
    eb52:	f9 1f       	adc	r31, r25
    eb54:	60 91 59 04 	lds	r22, 0x0459	; 0x800459 <cursor_x>
    eb58:	70 91 5a 04 	lds	r23, 0x045A	; 0x80045a <cursor_x+0x1>
    eb5c:	20 2f       	mov	r18, r16
    eb5e:	40 81       	ld	r20, Z
    eb60:	80 91 57 04 	lds	r24, 0x0457	; 0x800457 <cursor_y>
    eb64:	90 91 58 04 	lds	r25, 0x0458	; 0x800458 <cursor_y+0x1>
    eb68:	e0 de       	rcall	.-576    	; 0xe92a <ILI9486_Print_Char40x40>
		cursor_y+=font_w;
    eb6a:	80 91 57 04 	lds	r24, 0x0457	; 0x800457 <cursor_y>
    eb6e:	90 91 58 04 	lds	r25, 0x0458	; 0x800458 <cursor_y+0x1>
    eb72:	81 96       	adiw	r24, 0x21	; 33
    eb74:	90 93 58 04 	sts	0x0458, r25	; 0x800458 <cursor_y+0x1>
    eb78:	80 93 57 04 	sts	0x0457, r24	; 0x800457 <cursor_y>
		i++;
    eb7c:	1f 5f       	subi	r17, 0xFF	; 255
{
	uint8_t i=0;
	uint8_t font_w=33;
	uint8_t font_h=40;

	while(*(string+i)!='\0')
    eb7e:	81 2f       	mov	r24, r17
    eb80:	90 e0       	ldi	r25, 0x00	; 0
    eb82:	fe 01       	movw	r30, r28
    eb84:	e8 0f       	add	r30, r24
    eb86:	f9 1f       	adc	r31, r25
    eb88:	20 81       	ld	r18, Z
    eb8a:	21 11       	cpse	r18, r1
    eb8c:	9c cf       	rjmp	.-200    	; 0xeac6 <ILI9486_Print_String40x40+0x10>

		ILI9486_Print_Char40x40(cursor_y,cursor_x,*(string+i),TFT_STRING_MODE);
		cursor_y+=font_w;
		i++;
	}
}
    eb8e:	df 91       	pop	r29
    eb90:	cf 91       	pop	r28
    eb92:	1f 91       	pop	r17
    eb94:	0f 91       	pop	r16
    eb96:	08 95       	ret

0000eb98 <ILI9486_Print_String18x32>:
void ILI9486_Print_String18x32(uint8_t *string,uint8_t TFT_STRING_MODE)
{
    eb98:	0f 93       	push	r16
    eb9a:	1f 93       	push	r17
    eb9c:	cf 93       	push	r28
    eb9e:	df 93       	push	r29
    eba0:	ec 01       	movw	r28, r24
    eba2:	06 2f       	mov	r16, r22
	uint8_t i=0;
    eba4:	10 e0       	ldi	r17, 0x00	; 0
	uint8_t font_w=18;
	uint8_t font_h=32;

	while(*(string+i)!='\0')
    eba6:	5c c0       	rjmp	.+184    	; 0xec60 <ILI9486_Print_String18x32+0xc8>
	{

		if(*(string+i)==0)
    eba8:	22 23       	and	r18, r18
    ebaa:	09 f4       	brne	.+2      	; 0xebae <ILI9486_Print_String18x32+0x16>
    ebac:	61 c0       	rjmp	.+194    	; 0xec70 <ILI9486_Print_String18x32+0xd8>
		{
			return;
		}

		if(*(string+i)=='\n')
    ebae:	2a 30       	cpi	r18, 0x0A	; 10
    ebb0:	79 f4       	brne	.+30     	; 0xebd0 <ILI9486_Print_String18x32+0x38>
		{
			cursor_x+=font_h;
    ebb2:	20 91 59 04 	lds	r18, 0x0459	; 0x800459 <cursor_x>
    ebb6:	30 91 5a 04 	lds	r19, 0x045A	; 0x80045a <cursor_x+0x1>
    ebba:	20 5e       	subi	r18, 0xE0	; 224
    ebbc:	3f 4f       	sbci	r19, 0xFF	; 255
    ebbe:	30 93 5a 04 	sts	0x045A, r19	; 0x80045a <cursor_x+0x1>
    ebc2:	20 93 59 04 	sts	0x0459, r18	; 0x800459 <cursor_x>
			cursor_y=0;
    ebc6:	10 92 58 04 	sts	0x0458, r1	; 0x800458 <cursor_y+0x1>
    ebca:	10 92 57 04 	sts	0x0457, r1	; 0x800457 <cursor_y>
			string++;
    ebce:	21 96       	adiw	r28, 0x01	; 1
		}

		if(cursor_y>X_SIZE-font_w)
    ebd0:	20 91 e0 03 	lds	r18, 0x03E0	; 0x8003e0 <X_SIZE>
    ebd4:	30 91 e1 03 	lds	r19, 0x03E1	; 0x8003e1 <X_SIZE+0x1>
    ebd8:	22 51       	subi	r18, 0x12	; 18
    ebda:	31 09       	sbc	r19, r1
    ebdc:	40 91 57 04 	lds	r20, 0x0457	; 0x800457 <cursor_y>
    ebe0:	50 91 58 04 	lds	r21, 0x0458	; 0x800458 <cursor_y+0x1>
    ebe4:	24 17       	cp	r18, r20
    ebe6:	35 07       	cpc	r19, r21
    ebe8:	70 f4       	brcc	.+28     	; 0xec06 <ILI9486_Print_String18x32+0x6e>
		{
			cursor_y=0;cursor_x+=font_h;
    ebea:	10 92 58 04 	sts	0x0458, r1	; 0x800458 <cursor_y+0x1>
    ebee:	10 92 57 04 	sts	0x0457, r1	; 0x800457 <cursor_y>
    ebf2:	20 91 59 04 	lds	r18, 0x0459	; 0x800459 <cursor_x>
    ebf6:	30 91 5a 04 	lds	r19, 0x045A	; 0x80045a <cursor_x+0x1>
    ebfa:	20 5e       	subi	r18, 0xE0	; 224
    ebfc:	3f 4f       	sbci	r19, 0xFF	; 255
    ebfe:	30 93 5a 04 	sts	0x045A, r19	; 0x80045a <cursor_x+0x1>
    ec02:	20 93 59 04 	sts	0x0459, r18	; 0x800459 <cursor_x>
		}

		if(cursor_x>Y_SIZE-font_h)
    ec06:	20 91 de 03 	lds	r18, 0x03DE	; 0x8003de <__data_end>
    ec0a:	30 91 df 03 	lds	r19, 0x03DF	; 0x8003df <__data_end+0x1>
    ec0e:	20 52       	subi	r18, 0x20	; 32
    ec10:	31 09       	sbc	r19, r1
    ec12:	40 91 59 04 	lds	r20, 0x0459	; 0x800459 <cursor_x>
    ec16:	50 91 5a 04 	lds	r21, 0x045A	; 0x80045a <cursor_x+0x1>
    ec1a:	24 17       	cp	r18, r20
    ec1c:	35 07       	cpc	r19, r21
    ec1e:	40 f4       	brcc	.+16     	; 0xec30 <ILI9486_Print_String18x32+0x98>
		{
			cursor_x=cursor_y=0;
    ec20:	10 92 58 04 	sts	0x0458, r1	; 0x800458 <cursor_y+0x1>
    ec24:	10 92 57 04 	sts	0x0457, r1	; 0x800457 <cursor_y>
    ec28:	10 92 5a 04 	sts	0x045A, r1	; 0x80045a <cursor_x+0x1>
    ec2c:	10 92 59 04 	sts	0x0459, r1	; 0x800459 <cursor_x>
		}

		ILI9486_Print_Char18x32(cursor_y,cursor_x,*(string+i),TFT_STRING_MODE);
    ec30:	fe 01       	movw	r30, r28
    ec32:	e8 0f       	add	r30, r24
    ec34:	f9 1f       	adc	r31, r25
    ec36:	60 91 59 04 	lds	r22, 0x0459	; 0x800459 <cursor_x>
    ec3a:	70 91 5a 04 	lds	r23, 0x045A	; 0x80045a <cursor_x+0x1>
    ec3e:	20 2f       	mov	r18, r16
    ec40:	40 81       	ld	r20, Z
    ec42:	80 91 57 04 	lds	r24, 0x0457	; 0x800457 <cursor_y>
    ec46:	90 91 58 04 	lds	r25, 0x0458	; 0x800458 <cursor_y+0x1>
    ec4a:	9a db       	rcall	.-2252   	; 0xe380 <ILI9486_Print_Char18x32>
		cursor_y+=font_w;
    ec4c:	80 91 57 04 	lds	r24, 0x0457	; 0x800457 <cursor_y>
    ec50:	90 91 58 04 	lds	r25, 0x0458	; 0x800458 <cursor_y+0x1>
    ec54:	42 96       	adiw	r24, 0x12	; 18
    ec56:	90 93 58 04 	sts	0x0458, r25	; 0x800458 <cursor_y+0x1>
    ec5a:	80 93 57 04 	sts	0x0457, r24	; 0x800457 <cursor_y>
		i++;
    ec5e:	1f 5f       	subi	r17, 0xFF	; 255
{
	uint8_t i=0;
	uint8_t font_w=18;
	uint8_t font_h=32;

	while(*(string+i)!='\0')
    ec60:	81 2f       	mov	r24, r17
    ec62:	90 e0       	ldi	r25, 0x00	; 0
    ec64:	fe 01       	movw	r30, r28
    ec66:	e8 0f       	add	r30, r24
    ec68:	f9 1f       	adc	r31, r25
    ec6a:	20 81       	ld	r18, Z
    ec6c:	21 11       	cpse	r18, r1
    ec6e:	9c cf       	rjmp	.-200    	; 0xeba8 <ILI9486_Print_String18x32+0x10>

		ILI9486_Print_Char18x32(cursor_y,cursor_x,*(string+i),TFT_STRING_MODE);
		cursor_y+=font_w;
		i++;
	}
}
    ec70:	df 91       	pop	r29
    ec72:	cf 91       	pop	r28
    ec74:	1f 91       	pop	r17
    ec76:	0f 91       	pop	r16
    ec78:	08 95       	ret

0000ec7a <ILI9486_Print_String32x32>:
void ILI9486_Print_String32x32(uint8_t *string,uint8_t TFT_STRING_MODE)
{
    ec7a:	0f 93       	push	r16
    ec7c:	1f 93       	push	r17
    ec7e:	cf 93       	push	r28
    ec80:	df 93       	push	r29
    ec82:	ec 01       	movw	r28, r24
    ec84:	06 2f       	mov	r16, r22
	uint8_t i=0;
    ec86:	10 e0       	ldi	r17, 0x00	; 0
	uint8_t font_w=25;
	uint8_t font_h=32;

	while(*(string+i)!='\0')
    ec88:	5c c0       	rjmp	.+184    	; 0xed42 <ILI9486_Print_String32x32+0xc8>
	{

		if(*(string+i)==0)
    ec8a:	22 23       	and	r18, r18
    ec8c:	09 f4       	brne	.+2      	; 0xec90 <ILI9486_Print_String32x32+0x16>
    ec8e:	61 c0       	rjmp	.+194    	; 0xed52 <ILI9486_Print_String32x32+0xd8>
		{
			return;
		}

		if(*(string+i)=='\n')
    ec90:	2a 30       	cpi	r18, 0x0A	; 10
    ec92:	79 f4       	brne	.+30     	; 0xecb2 <ILI9486_Print_String32x32+0x38>
		{
			cursor_x+=font_h;
    ec94:	20 91 59 04 	lds	r18, 0x0459	; 0x800459 <cursor_x>
    ec98:	30 91 5a 04 	lds	r19, 0x045A	; 0x80045a <cursor_x+0x1>
    ec9c:	20 5e       	subi	r18, 0xE0	; 224
    ec9e:	3f 4f       	sbci	r19, 0xFF	; 255
    eca0:	30 93 5a 04 	sts	0x045A, r19	; 0x80045a <cursor_x+0x1>
    eca4:	20 93 59 04 	sts	0x0459, r18	; 0x800459 <cursor_x>
			cursor_y=0;
    eca8:	10 92 58 04 	sts	0x0458, r1	; 0x800458 <cursor_y+0x1>
    ecac:	10 92 57 04 	sts	0x0457, r1	; 0x800457 <cursor_y>
			string++;
    ecb0:	21 96       	adiw	r28, 0x01	; 1
		}

		if(cursor_y>X_SIZE-font_w)
    ecb2:	20 91 e0 03 	lds	r18, 0x03E0	; 0x8003e0 <X_SIZE>
    ecb6:	30 91 e1 03 	lds	r19, 0x03E1	; 0x8003e1 <X_SIZE+0x1>
    ecba:	29 51       	subi	r18, 0x19	; 25
    ecbc:	31 09       	sbc	r19, r1
    ecbe:	40 91 57 04 	lds	r20, 0x0457	; 0x800457 <cursor_y>
    ecc2:	50 91 58 04 	lds	r21, 0x0458	; 0x800458 <cursor_y+0x1>
    ecc6:	24 17       	cp	r18, r20
    ecc8:	35 07       	cpc	r19, r21
    ecca:	70 f4       	brcc	.+28     	; 0xece8 <ILI9486_Print_String32x32+0x6e>
		{
			cursor_y=0;cursor_x+=font_h;
    eccc:	10 92 58 04 	sts	0x0458, r1	; 0x800458 <cursor_y+0x1>
    ecd0:	10 92 57 04 	sts	0x0457, r1	; 0x800457 <cursor_y>
    ecd4:	20 91 59 04 	lds	r18, 0x0459	; 0x800459 <cursor_x>
    ecd8:	30 91 5a 04 	lds	r19, 0x045A	; 0x80045a <cursor_x+0x1>
    ecdc:	20 5e       	subi	r18, 0xE0	; 224
    ecde:	3f 4f       	sbci	r19, 0xFF	; 255
    ece0:	30 93 5a 04 	sts	0x045A, r19	; 0x80045a <cursor_x+0x1>
    ece4:	20 93 59 04 	sts	0x0459, r18	; 0x800459 <cursor_x>
		}

		if(cursor_x>Y_SIZE-font_h)
    ece8:	20 91 de 03 	lds	r18, 0x03DE	; 0x8003de <__data_end>
    ecec:	30 91 df 03 	lds	r19, 0x03DF	; 0x8003df <__data_end+0x1>
    ecf0:	20 52       	subi	r18, 0x20	; 32
    ecf2:	31 09       	sbc	r19, r1
    ecf4:	40 91 59 04 	lds	r20, 0x0459	; 0x800459 <cursor_x>
    ecf8:	50 91 5a 04 	lds	r21, 0x045A	; 0x80045a <cursor_x+0x1>
    ecfc:	24 17       	cp	r18, r20
    ecfe:	35 07       	cpc	r19, r21
    ed00:	40 f4       	brcc	.+16     	; 0xed12 <ILI9486_Print_String32x32+0x98>
		{
			cursor_x=cursor_y=0;
    ed02:	10 92 58 04 	sts	0x0458, r1	; 0x800458 <cursor_y+0x1>
    ed06:	10 92 57 04 	sts	0x0457, r1	; 0x800457 <cursor_y>
    ed0a:	10 92 5a 04 	sts	0x045A, r1	; 0x80045a <cursor_x+0x1>
    ed0e:	10 92 59 04 	sts	0x0459, r1	; 0x800459 <cursor_x>
		}

		ILI9486_Print_Char32x32(cursor_y,cursor_x,*(string+i),TFT_STRING_MODE);
    ed12:	fe 01       	movw	r30, r28
    ed14:	e8 0f       	add	r30, r24
    ed16:	f9 1f       	adc	r31, r25
    ed18:	60 91 59 04 	lds	r22, 0x0459	; 0x800459 <cursor_x>
    ed1c:	70 91 5a 04 	lds	r23, 0x045A	; 0x80045a <cursor_x+0x1>
    ed20:	20 2f       	mov	r18, r16
    ed22:	40 81       	ld	r20, Z
    ed24:	80 91 57 04 	lds	r24, 0x0457	; 0x800457 <cursor_y>
    ed28:	90 91 58 04 	lds	r25, 0x0458	; 0x800458 <cursor_y+0x1>
    ed2c:	df db       	rcall	.-2114   	; 0xe4ec <ILI9486_Print_Char32x32>
		cursor_y+=font_w;
    ed2e:	80 91 57 04 	lds	r24, 0x0457	; 0x800457 <cursor_y>
    ed32:	90 91 58 04 	lds	r25, 0x0458	; 0x800458 <cursor_y+0x1>
    ed36:	49 96       	adiw	r24, 0x19	; 25
    ed38:	90 93 58 04 	sts	0x0458, r25	; 0x800458 <cursor_y+0x1>
    ed3c:	80 93 57 04 	sts	0x0457, r24	; 0x800457 <cursor_y>
		i++;
    ed40:	1f 5f       	subi	r17, 0xFF	; 255
{
	uint8_t i=0;
	uint8_t font_w=25;
	uint8_t font_h=32;

	while(*(string+i)!='\0')
    ed42:	81 2f       	mov	r24, r17
    ed44:	90 e0       	ldi	r25, 0x00	; 0
    ed46:	fe 01       	movw	r30, r28
    ed48:	e8 0f       	add	r30, r24
    ed4a:	f9 1f       	adc	r31, r25
    ed4c:	20 81       	ld	r18, Z
    ed4e:	21 11       	cpse	r18, r1
    ed50:	9c cf       	rjmp	.-200    	; 0xec8a <ILI9486_Print_String32x32+0x10>

		ILI9486_Print_Char32x32(cursor_y,cursor_x,*(string+i),TFT_STRING_MODE);
		cursor_y+=font_w;
		i++;
	}
}
    ed52:	df 91       	pop	r29
    ed54:	cf 91       	pop	r28
    ed56:	1f 91       	pop	r17
    ed58:	0f 91       	pop	r16
    ed5a:	08 95       	ret

0000ed5c <ILI9486_Print_String24x32>:
void ILI9486_Print_String24x32(uint8_t *string,uint8_t TFT_STRING_MODE)
{
    ed5c:	0f 93       	push	r16
    ed5e:	1f 93       	push	r17
    ed60:	cf 93       	push	r28
    ed62:	df 93       	push	r29
    ed64:	ec 01       	movw	r28, r24
    ed66:	06 2f       	mov	r16, r22
	uint8_t i=0;
    ed68:	10 e0       	ldi	r17, 0x00	; 0
	uint8_t font_w=25;
	uint8_t font_h=25;

	while(*(string+i)!='\0')
    ed6a:	5c c0       	rjmp	.+184    	; 0xee24 <ILI9486_Print_String24x32+0xc8>
	{

		if(*(string+i)==0)
    ed6c:	22 23       	and	r18, r18
    ed6e:	09 f4       	brne	.+2      	; 0xed72 <ILI9486_Print_String24x32+0x16>
    ed70:	61 c0       	rjmp	.+194    	; 0xee34 <ILI9486_Print_String24x32+0xd8>
		{
			return;
		}

		if(*(string+i)=='\n')
    ed72:	2a 30       	cpi	r18, 0x0A	; 10
    ed74:	79 f4       	brne	.+30     	; 0xed94 <ILI9486_Print_String24x32+0x38>
		{
			cursor_x+=font_h;
    ed76:	20 91 59 04 	lds	r18, 0x0459	; 0x800459 <cursor_x>
    ed7a:	30 91 5a 04 	lds	r19, 0x045A	; 0x80045a <cursor_x+0x1>
    ed7e:	27 5e       	subi	r18, 0xE7	; 231
    ed80:	3f 4f       	sbci	r19, 0xFF	; 255
    ed82:	30 93 5a 04 	sts	0x045A, r19	; 0x80045a <cursor_x+0x1>
    ed86:	20 93 59 04 	sts	0x0459, r18	; 0x800459 <cursor_x>
			cursor_y=0;
    ed8a:	10 92 58 04 	sts	0x0458, r1	; 0x800458 <cursor_y+0x1>
    ed8e:	10 92 57 04 	sts	0x0457, r1	; 0x800457 <cursor_y>
			string++;
    ed92:	21 96       	adiw	r28, 0x01	; 1
		}

		if(cursor_y>X_SIZE-font_w)
    ed94:	20 91 e0 03 	lds	r18, 0x03E0	; 0x8003e0 <X_SIZE>
    ed98:	30 91 e1 03 	lds	r19, 0x03E1	; 0x8003e1 <X_SIZE+0x1>
    ed9c:	29 51       	subi	r18, 0x19	; 25
    ed9e:	31 09       	sbc	r19, r1
    eda0:	40 91 57 04 	lds	r20, 0x0457	; 0x800457 <cursor_y>
    eda4:	50 91 58 04 	lds	r21, 0x0458	; 0x800458 <cursor_y+0x1>
    eda8:	24 17       	cp	r18, r20
    edaa:	35 07       	cpc	r19, r21
    edac:	70 f4       	brcc	.+28     	; 0xedca <ILI9486_Print_String24x32+0x6e>
		{
			cursor_y=0;cursor_x+=font_h;
    edae:	10 92 58 04 	sts	0x0458, r1	; 0x800458 <cursor_y+0x1>
    edb2:	10 92 57 04 	sts	0x0457, r1	; 0x800457 <cursor_y>
    edb6:	20 91 59 04 	lds	r18, 0x0459	; 0x800459 <cursor_x>
    edba:	30 91 5a 04 	lds	r19, 0x045A	; 0x80045a <cursor_x+0x1>
    edbe:	27 5e       	subi	r18, 0xE7	; 231
    edc0:	3f 4f       	sbci	r19, 0xFF	; 255
    edc2:	30 93 5a 04 	sts	0x045A, r19	; 0x80045a <cursor_x+0x1>
    edc6:	20 93 59 04 	sts	0x0459, r18	; 0x800459 <cursor_x>
		}

		if(cursor_x>Y_SIZE-font_h)
    edca:	20 91 de 03 	lds	r18, 0x03DE	; 0x8003de <__data_end>
    edce:	30 91 df 03 	lds	r19, 0x03DF	; 0x8003df <__data_end+0x1>
    edd2:	29 51       	subi	r18, 0x19	; 25
    edd4:	31 09       	sbc	r19, r1
    edd6:	40 91 59 04 	lds	r20, 0x0459	; 0x800459 <cursor_x>
    edda:	50 91 5a 04 	lds	r21, 0x045A	; 0x80045a <cursor_x+0x1>
    edde:	24 17       	cp	r18, r20
    ede0:	35 07       	cpc	r19, r21
    ede2:	40 f4       	brcc	.+16     	; 0xedf4 <ILI9486_Print_String24x32+0x98>
		{
			cursor_x=cursor_y=0;
    ede4:	10 92 58 04 	sts	0x0458, r1	; 0x800458 <cursor_y+0x1>
    ede8:	10 92 57 04 	sts	0x0457, r1	; 0x800457 <cursor_y>
    edec:	10 92 5a 04 	sts	0x045A, r1	; 0x80045a <cursor_x+0x1>
    edf0:	10 92 59 04 	sts	0x0459, r1	; 0x800459 <cursor_x>
		}

		ILI9486_Print_Char24x32(cursor_y,cursor_x,*(string+i),TFT_STRING_MODE);
    edf4:	fe 01       	movw	r30, r28
    edf6:	e8 0f       	add	r30, r24
    edf8:	f9 1f       	adc	r31, r25
    edfa:	60 91 59 04 	lds	r22, 0x0459	; 0x800459 <cursor_x>
    edfe:	70 91 5a 04 	lds	r23, 0x045A	; 0x80045a <cursor_x+0x1>
    ee02:	20 2f       	mov	r18, r16
    ee04:	40 81       	ld	r20, Z
    ee06:	80 91 57 04 	lds	r24, 0x0457	; 0x800457 <cursor_y>
    ee0a:	90 91 58 04 	lds	r25, 0x0458	; 0x800458 <cursor_y+0x1>
    ee0e:	1d dc       	rcall	.-1990   	; 0xe64a <ILI9486_Print_Char24x32>
		cursor_y+=font_w;
    ee10:	80 91 57 04 	lds	r24, 0x0457	; 0x800457 <cursor_y>
    ee14:	90 91 58 04 	lds	r25, 0x0458	; 0x800458 <cursor_y+0x1>
    ee18:	49 96       	adiw	r24, 0x19	; 25
    ee1a:	90 93 58 04 	sts	0x0458, r25	; 0x800458 <cursor_y+0x1>
    ee1e:	80 93 57 04 	sts	0x0457, r24	; 0x800457 <cursor_y>
		i++;
    ee22:	1f 5f       	subi	r17, 0xFF	; 255
{
	uint8_t i=0;
	uint8_t font_w=25;
	uint8_t font_h=25;

	while(*(string+i)!='\0')
    ee24:	81 2f       	mov	r24, r17
    ee26:	90 e0       	ldi	r25, 0x00	; 0
    ee28:	fe 01       	movw	r30, r28
    ee2a:	e8 0f       	add	r30, r24
    ee2c:	f9 1f       	adc	r31, r25
    ee2e:	20 81       	ld	r18, Z
    ee30:	21 11       	cpse	r18, r1
    ee32:	9c cf       	rjmp	.-200    	; 0xed6c <ILI9486_Print_String24x32+0x10>

		ILI9486_Print_Char24x32(cursor_y,cursor_x,*(string+i),TFT_STRING_MODE);
		cursor_y+=font_w;
		i++;
	}
}
    ee34:	df 91       	pop	r29
    ee36:	cf 91       	pop	r28
    ee38:	1f 91       	pop	r17
    ee3a:	0f 91       	pop	r16
    ee3c:	08 95       	ret

0000ee3e <ILI9486_Print_String32x48>:
void ILI9486_Print_String32x48(uint8_t *string,uint8_t TFT_STRING_MODE)
{
    ee3e:	0f 93       	push	r16
    ee40:	1f 93       	push	r17
    ee42:	cf 93       	push	r28
    ee44:	df 93       	push	r29
    ee46:	ec 01       	movw	r28, r24
    ee48:	06 2f       	mov	r16, r22
	uint8_t i=0;
    ee4a:	10 e0       	ldi	r17, 0x00	; 0
	uint8_t font_w=30;
	uint8_t font_h=40;

	while(*(string+i)!='\0')
    ee4c:	5c c0       	rjmp	.+184    	; 0xef06 <ILI9486_Print_String32x48+0xc8>
	{

		if(*(string+i)==0)
    ee4e:	22 23       	and	r18, r18
    ee50:	09 f4       	brne	.+2      	; 0xee54 <ILI9486_Print_String32x48+0x16>
    ee52:	61 c0       	rjmp	.+194    	; 0xef16 <ILI9486_Print_String32x48+0xd8>
		{
			return;
		}

		if(*(string+i)=='\n')
    ee54:	2a 30       	cpi	r18, 0x0A	; 10
    ee56:	79 f4       	brne	.+30     	; 0xee76 <ILI9486_Print_String32x48+0x38>
		{
			cursor_x+=font_h;
    ee58:	20 91 59 04 	lds	r18, 0x0459	; 0x800459 <cursor_x>
    ee5c:	30 91 5a 04 	lds	r19, 0x045A	; 0x80045a <cursor_x+0x1>
    ee60:	28 5d       	subi	r18, 0xD8	; 216
    ee62:	3f 4f       	sbci	r19, 0xFF	; 255
    ee64:	30 93 5a 04 	sts	0x045A, r19	; 0x80045a <cursor_x+0x1>
    ee68:	20 93 59 04 	sts	0x0459, r18	; 0x800459 <cursor_x>
			cursor_y=0;
    ee6c:	10 92 58 04 	sts	0x0458, r1	; 0x800458 <cursor_y+0x1>
    ee70:	10 92 57 04 	sts	0x0457, r1	; 0x800457 <cursor_y>
			string++;
    ee74:	21 96       	adiw	r28, 0x01	; 1
		}

		if(cursor_y>X_SIZE-font_w)
    ee76:	20 91 e0 03 	lds	r18, 0x03E0	; 0x8003e0 <X_SIZE>
    ee7a:	30 91 e1 03 	lds	r19, 0x03E1	; 0x8003e1 <X_SIZE+0x1>
    ee7e:	2e 51       	subi	r18, 0x1E	; 30
    ee80:	31 09       	sbc	r19, r1
    ee82:	40 91 57 04 	lds	r20, 0x0457	; 0x800457 <cursor_y>
    ee86:	50 91 58 04 	lds	r21, 0x0458	; 0x800458 <cursor_y+0x1>
    ee8a:	24 17       	cp	r18, r20
    ee8c:	35 07       	cpc	r19, r21
    ee8e:	70 f4       	brcc	.+28     	; 0xeeac <ILI9486_Print_String32x48+0x6e>
		{
			cursor_y=0;cursor_x+=font_h;
    ee90:	10 92 58 04 	sts	0x0458, r1	; 0x800458 <cursor_y+0x1>
    ee94:	10 92 57 04 	sts	0x0457, r1	; 0x800457 <cursor_y>
    ee98:	20 91 59 04 	lds	r18, 0x0459	; 0x800459 <cursor_x>
    ee9c:	30 91 5a 04 	lds	r19, 0x045A	; 0x80045a <cursor_x+0x1>
    eea0:	28 5d       	subi	r18, 0xD8	; 216
    eea2:	3f 4f       	sbci	r19, 0xFF	; 255
    eea4:	30 93 5a 04 	sts	0x045A, r19	; 0x80045a <cursor_x+0x1>
    eea8:	20 93 59 04 	sts	0x0459, r18	; 0x800459 <cursor_x>
		}

		if(cursor_x>Y_SIZE-font_h)
    eeac:	20 91 de 03 	lds	r18, 0x03DE	; 0x8003de <__data_end>
    eeb0:	30 91 df 03 	lds	r19, 0x03DF	; 0x8003df <__data_end+0x1>
    eeb4:	28 52       	subi	r18, 0x28	; 40
    eeb6:	31 09       	sbc	r19, r1
    eeb8:	40 91 59 04 	lds	r20, 0x0459	; 0x800459 <cursor_x>
    eebc:	50 91 5a 04 	lds	r21, 0x045A	; 0x80045a <cursor_x+0x1>
    eec0:	24 17       	cp	r18, r20
    eec2:	35 07       	cpc	r19, r21
    eec4:	40 f4       	brcc	.+16     	; 0xeed6 <ILI9486_Print_String32x48+0x98>
		{
			cursor_x=cursor_y=0;
    eec6:	10 92 58 04 	sts	0x0458, r1	; 0x800458 <cursor_y+0x1>
    eeca:	10 92 57 04 	sts	0x0457, r1	; 0x800457 <cursor_y>
    eece:	10 92 5a 04 	sts	0x045A, r1	; 0x80045a <cursor_x+0x1>
    eed2:	10 92 59 04 	sts	0x0459, r1	; 0x800459 <cursor_x>
		}

		ILI9486_Print_Char32x48(cursor_y,cursor_x,*(string+i),TFT_STRING_MODE);
    eed6:	fe 01       	movw	r30, r28
    eed8:	e8 0f       	add	r30, r24
    eeda:	f9 1f       	adc	r31, r25
    eedc:	60 91 59 04 	lds	r22, 0x0459	; 0x800459 <cursor_x>
    eee0:	70 91 5a 04 	lds	r23, 0x045A	; 0x80045a <cursor_x+0x1>
    eee4:	20 2f       	mov	r18, r16
    eee6:	40 81       	ld	r20, Z
    eee8:	80 91 57 04 	lds	r24, 0x0457	; 0x800457 <cursor_y>
    eeec:	90 91 58 04 	lds	r25, 0x0458	; 0x800458 <cursor_y+0x1>
    eef0:	5f dc       	rcall	.-1858   	; 0xe7b0 <ILI9486_Print_Char32x48>
		cursor_y+=font_w;
    eef2:	80 91 57 04 	lds	r24, 0x0457	; 0x800457 <cursor_y>
    eef6:	90 91 58 04 	lds	r25, 0x0458	; 0x800458 <cursor_y+0x1>
    eefa:	4e 96       	adiw	r24, 0x1e	; 30
    eefc:	90 93 58 04 	sts	0x0458, r25	; 0x800458 <cursor_y+0x1>
    ef00:	80 93 57 04 	sts	0x0457, r24	; 0x800457 <cursor_y>
		i++;
    ef04:	1f 5f       	subi	r17, 0xFF	; 255
{
	uint8_t i=0;
	uint8_t font_w=30;
	uint8_t font_h=40;

	while(*(string+i)!='\0')
    ef06:	81 2f       	mov	r24, r17
    ef08:	90 e0       	ldi	r25, 0x00	; 0
    ef0a:	fe 01       	movw	r30, r28
    ef0c:	e8 0f       	add	r30, r24
    ef0e:	f9 1f       	adc	r31, r25
    ef10:	20 81       	ld	r18, Z
    ef12:	21 11       	cpse	r18, r1
    ef14:	9c cf       	rjmp	.-200    	; 0xee4e <ILI9486_Print_String32x48+0x10>

		ILI9486_Print_Char32x48(cursor_y,cursor_x,*(string+i),TFT_STRING_MODE);
		cursor_y+=font_w;
		i++;
	}
}
    ef16:	df 91       	pop	r29
    ef18:	cf 91       	pop	r28
    ef1a:	1f 91       	pop	r17
    ef1c:	0f 91       	pop	r16
    ef1e:	08 95       	ret

0000ef20 <ILI9486_Print_String14x24>:
void ILI9486_Print_String14x24(uint8_t *string,uint8_t TFT_STRING_MODE)
{
    ef20:	0f 93       	push	r16
    ef22:	1f 93       	push	r17
    ef24:	cf 93       	push	r28
    ef26:	df 93       	push	r29
    ef28:	ec 01       	movw	r28, r24
    ef2a:	06 2f       	mov	r16, r22
	uint8_t i=0;
    ef2c:	10 e0       	ldi	r17, 0x00	; 0
	uint8_t font_w=14;
	uint8_t font_h=24;

	while(*(string+i)!='\0')
    ef2e:	5c c0       	rjmp	.+184    	; 0xefe8 <ILI9486_Print_String14x24+0xc8>
	{

		if(*(string+i)==0)
    ef30:	22 23       	and	r18, r18
    ef32:	09 f4       	brne	.+2      	; 0xef36 <ILI9486_Print_String14x24+0x16>
    ef34:	61 c0       	rjmp	.+194    	; 0xeff8 <ILI9486_Print_String14x24+0xd8>
		{
			return;
		}

		if(*(string+i)=='\n')
    ef36:	2a 30       	cpi	r18, 0x0A	; 10
    ef38:	79 f4       	brne	.+30     	; 0xef58 <ILI9486_Print_String14x24+0x38>
		{
			cursor_x+=font_h;
    ef3a:	20 91 59 04 	lds	r18, 0x0459	; 0x800459 <cursor_x>
    ef3e:	30 91 5a 04 	lds	r19, 0x045A	; 0x80045a <cursor_x+0x1>
    ef42:	28 5e       	subi	r18, 0xE8	; 232
    ef44:	3f 4f       	sbci	r19, 0xFF	; 255
    ef46:	30 93 5a 04 	sts	0x045A, r19	; 0x80045a <cursor_x+0x1>
    ef4a:	20 93 59 04 	sts	0x0459, r18	; 0x800459 <cursor_x>
			cursor_y=0;
    ef4e:	10 92 58 04 	sts	0x0458, r1	; 0x800458 <cursor_y+0x1>
    ef52:	10 92 57 04 	sts	0x0457, r1	; 0x800457 <cursor_y>
			string++;
    ef56:	21 96       	adiw	r28, 0x01	; 1
		}

		if(cursor_y>X_SIZE-font_w)
    ef58:	20 91 e0 03 	lds	r18, 0x03E0	; 0x8003e0 <X_SIZE>
    ef5c:	30 91 e1 03 	lds	r19, 0x03E1	; 0x8003e1 <X_SIZE+0x1>
    ef60:	2e 50       	subi	r18, 0x0E	; 14
    ef62:	31 09       	sbc	r19, r1
    ef64:	40 91 57 04 	lds	r20, 0x0457	; 0x800457 <cursor_y>
    ef68:	50 91 58 04 	lds	r21, 0x0458	; 0x800458 <cursor_y+0x1>
    ef6c:	24 17       	cp	r18, r20
    ef6e:	35 07       	cpc	r19, r21
    ef70:	70 f4       	brcc	.+28     	; 0xef8e <ILI9486_Print_String14x24+0x6e>
		{
			cursor_y=0;cursor_x+=font_h;
    ef72:	10 92 58 04 	sts	0x0458, r1	; 0x800458 <cursor_y+0x1>
    ef76:	10 92 57 04 	sts	0x0457, r1	; 0x800457 <cursor_y>
    ef7a:	20 91 59 04 	lds	r18, 0x0459	; 0x800459 <cursor_x>
    ef7e:	30 91 5a 04 	lds	r19, 0x045A	; 0x80045a <cursor_x+0x1>
    ef82:	28 5e       	subi	r18, 0xE8	; 232
    ef84:	3f 4f       	sbci	r19, 0xFF	; 255
    ef86:	30 93 5a 04 	sts	0x045A, r19	; 0x80045a <cursor_x+0x1>
    ef8a:	20 93 59 04 	sts	0x0459, r18	; 0x800459 <cursor_x>
		}

		if(cursor_x>Y_SIZE-font_h)
    ef8e:	20 91 de 03 	lds	r18, 0x03DE	; 0x8003de <__data_end>
    ef92:	30 91 df 03 	lds	r19, 0x03DF	; 0x8003df <__data_end+0x1>
    ef96:	28 51       	subi	r18, 0x18	; 24
    ef98:	31 09       	sbc	r19, r1
    ef9a:	40 91 59 04 	lds	r20, 0x0459	; 0x800459 <cursor_x>
    ef9e:	50 91 5a 04 	lds	r21, 0x045A	; 0x80045a <cursor_x+0x1>
    efa2:	24 17       	cp	r18, r20
    efa4:	35 07       	cpc	r19, r21
    efa6:	40 f4       	brcc	.+16     	; 0xefb8 <ILI9486_Print_String14x24+0x98>
		{
			cursor_x=cursor_y=0;
    efa8:	10 92 58 04 	sts	0x0458, r1	; 0x800458 <cursor_y+0x1>
    efac:	10 92 57 04 	sts	0x0457, r1	; 0x800457 <cursor_y>
    efb0:	10 92 5a 04 	sts	0x045A, r1	; 0x80045a <cursor_x+0x1>
    efb4:	10 92 59 04 	sts	0x0459, r1	; 0x800459 <cursor_x>
		}

		ILI9486_Print_Char14x24(cursor_y,cursor_x,*(string+i),TFT_STRING_MODE);
    efb8:	fe 01       	movw	r30, r28
    efba:	e8 0f       	add	r30, r24
    efbc:	f9 1f       	adc	r31, r25
    efbe:	60 91 59 04 	lds	r22, 0x0459	; 0x800459 <cursor_x>
    efc2:	70 91 5a 04 	lds	r23, 0x045A	; 0x80045a <cursor_x+0x1>
    efc6:	20 2f       	mov	r18, r16
    efc8:	40 81       	ld	r20, Z
    efca:	80 91 57 04 	lds	r24, 0x0457	; 0x800457 <cursor_y>
    efce:	90 91 58 04 	lds	r25, 0x0458	; 0x800458 <cursor_y+0x1>
    efd2:	1f d9       	rcall	.-3522   	; 0xe212 <ILI9486_Print_Char14x24>
		cursor_y+=font_w;
    efd4:	80 91 57 04 	lds	r24, 0x0457	; 0x800457 <cursor_y>
    efd8:	90 91 58 04 	lds	r25, 0x0458	; 0x800458 <cursor_y+0x1>
    efdc:	0e 96       	adiw	r24, 0x0e	; 14
    efde:	90 93 58 04 	sts	0x0458, r25	; 0x800458 <cursor_y+0x1>
    efe2:	80 93 57 04 	sts	0x0457, r24	; 0x800457 <cursor_y>
		i++;
    efe6:	1f 5f       	subi	r17, 0xFF	; 255
{
	uint8_t i=0;
	uint8_t font_w=14;
	uint8_t font_h=24;

	while(*(string+i)!='\0')
    efe8:	81 2f       	mov	r24, r17
    efea:	90 e0       	ldi	r25, 0x00	; 0
    efec:	fe 01       	movw	r30, r28
    efee:	e8 0f       	add	r30, r24
    eff0:	f9 1f       	adc	r31, r25
    eff2:	20 81       	ld	r18, Z
    eff4:	21 11       	cpse	r18, r1
    eff6:	9c cf       	rjmp	.-200    	; 0xef30 <ILI9486_Print_String14x24+0x10>

		ILI9486_Print_Char14x24(cursor_y,cursor_x,*(string+i),TFT_STRING_MODE);
		cursor_y+=font_w;
		i++;
	}
}
    eff8:	df 91       	pop	r29
    effa:	cf 91       	pop	r28
    effc:	1f 91       	pop	r17
    effe:	0f 91       	pop	r16
    f000:	08 95       	ret

0000f002 <timer1_ini>:
	TCCR2B |= (1<<CS22)|(1<<CS21);//  256.
}*/
//-------------------------------------------------------------
void timer1_ini(void)// 1
{
	TCCR1B |= (1<<WGM12); //    (  )
    f002:	e1 e8       	ldi	r30, 0x81	; 129
    f004:	f0 e0       	ldi	r31, 0x00	; 0
    f006:	80 81       	ld	r24, Z
    f008:	88 60       	ori	r24, 0x08	; 8
    f00a:	80 83       	st	Z, r24
	TIMSK1 |= (1<<OCIE1A); //    1     OCR1A(H  L)
    f00c:	af e6       	ldi	r26, 0x6F	; 111
    f00e:	b0 e0       	ldi	r27, 0x00	; 0
    f010:	8c 91       	ld	r24, X
    f012:	82 60       	ori	r24, 0x02	; 2
    f014:	8c 93       	st	X, r24
	OCR1AH = 0b00000111; //      2000
    f016:	87 e0       	ldi	r24, 0x07	; 7
    f018:	80 93 89 00 	sts	0x0089, r24	; 0x800089 <__TEXT_REGION_LENGTH__+0x7c0089>
	OCR1AL = 0b11010000;
    f01c:	80 ed       	ldi	r24, 0xD0	; 208
    f01e:	80 93 88 00 	sts	0x0088, r24	; 0x800088 <__TEXT_REGION_LENGTH__+0x7c0088>
	TCCR1B |= (1<<CS11);//  8.
    f022:	80 81       	ld	r24, Z
    f024:	82 60       	ori	r24, 0x02	; 2
    f026:	80 83       	st	Z, r24
    f028:	08 95       	ret

0000f02a <timer0_ini>:
}
//-------------------------------------------------------------
void timer0_ini(void) //  100
{
	TCCR0B |= (1<<WGM01); //    (  )
    f02a:	85 b5       	in	r24, 0x25	; 37
    f02c:	82 60       	ori	r24, 0x02	; 2
    f02e:	85 bd       	out	0x25, r24	; 37
	OCR0A = 0b11001000; //      200
    f030:	88 ec       	ldi	r24, 0xC8	; 200
    f032:	87 bd       	out	0x27, r24	; 39
	TCCR0B |= (1<<CS01); // 8
    f034:	85 b5       	in	r24, 0x25	; 37
    f036:	82 60       	ori	r24, 0x02	; 2
    f038:	85 bd       	out	0x25, r24	; 37
	TIMSK0 |= (1<<OCIE0A); //    0-     OCR0A
    f03a:	ee e6       	ldi	r30, 0x6E	; 110
    f03c:	f0 e0       	ldi	r31, 0x00	; 0
    f03e:	80 81       	ld	r24, Z
    f040:	82 60       	ori	r24, 0x02	; 2
    f042:	80 83       	st	Z, r24
    f044:	08 95       	ret

0000f046 <__vector_17>:
		timer2_flag = 0;
	}
}*/
//-------------------------------------------------------------
ISR (TIMER1_COMPA_vect)
{	
    f046:	1f 92       	push	r1
    f048:	0f 92       	push	r0
    f04a:	0f b6       	in	r0, 0x3f	; 63
    f04c:	0f 92       	push	r0
    f04e:	11 24       	eor	r1, r1
    f050:	8f 93       	push	r24
    f052:	9f 93       	push	r25
    f054:	af 93       	push	r26
    f056:	bf 93       	push	r27
	/*if (millis == 300001)
	{
		millis = 0;
	}*/
	millis++;
    f058:	80 91 e2 03 	lds	r24, 0x03E2	; 0x8003e2 <millis>
    f05c:	90 91 e3 03 	lds	r25, 0x03E3	; 0x8003e3 <millis+0x1>
    f060:	a0 91 e4 03 	lds	r26, 0x03E4	; 0x8003e4 <millis+0x2>
    f064:	b0 91 e5 03 	lds	r27, 0x03E5	; 0x8003e5 <millis+0x3>
    f068:	01 96       	adiw	r24, 0x01	; 1
    f06a:	a1 1d       	adc	r26, r1
    f06c:	b1 1d       	adc	r27, r1
    f06e:	80 93 e2 03 	sts	0x03E2, r24	; 0x8003e2 <millis>
    f072:	90 93 e3 03 	sts	0x03E3, r25	; 0x8003e3 <millis+0x1>
    f076:	a0 93 e4 03 	sts	0x03E4, r26	; 0x8003e4 <millis+0x2>
    f07a:	b0 93 e5 03 	sts	0x03E5, r27	; 0x8003e5 <millis+0x3>
}
    f07e:	bf 91       	pop	r27
    f080:	af 91       	pop	r26
    f082:	9f 91       	pop	r25
    f084:	8f 91       	pop	r24
    f086:	0f 90       	pop	r0
    f088:	0f be       	out	0x3f, r0	; 63
    f08a:	0f 90       	pop	r0
    f08c:	1f 90       	pop	r1
    f08e:	18 95       	reti

0000f090 <__vector_21>:
//-------------------------------------------------------------
//    0    
ISR (TIMER0_COMPA_vect)
{
    f090:	1f 92       	push	r1
    f092:	0f 92       	push	r0
    f094:	0f b6       	in	r0, 0x3f	; 63
    f096:	0f 92       	push	r0
    f098:	11 24       	eor	r1, r1
		_delay_us(50);
		PORTL |= (1 << BUZZER);
		TCCR0B |= (1<<CS01); // 8
		timer0_counter = 0;
	}*/
}
    f09a:	0f 90       	pop	r0
    f09c:	0f be       	out	0x3f, r0	; 63
    f09e:	0f 90       	pop	r0
    f0a0:	1f 90       	pop	r1
    f0a2:	18 95       	reti

0000f0a4 <__vector_5>:
//-------------------------------------------------------------
//   
ISR (INT4_vect)
{
    f0a4:	1f 92       	push	r1
    f0a6:	0f 92       	push	r0
    f0a8:	0f b6       	in	r0, 0x3f	; 63
    f0aa:	0f 92       	push	r0
    f0ac:	11 24       	eor	r1, r1
    f0ae:	0b b6       	in	r0, 0x3b	; 59
    f0b0:	0f 92       	push	r0
    f0b2:	8f 93       	push	r24
    f0b4:	9f 93       	push	r25
    f0b6:	ef 93       	push	r30
    f0b8:	ff 93       	push	r31
	PORTL &= ~ (1 << BUZZER);
    f0ba:	eb e0       	ldi	r30, 0x0B	; 11
    f0bc:	f1 e0       	ldi	r31, 0x01	; 1
    f0be:	80 81       	ld	r24, Z
    f0c0:	8f 7b       	andi	r24, 0xBF	; 191
    f0c2:	80 83       	st	Z, r24
	#else
		//round up by default
		__ticks_dc = (uint32_t)(ceil(fabs(__tmp)));
	#endif

	__builtin_avr_delay_cycles(__ticks_dc);
    f0c4:	8f e9       	ldi	r24, 0x9F	; 159
    f0c6:	9f e0       	ldi	r25, 0x0F	; 15
    f0c8:	01 97       	sbiw	r24, 0x01	; 1
    f0ca:	f1 f7       	brne	.-4      	; 0xf0c8 <__vector_5+0x24>
    f0cc:	00 c0       	rjmp	.+0      	; 0xf0ce <__vector_5+0x2a>
    f0ce:	00 00       	nop
	_delay_us(1000);
	PORTL |= (1 << BUZZER);
    f0d0:	80 81       	ld	r24, Z
    f0d2:	80 64       	ori	r24, 0x40	; 64
    f0d4:	80 83       	st	Z, r24
	if (menu_flag == 0)
    f0d6:	80 91 60 04 	lds	r24, 0x0460	; 0x800460 <menu_flag>
    f0da:	81 11       	cpse	r24, r1
    f0dc:	06 c0       	rjmp	.+12     	; 0xf0ea <__vector_5+0x46>
	{
		up_down_count = 0;
    f0de:	10 92 e6 03 	sts	0x03E6, r1	; 0x8003e6 <up_down_count>
		menu_flag = 1;
    f0e2:	81 e0       	ldi	r24, 0x01	; 1
    f0e4:	80 93 60 04 	sts	0x0460, r24	; 0x800460 <menu_flag>
    f0e8:	4b c0       	rjmp	.+150    	; 0xf180 <__vector_5+0xdc>
	}
	else if (menu_flag == 1)
    f0ea:	81 30       	cpi	r24, 0x01	; 1
    f0ec:	49 f5       	brne	.+82     	; 0xf140 <__vector_5+0x9c>
	{
		switch(up_down_count%4)
    f0ee:	80 91 e6 03 	lds	r24, 0x03E6	; 0x8003e6 <up_down_count>
    f0f2:	83 78       	andi	r24, 0x83	; 131
    f0f4:	1c f4       	brge	.+6      	; 0xf0fc <__vector_5+0x58>
    f0f6:	81 50       	subi	r24, 0x01	; 1
    f0f8:	8c 6f       	ori	r24, 0xFC	; 252
    f0fa:	8f 5f       	subi	r24, 0xFF	; 255
    f0fc:	81 30       	cpi	r24, 0x01	; 1
    f0fe:	71 f0       	breq	.+28     	; 0xf11c <__vector_5+0x78>
    f100:	1c f4       	brge	.+6      	; 0xf108 <__vector_5+0x64>
    f102:	88 23       	and	r24, r24
    f104:	31 f0       	breq	.+12     	; 0xf112 <__vector_5+0x6e>
    f106:	3c c0       	rjmp	.+120    	; 0xf180 <__vector_5+0xdc>
    f108:	82 30       	cpi	r24, 0x02	; 2
    f10a:	71 f0       	breq	.+28     	; 0xf128 <__vector_5+0x84>
    f10c:	83 30       	cpi	r24, 0x03	; 3
    f10e:	91 f0       	breq	.+36     	; 0xf134 <__vector_5+0x90>
    f110:	37 c0       	rjmp	.+110    	; 0xf180 <__vector_5+0xdc>
		{
			case 0:
			up_down_count = 0;
    f112:	10 92 e6 03 	sts	0x03E6, r1	; 0x8003e6 <up_down_count>
			menu_flag = 0;
    f116:	10 92 60 04 	sts	0x0460, r1	; 0x800460 <menu_flag>
			break;
    f11a:	32 c0       	rjmp	.+100    	; 0xf180 <__vector_5+0xdc>
			case 1:
			up_down_count = 0;
    f11c:	10 92 e6 03 	sts	0x03E6, r1	; 0x8003e6 <up_down_count>
			menu_flag = 2;
    f120:	82 e0       	ldi	r24, 0x02	; 2
    f122:	80 93 60 04 	sts	0x0460, r24	; 0x800460 <menu_flag>
			break;
    f126:	2c c0       	rjmp	.+88     	; 0xf180 <__vector_5+0xdc>
			case 2:
			up_down_count = 0;
    f128:	10 92 e6 03 	sts	0x03E6, r1	; 0x8003e6 <up_down_count>
			menu_flag = 3;
    f12c:	83 e0       	ldi	r24, 0x03	; 3
    f12e:	80 93 60 04 	sts	0x0460, r24	; 0x800460 <menu_flag>
			break;
    f132:	26 c0       	rjmp	.+76     	; 0xf180 <__vector_5+0xdc>
			case 3:
			up_down_count = 0;
    f134:	10 92 e6 03 	sts	0x03E6, r1	; 0x8003e6 <up_down_count>
			menu_flag = 4;
    f138:	84 e0       	ldi	r24, 0x04	; 4
    f13a:	80 93 60 04 	sts	0x0460, r24	; 0x800460 <menu_flag>
			break;
    f13e:	20 c0       	rjmp	.+64     	; 0xf180 <__vector_5+0xdc>
		}
	}
	else if (menu_flag == 2)
    f140:	82 30       	cpi	r24, 0x02	; 2
    f142:	79 f4       	brne	.+30     	; 0xf162 <__vector_5+0xbe>
	{
		switch (up_down_count%8)
    f144:	80 91 e6 03 	lds	r24, 0x03E6	; 0x8003e6 <up_down_count>
    f148:	87 78       	andi	r24, 0x87	; 135
    f14a:	1c f4       	brge	.+6      	; 0xf152 <__vector_5+0xae>
    f14c:	81 50       	subi	r24, 0x01	; 1
    f14e:	88 6f       	ori	r24, 0xF8	; 248
    f150:	8f 5f       	subi	r24, 0xFF	; 255
    f152:	87 30       	cpi	r24, 0x07	; 7
    f154:	a9 f4       	brne	.+42     	; 0xf180 <__vector_5+0xdc>
			case 5:
			break;
			case 6:
			break;
			case 7:
			up_down_count = 0;
    f156:	10 92 e6 03 	sts	0x03E6, r1	; 0x8003e6 <up_down_count>
			menu_flag = 1;
    f15a:	81 e0       	ldi	r24, 0x01	; 1
    f15c:	80 93 60 04 	sts	0x0460, r24	; 0x800460 <menu_flag>
			break;
    f160:	0f c0       	rjmp	.+30     	; 0xf180 <__vector_5+0xdc>
		}
	}
	else if (menu_flag == 3)
    f162:	83 30       	cpi	r24, 0x03	; 3
    f164:	31 f4       	brne	.+12     	; 0xf172 <__vector_5+0xce>
	{
		up_down_count = 0;
    f166:	10 92 e6 03 	sts	0x03E6, r1	; 0x8003e6 <up_down_count>
		menu_flag = 1;
    f16a:	81 e0       	ldi	r24, 0x01	; 1
    f16c:	80 93 60 04 	sts	0x0460, r24	; 0x800460 <menu_flag>
    f170:	07 c0       	rjmp	.+14     	; 0xf180 <__vector_5+0xdc>
	}
	else if (menu_flag == 4)
    f172:	84 30       	cpi	r24, 0x04	; 4
    f174:	29 f4       	brne	.+10     	; 0xf180 <__vector_5+0xdc>
	{
		up_down_count = 0;
    f176:	10 92 e6 03 	sts	0x03E6, r1	; 0x8003e6 <up_down_count>
		menu_flag = 1;
    f17a:	81 e0       	ldi	r24, 0x01	; 1
    f17c:	80 93 60 04 	sts	0x0460, r24	; 0x800460 <menu_flag>
	}
}
    f180:	ff 91       	pop	r31
    f182:	ef 91       	pop	r30
    f184:	9f 91       	pop	r25
    f186:	8f 91       	pop	r24
    f188:	0f 90       	pop	r0
    f18a:	0b be       	out	0x3b, r0	; 59
    f18c:	0f 90       	pop	r0
    f18e:	0f be       	out	0x3f, r0	; 63
    f190:	0f 90       	pop	r0
    f192:	1f 90       	pop	r1
    f194:	18 95       	reti

0000f196 <__vector_6>:
ISR (INT5_vect)
{
    f196:	1f 92       	push	r1
    f198:	0f 92       	push	r0
    f19a:	0f b6       	in	r0, 0x3f	; 63
    f19c:	0f 92       	push	r0
    f19e:	11 24       	eor	r1, r1
    f1a0:	0b b6       	in	r0, 0x3b	; 59
    f1a2:	0f 92       	push	r0
    f1a4:	8f 93       	push	r24
    f1a6:	9f 93       	push	r25
    f1a8:	ef 93       	push	r30
    f1aa:	ff 93       	push	r31
	PORTL &= ~ (1 << BUZZER);
    f1ac:	eb e0       	ldi	r30, 0x0B	; 11
    f1ae:	f1 e0       	ldi	r31, 0x01	; 1
    f1b0:	80 81       	ld	r24, Z
    f1b2:	8f 7b       	andi	r24, 0xBF	; 191
    f1b4:	80 83       	st	Z, r24
    f1b6:	8f e9       	ldi	r24, 0x9F	; 159
    f1b8:	9f e0       	ldi	r25, 0x0F	; 15
    f1ba:	01 97       	sbiw	r24, 0x01	; 1
    f1bc:	f1 f7       	brne	.-4      	; 0xf1ba <__vector_6+0x24>
    f1be:	00 c0       	rjmp	.+0      	; 0xf1c0 <__vector_6+0x2a>
    f1c0:	00 00       	nop
	_delay_us(1000);
	PORTL |= (1 << BUZZER);
    f1c2:	80 81       	ld	r24, Z
    f1c4:	80 64       	ori	r24, 0x40	; 64
    f1c6:	80 83       	st	Z, r24
	up_down_count = 0;
    f1c8:	10 92 e6 03 	sts	0x03E6, r1	; 0x8003e6 <up_down_count>
	menu_flag = 0;
    f1cc:	10 92 60 04 	sts	0x0460, r1	; 0x800460 <menu_flag>
}
    f1d0:	ff 91       	pop	r31
    f1d2:	ef 91       	pop	r30
    f1d4:	9f 91       	pop	r25
    f1d6:	8f 91       	pop	r24
    f1d8:	0f 90       	pop	r0
    f1da:	0b be       	out	0x3b, r0	; 59
    f1dc:	0f 90       	pop	r0
    f1de:	0f be       	out	0x3f, r0	; 63
    f1e0:	0f 90       	pop	r0
    f1e2:	1f 90       	pop	r1
    f1e4:	18 95       	reti

0000f1e6 <__vector_7>:
ISR (INT6_vect)
{
    f1e6:	1f 92       	push	r1
    f1e8:	0f 92       	push	r0
    f1ea:	0f b6       	in	r0, 0x3f	; 63
    f1ec:	0f 92       	push	r0
    f1ee:	11 24       	eor	r1, r1
    f1f0:	0b b6       	in	r0, 0x3b	; 59
    f1f2:	0f 92       	push	r0
    f1f4:	8f 93       	push	r24
    f1f6:	9f 93       	push	r25
    f1f8:	ef 93       	push	r30
    f1fa:	ff 93       	push	r31
	PORTL &= ~ (1 << BUZZER);
    f1fc:	eb e0       	ldi	r30, 0x0B	; 11
    f1fe:	f1 e0       	ldi	r31, 0x01	; 1
    f200:	80 81       	ld	r24, Z
    f202:	8f 7b       	andi	r24, 0xBF	; 191
    f204:	80 83       	st	Z, r24
    f206:	8f e9       	ldi	r24, 0x9F	; 159
    f208:	9f e0       	ldi	r25, 0x0F	; 15
    f20a:	01 97       	sbiw	r24, 0x01	; 1
    f20c:	f1 f7       	brne	.-4      	; 0xf20a <__vector_7+0x24>
    f20e:	00 c0       	rjmp	.+0      	; 0xf210 <__vector_7+0x2a>
    f210:	00 00       	nop
	_delay_us(1000);
	PORTL |= (1 << BUZZER);
    f212:	80 81       	ld	r24, Z
    f214:	80 64       	ori	r24, 0x40	; 64
    f216:	80 83       	st	Z, r24
	PORTL &= ~(1<<LED);
    f218:	80 81       	ld	r24, Z
    f21a:	8f 77       	andi	r24, 0x7F	; 127
    f21c:	80 83       	st	Z, r24
	up_down_count--;
    f21e:	80 91 e6 03 	lds	r24, 0x03E6	; 0x8003e6 <up_down_count>
    f222:	81 50       	subi	r24, 0x01	; 1
    f224:	80 93 e6 03 	sts	0x03E6, r24	; 0x8003e6 <up_down_count>
	if (up_down_count < 0)
    f228:	88 23       	and	r24, r24
    f22a:	1c f4       	brge	.+6      	; 0xf232 <__vector_7+0x4c>
	{
		up_down_count = 15;
    f22c:	8f e0       	ldi	r24, 0x0F	; 15
    f22e:	80 93 e6 03 	sts	0x03E6, r24	; 0x8003e6 <up_down_count>
	}
}
    f232:	ff 91       	pop	r31
    f234:	ef 91       	pop	r30
    f236:	9f 91       	pop	r25
    f238:	8f 91       	pop	r24
    f23a:	0f 90       	pop	r0
    f23c:	0b be       	out	0x3b, r0	; 59
    f23e:	0f 90       	pop	r0
    f240:	0f be       	out	0x3f, r0	; 63
    f242:	0f 90       	pop	r0
    f244:	1f 90       	pop	r1
    f246:	18 95       	reti

0000f248 <__vector_8>:
ISR (INT7_vect)
{
    f248:	1f 92       	push	r1
    f24a:	0f 92       	push	r0
    f24c:	0f b6       	in	r0, 0x3f	; 63
    f24e:	0f 92       	push	r0
    f250:	11 24       	eor	r1, r1
    f252:	0b b6       	in	r0, 0x3b	; 59
    f254:	0f 92       	push	r0
    f256:	8f 93       	push	r24
    f258:	9f 93       	push	r25
    f25a:	ef 93       	push	r30
    f25c:	ff 93       	push	r31
	PORTL &= ~ (1 << BUZZER);
    f25e:	eb e0       	ldi	r30, 0x0B	; 11
    f260:	f1 e0       	ldi	r31, 0x01	; 1
    f262:	80 81       	ld	r24, Z
    f264:	8f 7b       	andi	r24, 0xBF	; 191
    f266:	80 83       	st	Z, r24
    f268:	8f e9       	ldi	r24, 0x9F	; 159
    f26a:	9f e0       	ldi	r25, 0x0F	; 15
    f26c:	01 97       	sbiw	r24, 0x01	; 1
    f26e:	f1 f7       	brne	.-4      	; 0xf26c <__vector_8+0x24>
    f270:	00 c0       	rjmp	.+0      	; 0xf272 <__vector_8+0x2a>
    f272:	00 00       	nop
	_delay_us(1000);
	PORTL |= (1 << BUZZER);
    f274:	80 81       	ld	r24, Z
    f276:	80 64       	ori	r24, 0x40	; 64
    f278:	80 83       	st	Z, r24
	up_down_count++;
    f27a:	80 91 e6 03 	lds	r24, 0x03E6	; 0x8003e6 <up_down_count>
    f27e:	8f 5f       	subi	r24, 0xFF	; 255
    f280:	80 93 e6 03 	sts	0x03E6, r24	; 0x8003e6 <up_down_count>
	if (up_down_count > 15)
    f284:	80 31       	cpi	r24, 0x10	; 16
    f286:	14 f0       	brlt	.+4      	; 0xf28c <__vector_8+0x44>
	{
		up_down_count = 0;
    f288:	10 92 e6 03 	sts	0x03E6, r1	; 0x8003e6 <up_down_count>
	}
}
    f28c:	ff 91       	pop	r31
    f28e:	ef 91       	pop	r30
    f290:	9f 91       	pop	r25
    f292:	8f 91       	pop	r24
    f294:	0f 90       	pop	r0
    f296:	0b be       	out	0x3b, r0	; 59
    f298:	0f 90       	pop	r0
    f29a:	0f be       	out	0x3f, r0	; 63
    f29c:	0f 90       	pop	r0
    f29e:	1f 90       	pop	r1
    f2a0:	18 95       	reti

0000f2a2 <SPI_init>:
	}
}*/
//-------------------------------------------------------------
void SPI_init(void) // SPI
{
	DDRB |= ((1<<SS)|(1<<MOSI)|(1<<CE)|(1<<SCK)); // SPI  
    f2a2:	84 b1       	in	r24, 0x04	; 4
    f2a4:	87 61       	ori	r24, 0x17	; 23
    f2a6:	84 b9       	out	0x04, r24	; 4
	PORTB &= ~((1<<SS)|(1<<MOSI)|(1<<SCK)); // 
    f2a8:	85 b1       	in	r24, 0x05	; 5
    f2aa:	88 7f       	andi	r24, 0xF8	; 248
    f2ac:	85 b9       	out	0x05, r24	; 5
	HIGH_CSN;
    f2ae:	85 b1       	in	r24, 0x05	; 5
    f2b0:	81 60       	ori	r24, 0x01	; 1
    f2b2:	85 b9       	out	0x05, r24	; 5
	SPCR = ((1<<SPE)|(1<<MSTR));// ,  
    f2b4:	80 e5       	ldi	r24, 0x50	; 80
    f2b6:	8c bd       	out	0x2c, r24	; 44
    f2b8:	08 95       	ret

0000f2ba <port_init>:
}
//-------------------------------------------------------------
void port_init(void)
{
	//  IRQ   
	DDRE &= ~(1<<IRQ);
    f2ba:	8d b1       	in	r24, 0x0d	; 13
    f2bc:	8f 7e       	andi	r24, 0xEF	; 239
    f2be:	8d b9       	out	0x0d, r24	; 13
	PORTE |= (1<<IRQ);
    f2c0:	8e b1       	in	r24, 0x0e	; 14
    f2c2:	80 61       	ori	r24, 0x10	; 16
    f2c4:	8e b9       	out	0x0e, r24	; 14
	//   
	DDRL |= (1 << LED);//led
    f2c6:	aa e0       	ldi	r26, 0x0A	; 10
    f2c8:	b1 e0       	ldi	r27, 0x01	; 1
    f2ca:	8c 91       	ld	r24, X
    f2cc:	80 68       	ori	r24, 0x80	; 128
    f2ce:	8c 93       	st	X, r24
	PORTL &= ~ (1 << LED);
    f2d0:	eb e0       	ldi	r30, 0x0B	; 11
    f2d2:	f1 e0       	ldi	r31, 0x01	; 1
    f2d4:	80 81       	ld	r24, Z
    f2d6:	8f 77       	andi	r24, 0x7F	; 127
    f2d8:	80 83       	st	Z, r24
	//   
	DDRL |= (1 << BUZZER);
    f2da:	8c 91       	ld	r24, X
    f2dc:	80 64       	ori	r24, 0x40	; 64
    f2de:	8c 93       	st	X, r24
	PORTL |= (1 << BUZZER);
    f2e0:	80 81       	ld	r24, Z
    f2e2:	80 64       	ori	r24, 0x40	; 64
    f2e4:	80 83       	st	Z, r24
	//   ILI9486
	DATA_PORT=0x00;
    f2e6:	18 b8       	out	0x08, r1	; 8
	DATA_DDR=0xFF;//   
    f2e8:	8f ef       	ldi	r24, 0xFF	; 255
    f2ea:	87 b9       	out	0x07, r24	; 7
	COMMAND_DDR |= ((1<<LCD_CS)|(1<<LCD_CD)|(1<<LCD_WR)|(1<<LCD_RD)|(1<<LCD_RESET));//     
    f2ec:	e1 e0       	ldi	r30, 0x01	; 1
    f2ee:	f1 e0       	ldi	r31, 0x01	; 1
    f2f0:	80 81       	ld	r24, Z
    f2f2:	8c 67       	ori	r24, 0x7C	; 124
    f2f4:	80 83       	st	Z, r24
	COMMAND_PORT &= ~((1<<LCD_CS)|(1<<LCD_CD)|(1<<LCD_WR)|(1<<LCD_RD)|(1<<LCD_RESET));
    f2f6:	e2 e0       	ldi	r30, 0x02	; 2
    f2f8:	f1 e0       	ldi	r31, 0x01	; 1
    f2fa:	80 81       	ld	r24, Z
    f2fc:	83 78       	andi	r24, 0x83	; 131
    f2fe:	80 83       	st	Z, r24
	// 
	DDRE &= ~(1<<ButtonOK);
    f300:	8d b1       	in	r24, 0x0d	; 13
    f302:	8f 7e       	andi	r24, 0xEF	; 239
    f304:	8d b9       	out	0x0d, r24	; 13
	PORTE |= (1<<ButtonOK);
    f306:	8e b1       	in	r24, 0x0e	; 14
    f308:	80 61       	ori	r24, 0x10	; 16
    f30a:	8e b9       	out	0x0e, r24	; 14
	DDRE &= ~(1<<ButtonHome);
    f30c:	8d b1       	in	r24, 0x0d	; 13
    f30e:	8f 7d       	andi	r24, 0xDF	; 223
    f310:	8d b9       	out	0x0d, r24	; 13
	PORTE |= (1<<ButtonHome);
    f312:	8e b1       	in	r24, 0x0e	; 14
    f314:	80 62       	ori	r24, 0x20	; 32
    f316:	8e b9       	out	0x0e, r24	; 14
	DDRE &= ~(1<<ButtonUp);
    f318:	8d b1       	in	r24, 0x0d	; 13
    f31a:	8f 7b       	andi	r24, 0xBF	; 191
    f31c:	8d b9       	out	0x0d, r24	; 13
	PORTE |= (1<<ButtonUp);
    f31e:	8e b1       	in	r24, 0x0e	; 14
    f320:	80 64       	ori	r24, 0x40	; 64
    f322:	8e b9       	out	0x0e, r24	; 14
	DDRE &= ~(1<<ButtonDown);
    f324:	8d b1       	in	r24, 0x0d	; 13
    f326:	8f 77       	andi	r24, 0x7F	; 127
    f328:	8d b9       	out	0x0d, r24	; 13
	PORTE |= (1<<ButtonDown);
    f32a:	8e b1       	in	r24, 0x0e	; 14
    f32c:	80 68       	ori	r24, 0x80	; 128
    f32e:	8e b9       	out	0x0e, r24	; 14
    f330:	08 95       	ret

0000f332 <spi_send_recv>:
} 
//-------------------------------------------------------------
uint8_t spi_send_recv(uint8_t data) //    1   SPI,   
{
	SPDR = data;
    f332:	8e bd       	out	0x2e, r24	; 46
	while (!(SPSR & (1 << SPIF)));
    f334:	0d b4       	in	r0, 0x2d	; 45
    f336:	07 fe       	sbrs	r0, 7
    f338:	fd cf       	rjmp	.-6      	; 0xf334 <spi_send_recv+0x2>
	return SPDR;
    f33a:	8e b5       	in	r24, 0x2e	; 46
}
    f33c:	08 95       	ret

0000f33e <main>:
{	
	uint8_t rx_count = 0;
	int32_t time1 = 0;
	int32_t time2 = 0;
	// WDT
	WDTCSR &= ~(1<<WDE);
    f33e:	e0 e6       	ldi	r30, 0x60	; 96
    f340:	f0 e0       	ldi	r31, 0x00	; 0
    f342:	80 81       	ld	r24, Z
    f344:	87 7f       	andi	r24, 0xF7	; 247
    f346:	80 83       	st	Z, r24
				: "r0"
		);
	}
	else
	{
		__asm__ __volatile__ (
    f348:	99 e2       	ldi	r25, 0x29	; 41
    f34a:	88 e1       	ldi	r24, 0x18	; 24
    f34c:	0f b6       	in	r0, 0x3f	; 63
    f34e:	f8 94       	cli
    f350:	a8 95       	wdr
    f352:	80 93 60 00 	sts	0x0060, r24	; 0x800060 <__TEXT_REGION_LENGTH__+0x7c0060>
    f356:	0f be       	out	0x3f, r0	; 63
    f358:	90 93 60 00 	sts	0x0060, r25	; 0x800060 <__TEXT_REGION_LENGTH__+0x7c0060>
	// Watchdog  8 
	wdt_enable(WDTO_8S);
	port_init();
    f35c:	ae df       	rcall	.-164    	; 0xf2ba <port_init>
	PORTL |= (1<<LED);
    f35e:	cb e0       	ldi	r28, 0x0B	; 11
    f360:	d1 e0       	ldi	r29, 0x01	; 1
    f362:	88 81       	ld	r24, Y
    f364:	80 68       	ori	r24, 0x80	; 128
	// 
	SPI_init();
    f366:	88 83       	st	Y, r24
    f368:	9c df       	rcall	.-200    	; 0xf2a2 <SPI_init>
	I2C_Init();
    f36a:	0e 94 e2 83 	call	0x107c4	; 0x107c4 <I2C_Init>
	USART_Init(8);    //  USART  115200	
    f36e:	88 e0       	ldi	r24, 0x08	; 8
    f370:	90 e0       	ldi	r25, 0x00	; 0
    f372:	0e 94 10 84 	call	0x10820	; 0x10820 <USART_Init>
	ILI9486_ini();
    f376:	0e 94 bb 69 	call	0xd376	; 0xd376 <ILI9486_ini>
	// 
	Print_Hello_World();
    f37a:	0e 94 24 84 	call	0x10848	; 0x10848 <Print_Hello_World>
	wdt_reset();
    f37e:	a8 95       	wdr
	// 
	//NRF24_ini();
	RTC_init();
    f380:	0e 94 d7 83 	call	0x107ae	; 0x107ae <RTC_init>
	//dht22_init();
	//BMP180_Calibration();
	wdt_reset();
    f384:	a8 95       	wdr
	#else
		//round up by default
		__ticks_dc = (uint32_t)(ceil(fabs(__tmp)));
	#endif

	__builtin_avr_delay_cycles(__ticks_dc);
    f386:	2f ef       	ldi	r18, 0xFF	; 255
    f388:	8d e3       	ldi	r24, 0x3D	; 61
    f38a:	99 e4       	ldi	r25, 0x49	; 73
    f38c:	21 50       	subi	r18, 0x01	; 1
    f38e:	80 40       	sbci	r24, 0x00	; 0
    f390:	90 40       	sbci	r25, 0x00	; 0
    f392:	e1 f7       	brne	.-8      	; 0xf38c <main+0x4e>
    f394:	00 c0       	rjmp	.+0      	; 0xf396 <main+0x58>
    f396:	00 00       	nop
	_delay_ms(1500);
	//    DS3231( 1 v)
	//RTC_write_time(22, 17, 0);
	//RTC_write_date(1, 13, 3, 23);
	//  
	wdt_reset();
    f398:	a8 95       	wdr
	//Print_Download();
	wdt_reset();
    f39a:	a8 95       	wdr
	PORTL &= ~(1<<LED);
    f39c:	88 81       	ld	r24, Y
    f39e:	8f 77       	andi	r24, 0x7F	; 127
	//   
	//timer2_ini();
	timer1_ini();
    f3a0:	88 83       	st	Y, r24
    f3a2:	2f de       	rcall	.-930    	; 0xf002 <timer1_ini>
	timer0_ini();
    f3a4:	42 de       	rcall	.-892    	; 0xf02a <timer0_ini>
    f3a6:	ea e6       	ldi	r30, 0x6A	; 106
	//   
	EICRB |= (1<<ISC41) | (1<<ISC51) | (1<<ISC61) | (1<<ISC71);
    f3a8:	f0 e0       	ldi	r31, 0x00	; 0
    f3aa:	80 81       	ld	r24, Z
    f3ac:	8a 6a       	ori	r24, 0xAA	; 170
    f3ae:	80 83       	st	Z, r24
    f3b0:	8d b3       	in	r24, 0x1d	; 29
	EIMSK |= (1<<INT4) | (1<<INT5) | (1<<INT6) | (1<<INT7);
    f3b2:	80 6f       	ori	r24, 0xF0	; 240
    f3b4:	8d bb       	out	0x1d, r24	; 29
    f3b6:	85 e0       	ldi	r24, 0x05	; 5
	//enc_interrupt_ini();
	// 
	strcpy(temp_street_to_DB,"NULL");
    f3b8:	e2 e3       	ldi	r30, 0x32	; 50
    f3ba:	f2 e0       	ldi	r31, 0x02	; 2
    f3bc:	a1 e2       	ldi	r26, 0x21	; 33
    f3be:	b4 e0       	ldi	r27, 0x04	; 4
    f3c0:	01 90       	ld	r0, Z+
    f3c2:	0d 92       	st	X+, r0
    f3c4:	8a 95       	dec	r24
    f3c6:	e1 f7       	brne	.-8      	; 0xf3c0 <main+0x82>
    f3c8:	85 e0       	ldi	r24, 0x05	; 5
	strcpy(hum_street_to_DB,"NULL");
    f3ca:	e2 e3       	ldi	r30, 0x32	; 50
    f3cc:	f2 e0       	ldi	r31, 0x02	; 2
    f3ce:	ac e1       	ldi	r26, 0x1C	; 28
    f3d0:	b4 e0       	ldi	r27, 0x04	; 4
    f3d2:	01 90       	ld	r0, Z+
    f3d4:	0d 92       	st	X+, r0
    f3d6:	8a 95       	dec	r24
    f3d8:	e1 f7       	brne	.-8      	; 0xf3d2 <main+0x94>
    f3da:	85 e0       	ldi	r24, 0x05	; 5
	strcpy(WIND_speed_to_DB,"NULL");
    f3dc:	e2 e3       	ldi	r30, 0x32	; 50
    f3de:	f2 e0       	ldi	r31, 0x02	; 2
    f3e0:	a7 e1       	ldi	r26, 0x17	; 23
    f3e2:	b4 e0       	ldi	r27, 0x04	; 4
    f3e4:	01 90       	ld	r0, Z+
    f3e6:	0d 92       	st	X+, r0
    f3e8:	8a 95       	dec	r24
    f3ea:	e1 f7       	brne	.-8      	; 0xf3e4 <main+0xa6>
    f3ec:	85 e0       	ldi	r24, 0x05	; 5
	strcpy(wind_direction_to_DB,"NULL");
    f3ee:	e2 e3       	ldi	r30, 0x32	; 50
    f3f0:	f2 e0       	ldi	r31, 0x02	; 2
    f3f2:	a1 e1       	ldi	r26, 0x11	; 17
    f3f4:	b4 e0       	ldi	r27, 0x04	; 4
    f3f6:	01 90       	ld	r0, Z+
    f3f8:	0d 92       	st	X+, r0
    f3fa:	8a 95       	dec	r24
    f3fc:	e1 f7       	brne	.-8      	; 0xf3f6 <main+0xb8>
    f3fe:	85 e0       	ldi	r24, 0x05	; 5
	strcpy(Vbat_to_DB,"NULL");
    f400:	e2 e3       	ldi	r30, 0x32	; 50
    f402:	f2 e0       	ldi	r31, 0x02	; 2
    f404:	ac e0       	ldi	r26, 0x0C	; 12
    f406:	b4 e0       	ldi	r27, 0x04	; 4
    f408:	01 90       	ld	r0, Z+
    f40a:	0d 92       	st	X+, r0
    f40c:	8a 95       	dec	r24
    f40e:	e1 f7       	brne	.-8      	; 0xf408 <main+0xca>
    f410:	85 e0       	ldi	r24, 0x05	; 5
	strcpy(Rain_to_DB,"NULL");
    f412:	e2 e3       	ldi	r30, 0x32	; 50
    f414:	f2 e0       	ldi	r31, 0x02	; 2
    f416:	a6 e0       	ldi	r26, 0x06	; 6
    f418:	b4 e0       	ldi	r27, 0x04	; 4
    f41a:	01 90       	ld	r0, Z+
    f41c:	0d 92       	st	X+, r0
    f41e:	8a 95       	dec	r24
    f420:	e1 f7       	brne	.-8      	; 0xf41a <main+0xdc>
    f422:	ed e4       	ldi	r30, 0x4D	; 77
	temp_street[0] = '0';
    f424:	f4 e0       	ldi	r31, 0x04	; 4
    f426:	80 e3       	ldi	r24, 0x30	; 48
    f428:	80 83       	st	Z, r24
    f42a:	81 83       	std	Z+1, r24	; 0x01
	temp_street[1] = '0';
    f42c:	9e e2       	ldi	r25, 0x2E	; 46
	temp_street[2] = '.';
    f42e:	92 83       	std	Z+2, r25	; 0x02
    f430:	83 83       	std	Z+3, r24	; 0x03
	temp_street[3] = '0';
    f432:	e8 e4       	ldi	r30, 0x48	; 72
	hum_street[0] = '0';
    f434:	f4 e0       	ldi	r31, 0x04	; 4
    f436:	80 83       	st	Z, r24
    f438:	81 83       	std	Z+1, r24	; 0x01
	hum_street[1] = '0';
    f43a:	e3 e3       	ldi	r30, 0x33	; 51
	Vbat[0] = '0';
    f43c:	f4 e0       	ldi	r31, 0x04	; 4
    f43e:	80 83       	st	Z, r24
    f440:	91 83       	std	Z+1, r25	; 0x01
	Vbat[1] = '.';
    f442:	82 83       	std	Z+2, r24	; 0x02
	Vbat[2] = '0';
    f444:	83 83       	std	Z+3, r24	; 0x03
	Vbat[3] = '0';
    f446:	e2 e4       	ldi	r30, 0x42	; 66
	temp_home[0] = '0';
    f448:	f4 e0       	ldi	r31, 0x04	; 4
    f44a:	80 83       	st	Z, r24
    f44c:	81 83       	std	Z+1, r24	; 0x01
	temp_home[1] = '0';
    f44e:	92 83       	std	Z+2, r25	; 0x02
	temp_home[2] = '.';
    f450:	83 83       	std	Z+3, r24	; 0x03
	temp_home[3] = '0';
    f452:	ed e3       	ldi	r30, 0x3D	; 61
	hum_home[0] = '0';
    f454:	f4 e0       	ldi	r31, 0x04	; 4
    f456:	80 83       	st	Z, r24
    f458:	81 83       	std	Z+1, r24	; 0x01
	hum_home[1] = '0';
    f45a:	95 e0       	ldi	r25, 0x05	; 5
	sprintf(WIND_speed,"0.00");
    f45c:	e9 e4       	ldi	r30, 0x49	; 73
    f45e:	f2 e0       	ldi	r31, 0x02	; 2
    f460:	a8 e3       	ldi	r26, 0x38	; 56
    f462:	b4 e0       	ldi	r27, 0x04	; 4
    f464:	01 90       	ld	r0, Z+
    f466:	0d 92       	st	X+, r0
    f468:	9a 95       	dec	r25
    f46a:	e1 f7       	brne	.-8      	; 0xf464 <main+0x126>
    f46c:	80 93 27 04 	sts	0x0427, r24	; 0x800427 <Press_home>
	/*WIND_speed[0] = '0';
	WIND_speed[1] = '.';
	WIND_speed[2] = '0';
	WIND_speed[3] = '0';*/
	Press_home[0] = '0';
    f470:	8d e2       	ldi	r24, 0x2D	; 45
	wind_direction[0] = '-';
    f472:	80 93 7f 04 	sts	0x047F, r24	; 0x80047f <wind_direction>
    f476:	80 93 2d 04 	sts	0x042D, r24	; 0x80042d <Rain>
	Rain[0] = '-';
    f47a:	0e 94 33 9a 	call	0x13466	; 0x13466 <Clock>
	//   
	Clock ();
    f47e:	84 ea       	ldi	r24, 0xA4	; 164
	sprintf(start_time,"%s:%s:%s,%s/%s/%s", T_Param.hours, T_Param.minutes, T_Param.seconds, T_Param.mounthday, T_Param.Mounth, T_Param.Year);	
    f480:	94 e0       	ldi	r25, 0x04	; 4
    f482:	9f 93       	push	r25
    f484:	8f 93       	push	r24
    f486:	80 ea       	ldi	r24, 0xA0	; 160
    f488:	94 e0       	ldi	r25, 0x04	; 4
    f48a:	9f 93       	push	r25
    f48c:	8f 93       	push	r24
    f48e:	8c e9       	ldi	r24, 0x9C	; 156
    f490:	94 e0       	ldi	r25, 0x04	; 4
    f492:	9f 93       	push	r25
    f494:	8f 93       	push	r24
    f496:	8e e8       	ldi	r24, 0x8E	; 142
    f498:	94 e0       	ldi	r25, 0x04	; 4
    f49a:	9f 93       	push	r25
    f49c:	8f 93       	push	r24
    f49e:	8a e8       	ldi	r24, 0x8A	; 138
    f4a0:	94 e0       	ldi	r25, 0x04	; 4
    f4a2:	9f 93       	push	r25
    f4a4:	8f 93       	push	r24
    f4a6:	86 e8       	ldi	r24, 0x86	; 134
    f4a8:	94 e0       	ldi	r25, 0x04	; 4
    f4aa:	9f 93       	push	r25
    f4ac:	8f 93       	push	r24
    f4ae:	87 e3       	ldi	r24, 0x37	; 55
    f4b0:	92 e0       	ldi	r25, 0x02	; 2
    f4b2:	9f 93       	push	r25
    f4b4:	8f 93       	push	r24
    f4b6:	87 ee       	ldi	r24, 0xE7	; 231
    f4b8:	93 e0       	ldi	r25, 0x03	; 3
    f4ba:	9f 93       	push	r25
    f4bc:	8f 93       	push	r24
    f4be:	0e 94 20 9f 	call	0x13e40	; 0x13e40 <sprintf>
    f4c2:	0e 94 03 9d 	call	0x13a06	; 0x13a06 <sprintf_HOME_Weath_Param>
	sprintf_HOME_Weath_Param();
    f4c6:	0e 94 89 94 	call	0x12912	; 0x12912 <Print_Static_Home_Page>
	Print_Static_Home_Page();
    f4ca:	0e 94 70 9a 	call	0x134e0	; 0x134e0 <Print_Home_Page_In>
	Print_Home_Page_In();
    f4ce:	0e 94 83 96 	call	0x12d06	; 0x12d06 <Print_Home_Page_Out>
	Print_Home_Page_Out();
    f4d2:	10 92 62 04 	sts	0x0462, r1	; 0x800462 <HomePage_Flag>
	HomePage_Flag = 0;
    f4d6:	81 e0       	ldi	r24, 0x01	; 1
	MainMenuPage_Flag = 1;
    f4d8:	80 93 69 04 	sts	0x0469, r24	; 0x800469 <MainMenuPage_Flag>
    f4dc:	78 94       	sei
	sei();
    f4de:	8d b7       	in	r24, 0x3d	; 61
    f4e0:	9e b7       	in	r25, 0x3e	; 62
    f4e2:	40 96       	adiw	r24, 0x10	; 16
    f4e4:	0f b6       	in	r0, 0x3f	; 63
    f4e6:	f8 94       	cli
    f4e8:	9e bf       	out	0x3e, r25	; 62
    f4ea:	0f be       	out	0x3f, r0	; 63
    f4ec:	8d bf       	out	0x3d, r24	; 61
    f4ee:	80 91 fe 03 	lds	r24, 0x03FE	; 0x8003fe <rx_flag>
    while (1) 
    {
		//   
		if (rx_flag == 1)
    f4f2:	81 30       	cpi	r24, 0x01	; 1
    f4f4:	09 f4       	brne	.+2      	; 0xf4f8 <main+0x1ba>
    f4f6:	ff cf       	rjmp	.-2      	; 0xf4f6 <main+0x1b8>
    f4f8:	c0 90 e2 03 	lds	r12, 0x03E2	; 0x8003e2 <millis>
			_delay_ms(1000);
		}
		else
		{
			//   
			if(millis >= 300000)
    f4fc:	d0 90 e3 03 	lds	r13, 0x03E3	; 0x8003e3 <millis+0x1>
    f500:	e0 90 e4 03 	lds	r14, 0x03E4	; 0x8003e4 <millis+0x2>
    f504:	f0 90 e5 03 	lds	r15, 0x03E5	; 0x8003e5 <millis+0x3>
    f508:	90 ee       	ldi	r25, 0xE0	; 224
    f50a:	c9 16       	cp	r12, r25
    f50c:	93 e9       	ldi	r25, 0x93	; 147
    f50e:	d9 06       	cpc	r13, r25
    f510:	94 e0       	ldi	r25, 0x04	; 4
    f512:	e9 06       	cpc	r14, r25
    f514:	f1 04       	cpc	r15, r1
    f516:	4c f0       	brlt	.+18     	; 0xf52a <main+0x1ec>
    f518:	10 92 e2 03 	sts	0x03E2, r1	; 0x8003e2 <millis>
				sprintf(send_time,"%d:%d:%d,%d/%d/%d", hour, min, sec, date, month, year);
				sprintf_HOME_Weath_Param();
				sprintf(DATA_TO_UART,"%s %s %s %s %s %s %s %s %s %s ", temp_street_to_DB, temp_home, hum_street_to_DB, hum_home, Press_home, Rain_to_DB, Vbat_to_DB, WIND_speed_to_DB, wind_direction_to_DB, send_time);
				USART_Transmit(DATA_TO_UART);
				memset(DATA_TO_UART, 0, sizeof(char) * strlen(DATA_TO_UART));// */
				millis = 0;
    f51c:	10 92 e3 03 	sts	0x03E3, r1	; 0x8003e3 <millis+0x1>
    f520:	10 92 e4 03 	sts	0x03E4, r1	; 0x8003e4 <millis+0x2>
    f524:	10 92 e5 03 	sts	0x03E5, r1	; 0x8003e5 <millis+0x3>
    f528:	9a c0       	rjmp	.+308    	; 0xf65e <main+0x320>
    f52a:	c7 01       	movw	r24, r14
			}
			//  
			else if ((millis % 2010) == 0)
    f52c:	b6 01       	movw	r22, r12
    f52e:	2a ed       	ldi	r18, 0xDA	; 218
    f530:	37 e0       	ldi	r19, 0x07	; 7
    f532:	40 e0       	ldi	r20, 0x00	; 0
    f534:	50 e0       	ldi	r21, 0x00	; 0
    f536:	0e 94 86 9d 	call	0x13b0c	; 0x13b0c <__divmodsi4>
    f53a:	67 2b       	or	r22, r23
    f53c:	68 2b       	or	r22, r24
    f53e:	69 2b       	or	r22, r25
    f540:	09 f4       	brne	.+2      	; 0xf544 <main+0x206>
    f542:	8d c0       	rjmp	.+282    	; 0xf65e <main+0x320>
    f544:	c7 01       	movw	r24, r14
			{
				//sprintf_HOME_Weath_Param();
			}
			//   
			else if((millis % 100) == 0)
    f546:	b6 01       	movw	r22, r12
    f548:	24 e6       	ldi	r18, 0x64	; 100
    f54a:	30 e0       	ldi	r19, 0x00	; 0
    f54c:	40 e0       	ldi	r20, 0x00	; 0
    f54e:	50 e0       	ldi	r21, 0x00	; 0
    f550:	0e 94 86 9d 	call	0x13b0c	; 0x13b0c <__divmodsi4>
    f554:	67 2b       	or	r22, r23
    f556:	68 2b       	or	r22, r24
    f558:	69 2b       	or	r22, r25
    f55a:	09 f0       	breq	.+2      	; 0xf55e <main+0x220>
    f55c:	80 c0       	rjmp	.+256    	; 0xf65e <main+0x320>
    f55e:	80 91 60 04 	lds	r24, 0x0460	; 0x800460 <menu_flag>
			{
				switch (menu_flag)
    f562:	82 30       	cpi	r24, 0x02	; 2
    f564:	09 f4       	brne	.+2      	; 0xf568 <main+0x22a>
    f566:	41 c0       	rjmp	.+130    	; 0xf5ea <main+0x2ac>
    f568:	28 f4       	brcc	.+10     	; 0xf574 <main+0x236>
    f56a:	88 23       	and	r24, r24
    f56c:	51 f0       	breq	.+20     	; 0xf582 <main+0x244>
    f56e:	81 30       	cpi	r24, 0x01	; 1
    f570:	29 f1       	breq	.+74     	; 0xf5bc <main+0x27e>
    f572:	75 c0       	rjmp	.+234    	; 0xf65e <main+0x320>
    f574:	83 30       	cpi	r24, 0x03	; 3
    f576:	09 f4       	brne	.+2      	; 0xf57a <main+0x23c>
    f578:	4f c0       	rjmp	.+158    	; 0xf618 <main+0x2da>
    f57a:	84 30       	cpi	r24, 0x04	; 4
    f57c:	09 f4       	brne	.+2      	; 0xf580 <main+0x242>
    f57e:	5e c0       	rjmp	.+188    	; 0xf63c <main+0x2fe>
    f580:	6e c0       	rjmp	.+220    	; 0xf65e <main+0x320>
    f582:	80 91 62 04 	lds	r24, 0x0462	; 0x800462 <HomePage_Flag>
				{
					case 0:	
						if (HomePage_Flag == 1)
    f586:	81 30       	cpi	r24, 0x01	; 1
    f588:	a1 f4       	brne	.+40     	; 0xf5b2 <main+0x274>
    f58a:	0e 94 03 9d 	call	0x13a06	; 0x13a06 <sprintf_HOME_Weath_Param>
						{
							sprintf_HOME_Weath_Param();
    f58e:	0e 94 89 94 	call	0x12912	; 0x12912 <Print_Static_Home_Page>
							Print_Static_Home_Page();
    f592:	0e 94 70 9a 	call	0x134e0	; 0x134e0 <Print_Home_Page_In>
							Print_Home_Page_In();
    f596:	0e 94 83 96 	call	0x12d06	; 0x12d06 <Print_Home_Page_Out>
							Print_Home_Page_Out();
    f59a:	10 92 62 04 	sts	0x0462, r1	; 0x800462 <HomePage_Flag>
							HomePage_Flag = 0;
    f59e:	81 e0       	ldi	r24, 0x01	; 1
							MainMenuPage_Flag = 1;
    f5a0:	80 93 69 04 	sts	0x0469, r24	; 0x800469 <MainMenuPage_Flag>
    f5a4:	80 93 6a 04 	sts	0x046A, r24	; 0x80046a <TimeSettingsPage_Flag>
							TimeSettingsPage_Flag = 1;
    f5a8:	80 93 5c 04 	sts	0x045C, r24	; 0x80045c <PageAbout_Flag>
							PageAbout_Flag = 1;
    f5ac:	80 93 5d 04 	sts	0x045D, r24	; 0x80045d <AddInfoPage_Flag>
							AddInfoPage_Flag = 1;
    f5b0:	56 c0       	rjmp	.+172    	; 0xf65e <main+0x320>
    f5b2:	0e 94 03 9d 	call	0x13a06	; 0x13a06 <sprintf_HOME_Weath_Param>
						}
						else
						{
							sprintf_HOME_Weath_Param();
    f5b6:	0e 94 70 9a 	call	0x134e0	; 0x134e0 <Print_Home_Page_In>
							Print_Home_Page_In();
    f5ba:	51 c0       	rjmp	.+162    	; 0xf65e <main+0x320>
    f5bc:	80 91 69 04 	lds	r24, 0x0469	; 0x800469 <MainMenuPage_Flag>
						}
						break;
					case 1:	
						if (MainMenuPage_Flag == 1)
    f5c0:	81 30       	cpi	r24, 0x01	; 1
    f5c2:	81 f4       	brne	.+32     	; 0xf5e4 <main+0x2a6>
    f5c4:	0e 94 1d 89 	call	0x1123a	; 0x1123a <Print_Menu_Page_Static>
						{
							Print_Menu_Page_Static();
    f5c8:	0e 94 68 89 	call	0x112d0	; 0x112d0 <Print_Menu_Page>
							Print_Menu_Page();
    f5cc:	10 92 69 04 	sts	0x0469, r1	; 0x800469 <MainMenuPage_Flag>
							MainMenuPage_Flag = 0;
    f5d0:	81 e0       	ldi	r24, 0x01	; 1
							HomePage_Flag = 1;
    f5d2:	80 93 62 04 	sts	0x0462, r24	; 0x800462 <HomePage_Flag>
    f5d6:	80 93 6a 04 	sts	0x046A, r24	; 0x80046a <TimeSettingsPage_Flag>
							TimeSettingsPage_Flag = 1;
    f5da:	80 93 5c 04 	sts	0x045C, r24	; 0x80045c <PageAbout_Flag>
							PageAbout_Flag = 1;
    f5de:	80 93 5d 04 	sts	0x045D, r24	; 0x80045d <AddInfoPage_Flag>
							AddInfoPage_Flag = 1;
    f5e2:	3d c0       	rjmp	.+122    	; 0xf65e <main+0x320>
    f5e4:	0e 94 68 89 	call	0x112d0	; 0x112d0 <Print_Menu_Page>
						}
						else
						{
							Print_Menu_Page();
    f5e8:	3a c0       	rjmp	.+116    	; 0xf65e <main+0x320>
    f5ea:	80 91 6a 04 	lds	r24, 0x046A	; 0x80046a <TimeSettingsPage_Flag>
						}
						break;
					case 2:	
						if (TimeSettingsPage_Flag == 1)
    f5ee:	81 30       	cpi	r24, 0x01	; 1
    f5f0:	81 f4       	brne	.+32     	; 0xf612 <main+0x2d4>
    f5f2:	0e 94 54 9c 	call	0x138a8	; 0x138a8 <Print_Page_Clock_Settings_Static>
						{
							Print_Page_Clock_Settings_Static();
    f5f6:	0e 94 a9 8b 	call	0x11752	; 0x11752 <Print_Page_Clock_Settings>
							Print_Page_Clock_Settings();
    f5fa:	10 92 6a 04 	sts	0x046A, r1	; 0x80046a <TimeSettingsPage_Flag>
							TimeSettingsPage_Flag = 0;
    f5fe:	81 e0       	ldi	r24, 0x01	; 1
							MainMenuPage_Flag = 1;
    f600:	80 93 69 04 	sts	0x0469, r24	; 0x800469 <MainMenuPage_Flag>
    f604:	80 93 62 04 	sts	0x0462, r24	; 0x800462 <HomePage_Flag>
							HomePage_Flag = 1;
    f608:	80 93 5c 04 	sts	0x045C, r24	; 0x80045c <PageAbout_Flag>
							PageAbout_Flag = 1;
    f60c:	80 93 5d 04 	sts	0x045D, r24	; 0x80045d <AddInfoPage_Flag>
							AddInfoPage_Flag = 1;
    f610:	26 c0       	rjmp	.+76     	; 0xf65e <main+0x320>
    f612:	0e 94 a9 8b 	call	0x11752	; 0x11752 <Print_Page_Clock_Settings>
						}
						else
						{
							Print_Page_Clock_Settings();
    f616:	23 c0       	rjmp	.+70     	; 0xf65e <main+0x320>
    f618:	80 91 5c 04 	lds	r24, 0x045C	; 0x80045c <PageAbout_Flag>
						}
						break;
					case 3:	
						if(PageAbout_Flag == 1)
    f61c:	81 30       	cpi	r24, 0x01	; 1
    f61e:	f9 f4       	brne	.+62     	; 0xf65e <main+0x320>
    f620:	0e 94 f8 90 	call	0x121f0	; 0x121f0 <Print_Page_About>
						{
							Print_Page_About();
    f624:	81 e0       	ldi	r24, 0x01	; 1
							TimeSettingsPage_Flag = 1;
    f626:	80 93 6a 04 	sts	0x046A, r24	; 0x80046a <TimeSettingsPage_Flag>
    f62a:	80 93 69 04 	sts	0x0469, r24	; 0x800469 <MainMenuPage_Flag>
							MainMenuPage_Flag = 1;
    f62e:	80 93 62 04 	sts	0x0462, r24	; 0x800462 <HomePage_Flag>
							HomePage_Flag = 1;
    f632:	10 92 5c 04 	sts	0x045C, r1	; 0x80045c <PageAbout_Flag>
							PageAbout_Flag = 0;
    f636:	80 93 5d 04 	sts	0x045D, r24	; 0x80045d <AddInfoPage_Flag>
							AddInfoPage_Flag = 1;
    f63a:	11 c0       	rjmp	.+34     	; 0xf65e <main+0x320>
    f63c:	80 91 5d 04 	lds	r24, 0x045D	; 0x80045d <AddInfoPage_Flag>
						{
							
						}
						break;
					case 4:	
						if(AddInfoPage_Flag == 1)
    f640:	81 30       	cpi	r24, 0x01	; 1
    f642:	69 f4       	brne	.+26     	; 0xf65e <main+0x320>
    f644:	0e 94 3c 91 	call	0x12278	; 0x12278 <Print_Page_Dop_Info>
						{
							Print_Page_Dop_Info();
    f648:	81 e0       	ldi	r24, 0x01	; 1
							TimeSettingsPage_Flag = 1;
    f64a:	80 93 6a 04 	sts	0x046A, r24	; 0x80046a <TimeSettingsPage_Flag>
    f64e:	80 93 69 04 	sts	0x0469, r24	; 0x800469 <MainMenuPage_Flag>
							MainMenuPage_Flag = 1;
    f652:	80 93 62 04 	sts	0x0462, r24	; 0x800462 <HomePage_Flag>
							HomePage_Flag = 1;
    f656:	80 93 5c 04 	sts	0x045C, r24	; 0x80045c <PageAbout_Flag>
							PageAbout_Flag = 1;
    f65a:	10 92 5d 04 	sts	0x045D, r1	; 0x80045d <AddInfoPage_Flag>
							AddInfoPage_Flag = 0;
    f65e:	a8 95       	wdr
						}
					break;
				}
			}
		}
		wdt_reset();
    f660:	46 cf       	rjmp	.-372    	; 0xf4ee <main+0x1b0>

0000f662 <xmit_spi>:
// SPI functions
//-----------------------------------------------------------------------
void xmit_spi (BYTE data)		// Send a byte 
{ BYTE i;

 for (i=0;i<8;i++)
    f662:	20 e0       	ldi	r18, 0x00	; 0
    f664:	18 c0       	rjmp	.+48     	; 0xf696 <xmit_spi+0x34>
  {
   if ((data&0x80)==0x00) PORTK&=~_BV(SD_DI);
    f666:	88 23       	and	r24, r24
    f668:	34 f0       	brlt	.+12     	; 0xf676 <xmit_spi+0x14>
    f66a:	e8 e0       	ldi	r30, 0x08	; 8
    f66c:	f1 e0       	ldi	r31, 0x01	; 1
    f66e:	90 81       	ld	r25, Z
    f670:	9f 7b       	andi	r25, 0xBF	; 191
    f672:	90 83       	st	Z, r25
    f674:	05 c0       	rjmp	.+10     	; 0xf680 <xmit_spi+0x1e>
                     else PORTK|=_BV(SD_DI);
    f676:	e8 e0       	ldi	r30, 0x08	; 8
    f678:	f1 e0       	ldi	r31, 0x01	; 1
    f67a:	90 81       	ld	r25, Z
    f67c:	90 64       	ori	r25, 0x40	; 64
    f67e:	90 83       	st	Z, r25
   data=data<<1; 
    f680:	88 0f       	add	r24, r24
   PORTK|=_BV(SD_CLK);
    f682:	e8 e0       	ldi	r30, 0x08	; 8
    f684:	f1 e0       	ldi	r31, 0x01	; 1
    f686:	90 81       	ld	r25, Z
    f688:	90 61       	ori	r25, 0x10	; 16
    f68a:	90 83       	st	Z, r25
   asm("nop"); 
    f68c:	00 00       	nop
   PORTK&=~_BV(SD_CLK);
    f68e:	90 81       	ld	r25, Z
    f690:	9f 7e       	andi	r25, 0xEF	; 239
    f692:	90 83       	st	Z, r25
// SPI functions
//-----------------------------------------------------------------------
void xmit_spi (BYTE data)		// Send a byte 
{ BYTE i;

 for (i=0;i<8;i++)
    f694:	2f 5f       	subi	r18, 0xFF	; 255
    f696:	28 30       	cpi	r18, 0x08	; 8
    f698:	30 f3       	brcs	.-52     	; 0xf666 <xmit_spi+0x4>
   data=data<<1; 
   PORTK|=_BV(SD_CLK);
   asm("nop"); 
   PORTK&=~_BV(SD_CLK);
  }
}
    f69a:	08 95       	ret

0000f69c <rcv_spi>:

BYTE rcv_spi (void)				// Send 0xFF and receive a byte 
{ BYTE i, res=0;

 PORTK|=_BV(SD_DI);
    f69c:	e8 e0       	ldi	r30, 0x08	; 8
    f69e:	f1 e0       	ldi	r31, 0x01	; 1
    f6a0:	80 81       	ld	r24, Z
    f6a2:	80 64       	ori	r24, 0x40	; 64
    f6a4:	80 83       	st	Z, r24
   PORTK&=~_BV(SD_CLK);
  }
}

BYTE rcv_spi (void)				// Send 0xFF and receive a byte 
{ BYTE i, res=0;
    f6a6:	80 e0       	ldi	r24, 0x00	; 0

 PORTK|=_BV(SD_DI);

 for (i=0;i<8;i++)
    f6a8:	20 e0       	ldi	r18, 0x00	; 0
    f6aa:	11 c0       	rjmp	.+34     	; 0xf6ce <rcv_spi+0x32>
  {
   PORTK|=_BV(SD_CLK);
    f6ac:	e8 e0       	ldi	r30, 0x08	; 8
    f6ae:	f1 e0       	ldi	r31, 0x01	; 1
    f6b0:	90 81       	ld	r25, Z
    f6b2:	90 61       	ori	r25, 0x10	; 16
    f6b4:	90 83       	st	Z, r25
   res=res<<1;
    f6b6:	88 0f       	add	r24, r24
   if ((PINK&_BV(SD_DO))!=0x00) res=res|0x01;
    f6b8:	90 91 06 01 	lds	r25, 0x0106	; 0x800106 <__TEXT_REGION_LENGTH__+0x7c0106>
    f6bc:	95 fd       	sbrc	r25, 5
    f6be:	81 60       	ori	r24, 0x01	; 1
   PORTK&=~_BV(SD_CLK);
    f6c0:	e8 e0       	ldi	r30, 0x08	; 8
    f6c2:	f1 e0       	ldi	r31, 0x01	; 1
    f6c4:	90 81       	ld	r25, Z
    f6c6:	9f 7e       	andi	r25, 0xEF	; 239
    f6c8:	90 83       	st	Z, r25
   asm("nop");
    f6ca:	00 00       	nop
BYTE rcv_spi (void)				// Send 0xFF and receive a byte 
{ BYTE i, res=0;

 PORTK|=_BV(SD_DI);

 for (i=0;i<8;i++)
    f6cc:	2f 5f       	subi	r18, 0xFF	; 255
    f6ce:	28 30       	cpi	r18, 0x08	; 8
    f6d0:	68 f3       	brcs	.-38     	; 0xf6ac <rcv_spi+0x10>
   if ((PINK&_BV(SD_DO))!=0x00) res=res|0x01;
   PORTK&=~_BV(SD_CLK);
   asm("nop");
  }
 return res;
}	/* Send 0xFF and receive a byte */
    f6d2:	08 95       	ret

0000f6d4 <send_cmd>:
static
BYTE send_cmd (
	BYTE cmd,		// Command byte 
	DWORD arg		// Argument 
)
{
    f6d4:	df 92       	push	r13
    f6d6:	ef 92       	push	r14
    f6d8:	ff 92       	push	r15
    f6da:	0f 93       	push	r16
    f6dc:	1f 93       	push	r17
    f6de:	cf 93       	push	r28
    f6e0:	df 93       	push	r29
    f6e2:	c8 2f       	mov	r28, r24
    f6e4:	d4 2f       	mov	r29, r20
    f6e6:	f5 2e       	mov	r15, r21
    f6e8:	e6 2e       	mov	r14, r22
    f6ea:	d7 2e       	mov	r13, r23
	BYTE n, res;


	if (cmd & 0x80) {	// ACMD<n> is the command sequense of CMD55-CMD<n> 
    f6ec:	88 23       	and	r24, r24
    f6ee:	44 f4       	brge	.+16     	; 0xf700 <send_cmd+0x2c>
		cmd &= 0x7F;
    f6f0:	cf 77       	andi	r28, 0x7F	; 127
		res = send_cmd(CMD55, 0);
    f6f2:	40 e0       	ldi	r20, 0x00	; 0
    f6f4:	50 e0       	ldi	r21, 0x00	; 0
    f6f6:	ba 01       	movw	r22, r20
    f6f8:	87 e7       	ldi	r24, 0x77	; 119
    f6fa:	ec df       	rcall	.-40     	; 0xf6d4 <send_cmd>
		if (res > 1) return res;
    f6fc:	82 30       	cpi	r24, 0x02	; 2
    f6fe:	28 f5       	brcc	.+74     	; 0xf74a <send_cmd+0x76>
	}

	// Select the card 
	DESELECT();
    f700:	08 e0       	ldi	r16, 0x08	; 8
    f702:	11 e0       	ldi	r17, 0x01	; 1
    f704:	f8 01       	movw	r30, r16
    f706:	80 81       	ld	r24, Z
    f708:	80 68       	ori	r24, 0x80	; 128
	rcv_spi();
    f70a:	80 83       	st	Z, r24
    f70c:	c7 df       	rcall	.-114    	; 0xf69c <rcv_spi>
	SELECT();
    f70e:	f8 01       	movw	r30, r16
    f710:	80 81       	ld	r24, Z
    f712:	8f 77       	andi	r24, 0x7F	; 127
	rcv_spi();
    f714:	80 83       	st	Z, r24

	// Send a command packet 
	xmit_spi(cmd);						// Start + Command index 
    f716:	c2 df       	rcall	.-124    	; 0xf69c <rcv_spi>
    f718:	8c 2f       	mov	r24, r28
	xmit_spi((BYTE)(arg >> 24));		// Argument[31..24] 
    f71a:	a3 df       	rcall	.-186    	; 0xf662 <xmit_spi>
    f71c:	8d 2d       	mov	r24, r13
	xmit_spi((BYTE)(arg >> 16));		// Argument[23..16] 
    f71e:	a1 df       	rcall	.-190    	; 0xf662 <xmit_spi>
    f720:	8e 2d       	mov	r24, r14
	xmit_spi((BYTE)(arg >> 8));			// Argument[15..8] 
    f722:	9f df       	rcall	.-194    	; 0xf662 <xmit_spi>
    f724:	8f 2d       	mov	r24, r15
    f726:	9d df       	rcall	.-198    	; 0xf662 <xmit_spi>
	xmit_spi((BYTE)arg);				// Argument[7..0] 
    f728:	8d 2f       	mov	r24, r29
    f72a:	9b df       	rcall	.-202    	; 0xf662 <xmit_spi>
    f72c:	c0 34       	cpi	r28, 0x40	; 64
	n = 0x01;							// Dummy CRC + Stop 
	if (cmd == CMD0) n = 0x95;			// Valid CRC for CMD0(0) 
    f72e:	11 f0       	breq	.+4      	; 0xf734 <send_cmd+0x60>
	xmit_spi(cmd);						// Start + Command index 
	xmit_spi((BYTE)(arg >> 24));		// Argument[31..24] 
	xmit_spi((BYTE)(arg >> 16));		// Argument[23..16] 
	xmit_spi((BYTE)(arg >> 8));			// Argument[15..8] 
	xmit_spi((BYTE)arg);				// Argument[7..0] 
	n = 0x01;							// Dummy CRC + Stop 
    f730:	81 e0       	ldi	r24, 0x01	; 1
	if (cmd == CMD0) n = 0x95;			// Valid CRC for CMD0(0) 
    f732:	01 c0       	rjmp	.+2      	; 0xf736 <send_cmd+0x62>
	if (cmd == CMD8) n = 0x87;			// Valid CRC for CMD8(0x1AA) 
    f734:	85 e9       	ldi	r24, 0x95	; 149
    f736:	c8 34       	cpi	r28, 0x48	; 72
    f738:	09 f4       	brne	.+2      	; 0xf73c <send_cmd+0x68>
	xmit_spi(n);
    f73a:	87 e8       	ldi	r24, 0x87	; 135
    f73c:	92 df       	rcall	.-220    	; 0xf662 <xmit_spi>

	// Receive a command response 
	n = 10;								// Wait for a valid response in timeout of 10 attempts 
    f73e:	ca e0       	ldi	r28, 0x0A	; 10
	do {
		res = rcv_spi();
    f740:	ad df       	rcall	.-166    	; 0xf69c <rcv_spi>
    f742:	88 23       	and	r24, r24
	} while ((res & 0x80) && --n);
    f744:	14 f4       	brge	.+4      	; 0xf74a <send_cmd+0x76>
    f746:	c1 50       	subi	r28, 0x01	; 1
    f748:	d9 f7       	brne	.-10     	; 0xf740 <send_cmd+0x6c>
    f74a:	df 91       	pop	r29

	return res;			// Return with the response value 
}
    f74c:	cf 91       	pop	r28
    f74e:	1f 91       	pop	r17
    f750:	0f 91       	pop	r16
    f752:	ff 90       	pop	r15
    f754:	ef 90       	pop	r14
    f756:	df 90       	pop	r13
    f758:	08 95       	ret

0000f75a <release_spi>:
    f75a:	a0 cf       	rjmp	.-192    	; 0xf69c <rcv_spi>
// Deselect the card and release SPI bus                                 
//-----------------------------------------------------------------------
static
void release_spi (void)
{
	rcv_spi();
    f75c:	08 95       	ret

0000f75e <disk_readp>:
	BYTE *buff,		// Pointer to the read buffer (NULL:Read bytes are forwarded to the stream) 
	DWORD lba,		// Sector number (LBA) 
	WORD ofs,		// Byte offset to read from (0..511) 
	WORD cnt		// Number of bytes to read (ofs + cnt mus be <= 512) 
)
{
    f75e:	cf 92       	push	r12
    f760:	df 92       	push	r13
    f762:	ef 92       	push	r14
    f764:	ff 92       	push	r15
    f766:	0f 93       	push	r16
    f768:	1f 93       	push	r17
    f76a:	cf 93       	push	r28
    f76c:	df 93       	push	r29
    f76e:	7c 01       	movw	r14, r24
    f770:	69 01       	movw	r12, r18
	BYTE rc;
	WORD bc;

//	if ((PINB&_BV(SD_INS))!=0x00) return RES_ERROR;

	if (!(CardType & CT_BLOCK))
    f772:	80 91 fd 03 	lds	r24, 0x03FD	; 0x8003fd <CardType>
    f776:	83 fd       	sbrc	r24, 3
    f778:	09 c0       	rjmp	.+18     	; 0xf78c <disk_readp+0x2e>
	{
		lba *= 512;		// Convert to byte address if needed 
    f77a:	03 2e       	mov	r0, r19
    f77c:	39 e0       	ldi	r19, 0x09	; 9
    f77e:	44 0f       	add	r20, r20
    f780:	55 1f       	adc	r21, r21
    f782:	66 1f       	adc	r22, r22
    f784:	77 1f       	adc	r23, r23
    f786:	3a 95       	dec	r19
    f788:	d1 f7       	brne	.-12     	; 0xf77e <disk_readp+0x20>
    f78a:	30 2d       	mov	r19, r0
	}
	res = RES_ERROR;
	if (send_cmd(CMD17, lba) == 0) {		// READ_SINGLE_BLOCK 
    f78c:	81 e5       	ldi	r24, 0x51	; 81
    f78e:	a2 df       	rcall	.-188    	; 0xf6d4 <send_cmd>
    f790:	81 11       	cpse	r24, r1
    f792:	30 c0       	rjmp	.+96     	; 0xf7f4 <disk_readp+0x96>
    f794:	c0 e3       	ldi	r28, 0x30	; 48
    f796:	d5 e7       	ldi	r29, 0x75	; 117
		bc = 30000;
		do {							// Wait for data packet in timeout of 100ms 
			rc = rcv_spi();
    f798:	81 df       	rcall	.-254    	; 0xf69c <rcv_spi>
    f79a:	8f 3f       	cpi	r24, 0xFF	; 255
		} while (rc == 0xFF && --bc);
    f79c:	11 f4       	brne	.+4      	; 0xf7a2 <disk_readp+0x44>
    f79e:	21 97       	sbiw	r28, 0x01	; 1
    f7a0:	d9 f7       	brne	.-10     	; 0xf798 <disk_readp+0x3a>
    f7a2:	8e 3f       	cpi	r24, 0xFE	; 254

		if (rc == 0xFE) {				// A data packet arrived 
    f7a4:	49 f5       	brne	.+82     	; 0xf7f8 <disk_readp+0x9a>
    f7a6:	cc 27       	eor	r28, r28
			bc = 514 - ofs - cnt;
    f7a8:	dd 27       	eor	r29, r29
    f7aa:	cc 19       	sub	r28, r12
    f7ac:	dd 09       	sbc	r29, r13
    f7ae:	c0 1b       	sub	r28, r16
    f7b0:	d1 0b       	sbc	r29, r17
    f7b2:	ce 5f       	subi	r28, 0xFE	; 254
    f7b4:	dd 4f       	sbci	r29, 0xFD	; 253
    f7b6:	c1 14       	cp	r12, r1

			// Skip leading bytes 
			if (ofs) {
    f7b8:	d1 04       	cpc	r13, r1
    f7ba:	29 f0       	breq	.+10     	; 0xf7c6 <disk_readp+0x68>
				do rcv_spi(); while (--ofs);
    f7bc:	6f df       	rcall	.-290    	; 0xf69c <rcv_spi>
    f7be:	81 e0       	ldi	r24, 0x01	; 1
    f7c0:	c8 1a       	sub	r12, r24
    f7c2:	d1 08       	sbc	r13, r1
    f7c4:	d9 f7       	brne	.-10     	; 0xf7bc <disk_readp+0x5e>
    f7c6:	e1 14       	cp	r14, r1
			}

			// Receive a part of the sector 
			if (buff) {	// Store data to the memory 
    f7c8:	f1 04       	cpc	r15, r1
    f7ca:	61 f0       	breq	.+24     	; 0xf7e4 <disk_readp+0x86>
    f7cc:	67 01       	movw	r12, r14
				do
					*buff++ = rcv_spi();
    f7ce:	ef ef       	ldi	r30, 0xFF	; 255
    f7d0:	ce 1a       	sub	r12, r30
    f7d2:	de 0a       	sbc	r13, r30
    f7d4:	63 df       	rcall	.-314    	; 0xf69c <rcv_spi>
    f7d6:	f7 01       	movw	r30, r14
    f7d8:	80 83       	st	Z, r24
    f7da:	01 50       	subi	r16, 0x01	; 1
				while (--cnt);
    f7dc:	11 09       	sbc	r17, r1
    f7de:	76 01       	movw	r14, r12
			}

			// Receive a part of the sector 
			if (buff) {	// Store data to the memory 
				do
					*buff++ = rcv_spi();
    f7e0:	a9 f7       	brne	.-22     	; 0xf7cc <disk_readp+0x6e>
				while (--cnt);
    f7e2:	03 c0       	rjmp	.+6      	; 0xf7ea <disk_readp+0x8c>
			} else {	// Forward data to the outgoing stream (depends on the project) 
				do 
                ;//uart_transmit(rcv_spi());		// (Console output) 
				while (--cnt);
    f7e4:	01 50       	subi	r16, 0x01	; 1
    f7e6:	11 09       	sbc	r17, r1
    f7e8:	e9 f7       	brne	.-6      	; 0xf7e4 <disk_readp+0x86>
			}

			// Skip trailing bytes and CRC 
			do rcv_spi(); while (--bc);
    f7ea:	58 df       	rcall	.-336    	; 0xf69c <rcv_spi>
    f7ec:	21 97       	sbiw	r28, 0x01	; 1
    f7ee:	e9 f7       	brne	.-6      	; 0xf7ea <disk_readp+0x8c>
    f7f0:	c0 e0       	ldi	r28, 0x00	; 0

			res = RES_OK;
    f7f2:	03 c0       	rjmp	.+6      	; 0xf7fa <disk_readp+0x9c>

	if (!(CardType & CT_BLOCK))
	{
		lba *= 512;		// Convert to byte address if needed 
	}
	res = RES_ERROR;
    f7f4:	c1 e0       	ldi	r28, 0x01	; 1
    f7f6:	01 c0       	rjmp	.+2      	; 0xf7fa <disk_readp+0x9c>
    f7f8:	c1 e0       	ldi	r28, 0x01	; 1

			res = RES_OK;
		}
	}

	release_spi();
    f7fa:	af df       	rcall	.-162    	; 0xf75a <release_spi>
    f7fc:	8c 2f       	mov	r24, r28

	return res;
}
    f7fe:	df 91       	pop	r29
    f800:	cf 91       	pop	r28
    f802:	1f 91       	pop	r17
    f804:	0f 91       	pop	r16
    f806:	ff 90       	pop	r15
    f808:	ef 90       	pop	r14
    f80a:	df 90       	pop	r13
    f80c:	cf 90       	pop	r12
    f80e:	08 95       	ret

0000f810 <disk_writep>:
    f810:	0f 93       	push	r16

DRESULT disk_writep (
	const BYTE *buff,	// Pointer to the bytes to be written (NULL:Initiate/Finalize sector write) 
	DWORD sa			// Number of bytes to send, Sector number (LBA) or zero 
)
{
    f812:	1f 93       	push	r17
    f814:	cf 93       	push	r28
    f816:	df 93       	push	r29
    f818:	fc 01       	movw	r30, r24
// 	if ((PINB&_BV(SD_INS))!=0x00) return RES_ERROR;
// 	if ((PINB&_BV(SD_WP))!=0x00) return RES_ERROR;

	res = RES_ERROR;

	if (buff) {		// Send data bytes 
    f81a:	89 2b       	or	r24, r25
    f81c:	e9 f0       	breq	.+58     	; 0xf858 <disk_writep+0x48>
		bc = (WORD)sa;
    f81e:	ea 01       	movw	r28, r20
		while (bc && wc) {		// Send data bytes to the card 
    f820:	10 c0       	rjmp	.+32     	; 0xf842 <disk_writep+0x32>
			xmit_spi(*buff++);
    f822:	8f 01       	movw	r16, r30
    f824:	0f 5f       	subi	r16, 0xFF	; 255
    f826:	1f 4f       	sbci	r17, 0xFF	; 255
    f828:	80 81       	ld	r24, Z
    f82a:	1b df       	rcall	.-458    	; 0xf662 <xmit_spi>
			wc--; bc--;
    f82c:	80 91 fb 03 	lds	r24, 0x03FB	; 0x8003fb <wc.1710>
    f830:	90 91 fc 03 	lds	r25, 0x03FC	; 0x8003fc <wc.1710+0x1>
    f834:	01 97       	sbiw	r24, 0x01	; 1
    f836:	90 93 fc 03 	sts	0x03FC, r25	; 0x8003fc <wc.1710+0x1>
    f83a:	80 93 fb 03 	sts	0x03FB, r24	; 0x8003fb <wc.1710>
    f83e:	21 97       	sbiw	r28, 0x01	; 1
	res = RES_ERROR;

	if (buff) {		// Send data bytes 
		bc = (WORD)sa;
		while (bc && wc) {		// Send data bytes to the card 
			xmit_spi(*buff++);
    f840:	f8 01       	movw	r30, r16

	res = RES_ERROR;

	if (buff) {		// Send data bytes 
		bc = (WORD)sa;
		while (bc && wc) {		// Send data bytes to the card 
    f842:	20 97       	sbiw	r28, 0x00	; 0
    f844:	09 f4       	brne	.+2      	; 0xf848 <disk_writep+0x38>
    f846:	4d c0       	rjmp	.+154    	; 0xf8e2 <disk_writep+0xd2>
    f848:	80 91 fb 03 	lds	r24, 0x03FB	; 0x8003fb <wc.1710>
    f84c:	90 91 fc 03 	lds	r25, 0x03FC	; 0x8003fc <wc.1710+0x1>
    f850:	89 2b       	or	r24, r25
    f852:	39 f7       	brne	.-50     	; 0xf822 <disk_writep+0x12>
			xmit_spi(*buff++);
			wc--; bc--;
		}
		res = RES_OK;
    f854:	c0 e0       	ldi	r28, 0x00	; 0
    f856:	48 c0       	rjmp	.+144    	; 0xf8e8 <disk_writep+0xd8>
	} else {
		if (sa) {	// Initiate sector write process 
    f858:	41 15       	cp	r20, r1
    f85a:	51 05       	cpc	r21, r1
    f85c:	61 05       	cpc	r22, r1
    f85e:	71 05       	cpc	r23, r1
    f860:	e9 f0       	breq	.+58     	; 0xf89c <disk_writep+0x8c>
			if (!(CardType & CT_BLOCK)) sa *= 512;	// Convert to byte address if needed 
    f862:	80 91 fd 03 	lds	r24, 0x03FD	; 0x8003fd <CardType>
    f866:	83 fd       	sbrc	r24, 3
    f868:	09 c0       	rjmp	.+18     	; 0xf87c <disk_writep+0x6c>
    f86a:	03 2e       	mov	r0, r19
    f86c:	39 e0       	ldi	r19, 0x09	; 9
    f86e:	44 0f       	add	r20, r20
    f870:	55 1f       	adc	r21, r21
    f872:	66 1f       	adc	r22, r22
    f874:	77 1f       	adc	r23, r23
    f876:	3a 95       	dec	r19
    f878:	d1 f7       	brne	.-12     	; 0xf86e <disk_writep+0x5e>
    f87a:	30 2d       	mov	r19, r0
			if (send_cmd(CMD24, sa) == 0) {			// WRITE_SINGLE_BLOCK 
    f87c:	88 e5       	ldi	r24, 0x58	; 88
    f87e:	2a df       	rcall	.-428    	; 0xf6d4 <send_cmd>
    f880:	81 11       	cpse	r24, r1
    f882:	31 c0       	rjmp	.+98     	; 0xf8e6 <disk_writep+0xd6>
				xmit_spi(0xFF); xmit_spi(0xFE);		// Data block header 
    f884:	8f ef       	ldi	r24, 0xFF	; 255
    f886:	ed de       	rcall	.-550    	; 0xf662 <xmit_spi>
    f888:	8e ef       	ldi	r24, 0xFE	; 254
    f88a:	eb de       	rcall	.-554    	; 0xf662 <xmit_spi>
    f88c:	80 e0       	ldi	r24, 0x00	; 0
				wc = 512;							// Set byte counter 
    f88e:	92 e0       	ldi	r25, 0x02	; 2
    f890:	90 93 fc 03 	sts	0x03FC, r25	; 0x8003fc <wc.1710+0x1>
    f894:	80 93 fb 03 	sts	0x03FB, r24	; 0x8003fb <wc.1710>
    f898:	c0 e0       	ldi	r28, 0x00	; 0
				res = RES_OK;
    f89a:	26 c0       	rjmp	.+76     	; 0xf8e8 <disk_writep+0xd8>
    f89c:	80 91 fb 03 	lds	r24, 0x03FB	; 0x8003fb <wc.1710>
			}
		} else {	// Finalize sector write process 
			bc = wc + 2;
    f8a0:	90 91 fc 03 	lds	r25, 0x03FC	; 0x8003fc <wc.1710+0x1>
    f8a4:	02 96       	adiw	r24, 0x02	; 2
			while (bc--) xmit_spi(0);	// Fill left bytes and CRC with zeros 
    f8a6:	03 c0       	rjmp	.+6      	; 0xf8ae <disk_writep+0x9e>
    f8a8:	80 e0       	ldi	r24, 0x00	; 0
    f8aa:	db de       	rcall	.-586    	; 0xf662 <xmit_spi>
    f8ac:	ce 01       	movw	r24, r28
    f8ae:	ec 01       	movw	r28, r24
    f8b0:	21 97       	sbiw	r28, 0x01	; 1
    f8b2:	89 2b       	or	r24, r25
    f8b4:	c9 f7       	brne	.-14     	; 0xf8a8 <disk_writep+0x98>
			if ((rcv_spi() & 0x1F) == 0x05) {	// Receive data resp and wait for end of write process in timeout of 300ms 
    f8b6:	f2 de       	rcall	.-540    	; 0xf69c <rcv_spi>
    f8b8:	8f 71       	andi	r24, 0x1F	; 31
    f8ba:	85 30       	cpi	r24, 0x05	; 5
    f8bc:	21 f0       	breq	.+8      	; 0xf8c6 <disk_writep+0xb6>
    f8be:	c1 e0       	ldi	r28, 0x01	; 1
	static WORD wc;

// 	if ((PINB&_BV(SD_INS))!=0x00) return RES_ERROR;
// 	if ((PINB&_BV(SD_WP))!=0x00) return RES_ERROR;

	res = RES_ERROR;
    f8c0:	0e c0       	rjmp	.+28     	; 0xf8de <disk_writep+0xce>
			}
		} else {	// Finalize sector write process 
			bc = wc + 2;
			while (bc--) xmit_spi(0);	// Fill left bytes and CRC with zeros 
			if ((rcv_spi() & 0x1F) == 0x05) {	// Receive data resp and wait for end of write process in timeout of 300ms 
				for (bc = 65000; rcv_spi() != 0xFF && bc; bc--) ;	// Wait ready 
    f8c2:	21 97       	sbiw	r28, 0x01	; 1
    f8c4:	02 c0       	rjmp	.+4      	; 0xf8ca <disk_writep+0xba>
    f8c6:	c8 ee       	ldi	r28, 0xE8	; 232
    f8c8:	dd ef       	ldi	r29, 0xFD	; 253
    f8ca:	e8 de       	rcall	.-560    	; 0xf69c <rcv_spi>
    f8cc:	8f 3f       	cpi	r24, 0xFF	; 255
    f8ce:	11 f0       	breq	.+4      	; 0xf8d4 <disk_writep+0xc4>
    f8d0:	20 97       	sbiw	r28, 0x00	; 0
    f8d2:	b9 f7       	brne	.-18     	; 0xf8c2 <disk_writep+0xb2>
				if (bc) res = RES_OK;
    f8d4:	cd 2b       	or	r28, r29
    f8d6:	11 f4       	brne	.+4      	; 0xf8dc <disk_writep+0xcc>
	static WORD wc;

// 	if ((PINB&_BV(SD_INS))!=0x00) return RES_ERROR;
// 	if ((PINB&_BV(SD_WP))!=0x00) return RES_ERROR;

	res = RES_ERROR;
    f8d8:	c1 e0       	ldi	r28, 0x01	; 1
    f8da:	01 c0       	rjmp	.+2      	; 0xf8de <disk_writep+0xce>
		} else {	// Finalize sector write process 
			bc = wc + 2;
			while (bc--) xmit_spi(0);	// Fill left bytes and CRC with zeros 
			if ((rcv_spi() & 0x1F) == 0x05) {	// Receive data resp and wait for end of write process in timeout of 300ms 
				for (bc = 65000; rcv_spi() != 0xFF && bc; bc--) ;	// Wait ready 
				if (bc) res = RES_OK;
    f8dc:	c0 e0       	ldi	r28, 0x00	; 0
			}
			release_spi();
    f8de:	3d df       	rcall	.-390    	; 0xf75a <release_spi>
    f8e0:	03 c0       	rjmp	.+6      	; 0xf8e8 <disk_writep+0xd8>
    f8e2:	c0 e0       	ldi	r28, 0x00	; 0
		bc = (WORD)sa;
		while (bc && wc) {		// Send data bytes to the card 
			xmit_spi(*buff++);
			wc--; bc--;
		}
		res = RES_OK;
    f8e4:	01 c0       	rjmp	.+2      	; 0xf8e8 <disk_writep+0xd8>
    f8e6:	c1 e0       	ldi	r28, 0x01	; 1
	static WORD wc;

// 	if ((PINB&_BV(SD_INS))!=0x00) return RES_ERROR;
// 	if ((PINB&_BV(SD_WP))!=0x00) return RES_ERROR;

	res = RES_ERROR;
    f8e8:	8c 2f       	mov	r24, r28
			release_spi();
		}
	}

	return res;
}
    f8ea:	df 91       	pop	r29
    f8ec:	cf 91       	pop	r28
    f8ee:	1f 91       	pop	r17
    f8f0:	0f 91       	pop	r16
    f8f2:	08 95       	ret

0000f8f4 <disk_initialize>:
    f8f4:	ef 92       	push	r14

//--------------------------------------------------------------------------
// Initialize Disk Drive                                                 
//--------------------------------------------------------------------------
DSTATUS disk_initialize (void)
{
    f8f6:	ff 92       	push	r15
    f8f8:	0f 93       	push	r16
    f8fa:	1f 93       	push	r17
    f8fc:	cf 93       	push	r28
    f8fe:	df 93       	push	r29
    f900:	00 d0       	rcall	.+0      	; 0xf902 <disk_initialize+0xe>
    f902:	1f 92       	push	r1
    f904:	cd b7       	in	r28, 0x3d	; 61
    f906:	de b7       	in	r29, 0x3e	; 62
	BYTE n, cmd, ty, ocr[4];
	WORD tmr;


	INIT_SPI();
    f908:	e8 e0       	ldi	r30, 0x08	; 8
    f90a:	f1 e0       	ldi	r31, 0x01	; 1
    f90c:	80 81       	ld	r24, Z
    f90e:	80 68       	ori	r24, 0x80	; 128
    f910:	80 83       	st	Z, r24
    f912:	80 81       	ld	r24, Z
    f914:	80 66       	ori	r24, 0x60	; 96
    f916:	80 83       	st	Z, r24
    f918:	a7 e0       	ldi	r26, 0x07	; 7
    f91a:	b1 e0       	ldi	r27, 0x01	; 1
    f91c:	8c 91       	ld	r24, X
    f91e:	80 68       	ori	r24, 0x80	; 128
    f920:	8c 93       	st	X, r24
    f922:	8c 91       	ld	r24, X
    f924:	80 65       	ori	r24, 0x50	; 80
    f926:	8c 93       	st	X, r24

//	if ((PINB&_BV(SD_INS))!=0x00) return STA_NOINIT;

#if _WRITE_FUNC
	if (MMC_SEL) disk_writep(0, 0);		// Finalize write process if it is in progress 
    f928:	80 81       	ld	r24, Z
    f92a:	88 23       	and	r24, r24
    f92c:	34 f0       	brlt	.+12     	; 0xf93a <disk_initialize+0x46>
    f92e:	40 e0       	ldi	r20, 0x00	; 0
    f930:	50 e0       	ldi	r21, 0x00	; 0
    f932:	ba 01       	movw	r22, r20
    f934:	80 e0       	ldi	r24, 0x00	; 0
    f936:	90 e0       	ldi	r25, 0x00	; 0
    f938:	6b df       	rcall	.-298    	; 0xf810 <disk_writep>

//--------------------------------------------------------------------------
// Initialize Disk Drive                                                 
//--------------------------------------------------------------------------
DSTATUS disk_initialize (void)
{
    f93a:	14 e6       	ldi	r17, 0x64	; 100
//	if ((PINB&_BV(SD_INS))!=0x00) return STA_NOINIT;

#if _WRITE_FUNC
	if (MMC_SEL) disk_writep(0, 0);		// Finalize write process if it is in progress 
#endif
	for (n = 100; n; n--) rcv_spi();	// Dummy clocks 
    f93c:	02 c0       	rjmp	.+4      	; 0xf942 <disk_initialize+0x4e>
    f93e:	ae de       	rcall	.-676    	; 0xf69c <rcv_spi>
    f940:	11 50       	subi	r17, 0x01	; 1
    f942:	11 11       	cpse	r17, r1
    f944:	fc cf       	rjmp	.-8      	; 0xf93e <disk_initialize+0x4a>

	ty = 0;
	if (send_cmd(CMD0, 0) == 1) {			// Enter Idle state 
    f946:	40 e0       	ldi	r20, 0x00	; 0
    f948:	50 e0       	ldi	r21, 0x00	; 0
    f94a:	ba 01       	movw	r22, r20
    f94c:	80 e4       	ldi	r24, 0x40	; 64
    f94e:	c2 de       	rcall	.-636    	; 0xf6d4 <send_cmd>
    f950:	81 30       	cpi	r24, 0x01	; 1
    f952:	09 f0       	breq	.+2      	; 0xf956 <disk_initialize+0x62>
    f954:	87 c0       	rjmp	.+270    	; 0xfa64 <disk_initialize+0x170>
		if (send_cmd(CMD8, 0x1AA) == 1) {	// SDv2 
    f956:	4a ea       	ldi	r20, 0xAA	; 170
    f958:	51 e0       	ldi	r21, 0x01	; 1
    f95a:	60 e0       	ldi	r22, 0x00	; 0
    f95c:	70 e0       	ldi	r23, 0x00	; 0
    f95e:	88 e4       	ldi	r24, 0x48	; 72
    f960:	b9 de       	rcall	.-654    	; 0xf6d4 <send_cmd>
    f962:	81 30       	cpi	r24, 0x01	; 1
    f964:	09 f0       	breq	.+2      	; 0xf968 <disk_initialize+0x74>
    f966:	4f c0       	rjmp	.+158    	; 0xfa06 <disk_initialize+0x112>

// 	  		setpos(0,3);
// 	  		str_lcd("SDv2");

			for (n = 0; n < 4; n++) ocr[n] = rcv_spi();		// Get trailing return value of R7 resp 
    f968:	0c c0       	rjmp	.+24     	; 0xf982 <disk_initialize+0x8e>
    f96a:	e0 2e       	mov	r14, r16
    f96c:	f1 2c       	mov	r15, r1
    f96e:	96 de       	rcall	.-724    	; 0xf69c <rcv_spi>
    f970:	e1 e0       	ldi	r30, 0x01	; 1
    f972:	f0 e0       	ldi	r31, 0x00	; 0
    f974:	ec 0f       	add	r30, r28
    f976:	fd 1f       	adc	r31, r29
    f978:	ee 0d       	add	r30, r14
    f97a:	ff 1d       	adc	r31, r15
    f97c:	80 83       	st	Z, r24
    f97e:	0f 5f       	subi	r16, 0xFF	; 255
    f980:	01 c0       	rjmp	.+2      	; 0xf984 <disk_initialize+0x90>
    f982:	01 2f       	mov	r16, r17
    f984:	04 30       	cpi	r16, 0x04	; 4
    f986:	88 f3       	brcs	.-30     	; 0xf96a <disk_initialize+0x76>
//  			sprintf(str,"%02X",ocr[1]);
//  			str_lcd(str);
//  			setpos(17,0);
//  			sprintf(str,"%02X",ocr[0]);
//  			str_lcd(str);
			if (ocr[2] == 0x01 && ocr[3] == 0xAA) {				// The card can work at vdd range of 2.7-3.6V 
    f988:	8b 81       	ldd	r24, Y+3	; 0x03
    f98a:	81 30       	cpi	r24, 0x01	; 1
    f98c:	09 f0       	breq	.+2      	; 0xf990 <disk_initialize+0x9c>
    f98e:	6c c0       	rjmp	.+216    	; 0xfa68 <disk_initialize+0x174>
    f990:	8c 81       	ldd	r24, Y+4	; 0x04
    f992:	8a 3a       	cpi	r24, 0xAA	; 170
    f994:	31 f0       	breq	.+12     	; 0xf9a2 <disk_initialize+0xae>
#if _WRITE_FUNC
	if (MMC_SEL) disk_writep(0, 0);		// Finalize write process if it is in progress 
#endif
	for (n = 100; n; n--) rcv_spi();	// Dummy clocks 

	ty = 0;
    f996:	f1 2c       	mov	r15, r1
    f998:	72 c0       	rjmp	.+228    	; 0xfa7e <disk_initialize+0x18a>
//  			sprintf(str,"%02X",ocr[0]);
//  			str_lcd(str);
			if (ocr[2] == 0x01 && ocr[3] == 0xAA) {				// The card can work at vdd range of 2.7-3.6V 
// 	  		setpos(5,3);
// 	  		str_lcd("AA01");
				for (tmr = 12000; tmr && send_cmd(ACMD41, 1UL << 30); tmr--) ;	// Wait for leaving idle state (ACMD41 with HCS bit) 
    f99a:	81 e0       	ldi	r24, 0x01	; 1
    f99c:	e8 1a       	sub	r14, r24
    f99e:	f1 08       	sbc	r15, r1
    f9a0:	06 c0       	rjmp	.+12     	; 0xf9ae <disk_initialize+0xba>
    f9a2:	0f 2e       	mov	r0, r31
    f9a4:	f0 ee       	ldi	r31, 0xE0	; 224
    f9a6:	ef 2e       	mov	r14, r31
    f9a8:	fe e2       	ldi	r31, 0x2E	; 46
    f9aa:	ff 2e       	mov	r15, r31
    f9ac:	f0 2d       	mov	r31, r0
    f9ae:	e1 14       	cp	r14, r1
    f9b0:	f1 04       	cpc	r15, r1
    f9b2:	41 f0       	breq	.+16     	; 0xf9c4 <disk_initialize+0xd0>
    f9b4:	40 e0       	ldi	r20, 0x00	; 0
    f9b6:	50 e0       	ldi	r21, 0x00	; 0
    f9b8:	60 e0       	ldi	r22, 0x00	; 0
    f9ba:	70 e4       	ldi	r23, 0x40	; 64
    f9bc:	89 ee       	ldi	r24, 0xE9	; 233
    f9be:	8a de       	rcall	.-748    	; 0xf6d4 <send_cmd>
    f9c0:	81 11       	cpse	r24, r1
    f9c2:	eb cf       	rjmp	.-42     	; 0xf99a <disk_initialize+0xa6>
				if (tmr && send_cmd(CMD58, 0) == 0) {		// Check CCS bit in the OCR 
    f9c4:	ef 28       	or	r14, r15
    f9c6:	09 f4       	brne	.+2      	; 0xf9ca <disk_initialize+0xd6>
    f9c8:	51 c0       	rjmp	.+162    	; 0xfa6c <disk_initialize+0x178>
    f9ca:	40 e0       	ldi	r20, 0x00	; 0
    f9cc:	50 e0       	ldi	r21, 0x00	; 0
    f9ce:	ba 01       	movw	r22, r20
    f9d0:	8a e7       	ldi	r24, 0x7A	; 122
    f9d2:	80 de       	rcall	.-768    	; 0xf6d4 <send_cmd>
    f9d4:	88 23       	and	r24, r24
#if _WRITE_FUNC
	if (MMC_SEL) disk_writep(0, 0);		// Finalize write process if it is in progress 
#endif
	for (n = 100; n; n--) rcv_spi();	// Dummy clocks 

	ty = 0;
    f9d6:	69 f0       	breq	.+26     	; 0xf9f2 <disk_initialize+0xfe>
    f9d8:	f1 2c       	mov	r15, r1
// 	  		str_lcd("AA01");
				for (tmr = 12000; tmr && send_cmd(ACMD41, 1UL << 30); tmr--) ;	// Wait for leaving idle state (ACMD41 with HCS bit) 
				if (tmr && send_cmd(CMD58, 0) == 0) {		// Check CCS bit in the OCR 
// 			  		setpos(10,3);
// 					str_lcd("CCS");
					for (n = 0; n < 4; n++) ocr[n] = rcv_spi();
    f9da:	51 c0       	rjmp	.+162    	; 0xfa7e <disk_initialize+0x18a>
    f9dc:	e1 2e       	mov	r14, r17
    f9de:	f1 2c       	mov	r15, r1
    f9e0:	5d de       	rcall	.-838    	; 0xf69c <rcv_spi>
    f9e2:	e1 e0       	ldi	r30, 0x01	; 1
    f9e4:	f0 e0       	ldi	r31, 0x00	; 0
    f9e6:	ec 0f       	add	r30, r28
    f9e8:	fd 1f       	adc	r31, r29
    f9ea:	ee 0d       	add	r30, r14
    f9ec:	ff 1d       	adc	r31, r15
    f9ee:	80 83       	st	Z, r24
    f9f0:	1f 5f       	subi	r17, 0xFF	; 255
    f9f2:	14 30       	cpi	r17, 0x04	; 4
    f9f4:	98 f3       	brcs	.-26     	; 0xf9dc <disk_initialize+0xe8>
//  					sprintf(str,"%02X",ocr[1]);
//  					str_lcd(str);
//  					setpos(17,1);
//  					sprintf(str,"%02X",ocr[0]);
//  					str_lcd(str);
					ty = (ocr[0] & 0x40) ? CT_SD2 | CT_BLOCK : CT_SD2;	// SDv2 (HC or SC) 
    f9f6:	89 81       	ldd	r24, Y+1	; 0x01
    f9f8:	86 ff       	sbrs	r24, 6
    f9fa:	3a c0       	rjmp	.+116    	; 0xfa70 <disk_initialize+0x17c>
    f9fc:	0f 2e       	mov	r0, r31
    f9fe:	fc e0       	ldi	r31, 0x0C	; 12
    fa00:	ff 2e       	mov	r15, r31
    fa02:	f0 2d       	mov	r31, r0
				}
			}
		} else {							// SDv1 or MMCv3 
			if (send_cmd(ACMD41, 0) <= 1) 	{
    fa04:	3c c0       	rjmp	.+120    	; 0xfa7e <disk_initialize+0x18a>
    fa06:	40 e0       	ldi	r20, 0x00	; 0
    fa08:	50 e0       	ldi	r21, 0x00	; 0
    fa0a:	ba 01       	movw	r22, r20
    fa0c:	89 ee       	ldi	r24, 0xE9	; 233
    fa0e:	62 de       	rcall	.-828    	; 0xf6d4 <send_cmd>
    fa10:	82 30       	cpi	r24, 0x02	; 2
    fa12:	40 f4       	brcc	.+16     	; 0xfa24 <disk_initialize+0x130>
				ty = CT_SD1; cmd = ACMD41;	// SDv1 
    fa14:	68 94       	set
    fa16:	ff 24       	eor	r15, r15
    fa18:	f1 f8       	bld	r15, 1
    fa1a:	0f 2e       	mov	r0, r31
    fa1c:	f9 ee       	ldi	r31, 0xE9	; 233
    fa1e:	ef 2e       	mov	r14, r31
    fa20:	f0 2d       	mov	r31, r0
    fa22:	06 c0       	rjmp	.+12     	; 0xfa30 <disk_initialize+0x13c>
			} else {
				ty = CT_MMC; cmd = CMD1;	// MMCv3 
    fa24:	ff 24       	eor	r15, r15
    fa26:	f3 94       	inc	r15
    fa28:	0f 2e       	mov	r0, r31
    fa2a:	f1 e4       	ldi	r31, 0x41	; 65
    fa2c:	ef 2e       	mov	r14, r31
    fa2e:	f0 2d       	mov	r31, r0
			}
			for (tmr = 25000; tmr && send_cmd(cmd, 0); tmr--) ;	// Wait for leaving idle state 
    fa30:	08 ea       	ldi	r16, 0xA8	; 168
    fa32:	11 e6       	ldi	r17, 0x61	; 97
    fa34:	02 c0       	rjmp	.+4      	; 0xfa3a <disk_initialize+0x146>
    fa36:	01 50       	subi	r16, 0x01	; 1
    fa38:	11 09       	sbc	r17, r1
    fa3a:	01 15       	cp	r16, r1
    fa3c:	11 05       	cpc	r17, r1
    fa3e:	39 f0       	breq	.+14     	; 0xfa4e <disk_initialize+0x15a>
    fa40:	40 e0       	ldi	r20, 0x00	; 0
    fa42:	50 e0       	ldi	r21, 0x00	; 0
    fa44:	ba 01       	movw	r22, r20
    fa46:	8e 2d       	mov	r24, r14
    fa48:	45 de       	rcall	.-886    	; 0xf6d4 <send_cmd>
    fa4a:	81 11       	cpse	r24, r1
			if (!tmr || send_cmd(CMD16, 512) != 0)			// Set R/W block length to 512 
    fa4c:	f4 cf       	rjmp	.-24     	; 0xfa36 <disk_initialize+0x142>
    fa4e:	01 2b       	or	r16, r17
    fa50:	99 f0       	breq	.+38     	; 0xfa78 <disk_initialize+0x184>
    fa52:	40 e0       	ldi	r20, 0x00	; 0
    fa54:	52 e0       	ldi	r21, 0x02	; 2
    fa56:	60 e0       	ldi	r22, 0x00	; 0
    fa58:	70 e0       	ldi	r23, 0x00	; 0
    fa5a:	80 e5       	ldi	r24, 0x50	; 80
    fa5c:	3b de       	rcall	.-906    	; 0xf6d4 <send_cmd>
    fa5e:	81 11       	cpse	r24, r1
    fa60:	0d c0       	rjmp	.+26     	; 0xfa7c <disk_initialize+0x188>
    fa62:	0d c0       	rjmp	.+26     	; 0xfa7e <disk_initialize+0x18a>
#if _WRITE_FUNC
	if (MMC_SEL) disk_writep(0, 0);		// Finalize write process if it is in progress 
#endif
	for (n = 100; n; n--) rcv_spi();	// Dummy clocks 

	ty = 0;
    fa64:	f1 2c       	mov	r15, r1
    fa66:	0b c0       	rjmp	.+22     	; 0xfa7e <disk_initialize+0x18a>
    fa68:	f1 2c       	mov	r15, r1
    fa6a:	09 c0       	rjmp	.+18     	; 0xfa7e <disk_initialize+0x18a>
    fa6c:	f1 2c       	mov	r15, r1
//  					sprintf(str,"%02X",ocr[1]);
//  					str_lcd(str);
//  					setpos(17,1);
//  					sprintf(str,"%02X",ocr[0]);
//  					str_lcd(str);
					ty = (ocr[0] & 0x40) ? CT_SD2 | CT_BLOCK : CT_SD2;	// SDv2 (HC or SC) 
    fa6e:	07 c0       	rjmp	.+14     	; 0xfa7e <disk_initialize+0x18a>
    fa70:	68 94       	set
    fa72:	ff 24       	eor	r15, r15
    fa74:	f2 f8       	bld	r15, 2
			} else {
				ty = CT_MMC; cmd = CMD1;	// MMCv3 
			}
			for (tmr = 25000; tmr && send_cmd(cmd, 0); tmr--) ;	// Wait for leaving idle state 
			if (!tmr || send_cmd(CMD16, 512) != 0)			// Set R/W block length to 512 
				ty = 0;
    fa76:	03 c0       	rjmp	.+6      	; 0xfa7e <disk_initialize+0x18a>
    fa78:	f1 2c       	mov	r15, r1
    fa7a:	01 c0       	rjmp	.+2      	; 0xfa7e <disk_initialize+0x18a>
		}
	}
	CardType = ty;
    fa7c:	f1 2c       	mov	r15, r1
    fa7e:	f0 92 fd 03 	sts	0x03FD, r15	; 0x8003fd <CardType>
//   	sprintf(str,"%d",CardType);
//   	setpos(0,1);
//   	str_lcd(str);
	release_spi();
    fa82:	6b de       	rcall	.-810    	; 0xf75a <release_spi>

	return ty ? 0 : STA_NOINIT;
    fa84:	81 e0       	ldi	r24, 0x01	; 1
    fa86:	f1 10       	cpse	r15, r1
    fa88:	80 e0       	ldi	r24, 0x00	; 0
}
    fa8a:	0f 90       	pop	r0
    fa8c:	0f 90       	pop	r0
    fa8e:	0f 90       	pop	r0
    fa90:	0f 90       	pop	r0
    fa92:	df 91       	pop	r29
    fa94:	cf 91       	pop	r28
    fa96:	1f 91       	pop	r17
    fa98:	0f 91       	pop	r16
    fa9a:	ff 90       	pop	r15
    fa9c:	ef 90       	pop	r14
    fa9e:	08 95       	ret

0000faa0 <NRF24_Read_Buf>:
//-------------------------------------------------------------
void nRF_command(uint8_t command)
{
	LOW_CSN;
	spi_send_recv(command);
	HIGH_CSN;
    faa0:	ef 92       	push	r14
    faa2:	ff 92       	push	r15
    faa4:	0f 93       	push	r16
    faa6:	1f 93       	push	r17
    faa8:	cf 93       	push	r28
    faaa:	df 93       	push	r29
    faac:	8b 01       	movw	r16, r22
    faae:	c4 2f       	mov	r28, r20
    fab0:	95 b1       	in	r25, 0x05	; 5
    fab2:	9e 7f       	andi	r25, 0xFE	; 254
    fab4:	95 b9       	out	0x05, r25	; 5
    fab6:	3d dc       	rcall	.-1926   	; 0xf332 <spi_send_recv>
    fab8:	0a c0       	rjmp	.+20     	; 0xface <NRF24_Read_Buf+0x2e>
    faba:	78 01       	movw	r14, r16
    fabc:	8f ef       	ldi	r24, 0xFF	; 255
    fabe:	e8 1a       	sub	r14, r24
    fac0:	f8 0a       	sbc	r15, r24
    fac2:	8f ef       	ldi	r24, 0xFF	; 255
    fac4:	36 dc       	rcall	.-1940   	; 0xf332 <spi_send_recv>
    fac6:	f8 01       	movw	r30, r16
    fac8:	80 83       	st	Z, r24
    faca:	cd 2f       	mov	r28, r29
    facc:	87 01       	movw	r16, r14
    face:	df ef       	ldi	r29, 0xFF	; 255
    fad0:	dc 0f       	add	r29, r28
    fad2:	c1 11       	cpse	r28, r1
    fad4:	f2 cf       	rjmp	.-28     	; 0xfaba <NRF24_Read_Buf+0x1a>
    fad6:	85 b1       	in	r24, 0x05	; 5
    fad8:	81 60       	ori	r24, 0x01	; 1
    fada:	85 b9       	out	0x05, r24	; 5
    fadc:	df 91       	pop	r29
    fade:	cf 91       	pop	r28
    fae0:	1f 91       	pop	r17
    fae2:	0f 91       	pop	r16
    fae4:	ff 90       	pop	r15
    fae6:	ef 90       	pop	r14
    fae8:	08 95       	ret

0000faea <nRF_write_register>:
}
//-------------------------------------------------------------
void nRF_write_register(uint8_t reg, uint8_t data_out)
{
    faea:	cf 93       	push	r28
    faec:	c6 2f       	mov	r28, r22
	reg |= W_REGISTER;
	LOW_CSN;
    faee:	95 b1       	in	r25, 0x05	; 5
    faf0:	9e 7f       	andi	r25, 0xFE	; 254
    faf2:	95 b9       	out	0x05, r25	; 5
	spi_send_recv(reg);
    faf4:	80 62       	ori	r24, 0x20	; 32
    faf6:	1d dc       	rcall	.-1990   	; 0xf332 <spi_send_recv>
	spi_send_recv(data_out);
    faf8:	8c 2f       	mov	r24, r28
    fafa:	1b dc       	rcall	.-1994   	; 0xf332 <spi_send_recv>
	HIGH_CSN;
    fafc:	85 b1       	in	r24, 0x05	; 5
    fafe:	81 60       	ori	r24, 0x01	; 1
    fb00:	85 b9       	out	0x05, r24	; 5
}
    fb02:	cf 91       	pop	r28
    fb04:	08 95       	ret

0000fb06 <nRF_read_register>:
//-------------------------------------------------------------
uint8_t nRF_read_register(uint8_t reg)
{
    fb06:	cf 93       	push	r28
    fb08:	c8 2f       	mov	r28, r24
	uint8_t data_in;
	LOW_CSN;
    fb0a:	85 b1       	in	r24, 0x05	; 5
    fb0c:	8e 7f       	andi	r24, 0xFE	; 254
    fb0e:	85 b9       	out	0x05, r24	; 5
	data_in = spi_send_recv(reg);
    fb10:	8c 2f       	mov	r24, r28
    fb12:	0f dc       	rcall	.-2018   	; 0xf332 <spi_send_recv>
	if(reg != STATUS)
    fb14:	c7 30       	cpi	r28, 0x07	; 7
    fb16:	11 f0       	breq	.+4      	; 0xfb1c <nRF_read_register+0x16>
	{
		data_in = spi_send_recv(NOP);
    fb18:	8f ef       	ldi	r24, 0xFF	; 255
    fb1a:	0b dc       	rcall	.-2026   	; 0xf332 <spi_send_recv>
	}
	HIGH_CSN;
    fb1c:	95 b1       	in	r25, 0x05	; 5
    fb1e:	91 60       	ori	r25, 0x01	; 1
    fb20:	95 b9       	out	0x05, r25	; 5
	return data_in;
}
    fb22:	cf 91       	pop	r28
    fb24:	08 95       	ret

0000fb26 <__vector_1>:
		rx_flag = 0;
	}
}
//-------------------------------------------------------------
ISR(INT0_vect)
{
    fb26:	1f 92       	push	r1
    fb28:	0f 92       	push	r0
    fb2a:	0f b6       	in	r0, 0x3f	; 63
    fb2c:	0f 92       	push	r0
    fb2e:	11 24       	eor	r1, r1
    fb30:	0b b6       	in	r0, 0x3b	; 59
    fb32:	0f 92       	push	r0
    fb34:	2f 93       	push	r18
    fb36:	3f 93       	push	r19
    fb38:	4f 93       	push	r20
    fb3a:	5f 93       	push	r21
    fb3c:	6f 93       	push	r22
    fb3e:	7f 93       	push	r23
    fb40:	8f 93       	push	r24
    fb42:	9f 93       	push	r25
    fb44:	af 93       	push	r26
    fb46:	bf 93       	push	r27
    fb48:	ef 93       	push	r30
    fb4a:	ff 93       	push	r31
	uint8_t status=0x01;
	status = nRF_read_register(STATUS);
    fb4c:	87 e0       	ldi	r24, 0x07	; 7
    fb4e:	db df       	rcall	.-74     	; 0xfb06 <nRF_read_register>
	if(status & 0x40)
    fb50:	86 ff       	sbrs	r24, 6
    fb52:	08 c0       	rjmp	.+16     	; 0xfb64 <__vector_1+0x3e>
	{
		NRF24_Read_Buf(R_RX_PAYLOAD,RX_BUF,TX_PLOAD_WIDTH);
    fb54:	45 e0       	ldi	r20, 0x05	; 5
    fb56:	6f ef       	ldi	r22, 0xFF	; 255
    fb58:	73 e0       	ldi	r23, 0x03	; 3
    fb5a:	81 e6       	ldi	r24, 0x61	; 97
    fb5c:	a1 df       	rcall	.-190    	; 0xfaa0 <NRF24_Read_Buf>
		nRF_write_register(STATUS, 0x40);
    fb5e:	60 e4       	ldi	r22, 0x40	; 64
    fb60:	87 e0       	ldi	r24, 0x07	; 7
    fb62:	c3 df       	rcall	.-122    	; 0xfaea <nRF_write_register>
	}
	 if(receive_counter == 6)
    fb64:	80 91 6c 04 	lds	r24, 0x046C	; 0x80046c <receive_counter>
    fb68:	86 30       	cpi	r24, 0x06	; 6
    fb6a:	11 f4       	brne	.+4      	; 0xfb70 <__vector_1+0x4a>
	 {
		 receive_counter = 0;
    fb6c:	10 92 6c 04 	sts	0x046C, r1	; 0x80046c <receive_counter>
	 }
	 rx_flag = 1;
    fb70:	81 e0       	ldi	r24, 0x01	; 1
    fb72:	80 93 fe 03 	sts	0x03FE, r24	; 0x8003fe <rx_flag>
}
    fb76:	ff 91       	pop	r31
    fb78:	ef 91       	pop	r30
    fb7a:	bf 91       	pop	r27
    fb7c:	af 91       	pop	r26
    fb7e:	9f 91       	pop	r25
    fb80:	8f 91       	pop	r24
    fb82:	7f 91       	pop	r23
    fb84:	6f 91       	pop	r22
    fb86:	5f 91       	pop	r21
    fb88:	4f 91       	pop	r20
    fb8a:	3f 91       	pop	r19
    fb8c:	2f 91       	pop	r18
    fb8e:	0f 90       	pop	r0
    fb90:	0b be       	out	0x3b, r0	; 59
    fb92:	0f 90       	pop	r0
    fb94:	0f be       	out	0x3f, r0	; 63
    fb96:	0f 90       	pop	r0
    fb98:	1f 90       	pop	r1
    fb9a:	18 95       	reti

0000fb9c <mem_set>:
	}

	if (res != FR_OK) dj->sect = 0;

	return res;
}
    fb9c:	fc 01       	movw	r30, r24
    fb9e:	03 c0       	rjmp	.+6      	; 0xfba6 <mem_set+0xa>
    fba0:	60 83       	st	Z, r22
    fba2:	ac 01       	movw	r20, r24
    fba4:	31 96       	adiw	r30, 0x01	; 1
    fba6:	ca 01       	movw	r24, r20
    fba8:	01 97       	sbiw	r24, 0x01	; 1
    fbaa:	45 2b       	or	r20, r21
    fbac:	c9 f7       	brne	.-14     	; 0xfba0 <mem_set+0x4>
    fbae:	08 95       	ret

0000fbb0 <mem_cmp>:
    fbb0:	cf 93       	push	r28
    fbb2:	df 93       	push	r29
    fbb4:	dc 01       	movw	r26, r24
    fbb6:	fb 01       	movw	r30, r22
    fbb8:	80 e0       	ldi	r24, 0x00	; 0
    fbba:	90 e0       	ldi	r25, 0x00	; 0
    fbbc:	02 c0       	rjmp	.+4      	; 0xfbc2 <mem_cmp+0x12>
    fbbe:	fb 01       	movw	r30, r22
    fbc0:	de 01       	movw	r26, r28
    fbc2:	9a 01       	movw	r18, r20
    fbc4:	21 50       	subi	r18, 0x01	; 1
    fbc6:	31 09       	sbc	r19, r1
    fbc8:	45 2b       	or	r20, r21
    fbca:	61 f0       	breq	.+24     	; 0xfbe4 <mem_cmp+0x34>
    fbcc:	ed 01       	movw	r28, r26
    fbce:	21 96       	adiw	r28, 0x01	; 1
    fbd0:	8c 91       	ld	r24, X
    fbd2:	90 e0       	ldi	r25, 0x00	; 0
    fbd4:	bf 01       	movw	r22, r30
    fbd6:	6f 5f       	subi	r22, 0xFF	; 255
    fbd8:	7f 4f       	sbci	r23, 0xFF	; 255
    fbda:	40 81       	ld	r20, Z
    fbdc:	84 1b       	sub	r24, r20
    fbde:	91 09       	sbc	r25, r1
    fbe0:	a9 01       	movw	r20, r18
    fbe2:	69 f3       	breq	.-38     	; 0xfbbe <mem_cmp+0xe>
    fbe4:	df 91       	pop	r29
    fbe6:	cf 91       	pop	r28
    fbe8:	08 95       	ret

0000fbea <clust2sect>:
    fbea:	0f 93       	push	r16
    fbec:	1f 93       	push	r17
    fbee:	e0 91 04 04 	lds	r30, 0x0404	; 0x800404 <FatFs>
    fbf2:	f0 91 05 04 	lds	r31, 0x0405	; 0x800405 <FatFs+0x1>
    fbf6:	9b 01       	movw	r18, r22
    fbf8:	ac 01       	movw	r20, r24
    fbfa:	22 50       	subi	r18, 0x02	; 2
    fbfc:	31 09       	sbc	r19, r1
    fbfe:	41 09       	sbc	r20, r1
    fc00:	51 09       	sbc	r21, r1
    fc02:	80 85       	ldd	r24, Z+8	; 0x08
    fc04:	91 85       	ldd	r25, Z+9	; 0x09
    fc06:	a2 85       	ldd	r26, Z+10	; 0x0a
    fc08:	b3 85       	ldd	r27, Z+11	; 0x0b
    fc0a:	02 97       	sbiw	r24, 0x02	; 2
    fc0c:	a1 09       	sbc	r26, r1
    fc0e:	b1 09       	sbc	r27, r1
    fc10:	28 17       	cp	r18, r24
    fc12:	39 07       	cpc	r19, r25
    fc14:	4a 07       	cpc	r20, r26
    fc16:	5b 07       	cpc	r21, r27
    fc18:	68 f4       	brcc	.+26     	; 0xfc34 <clust2sect+0x4a>
    fc1a:	a1 81       	ldd	r26, Z+1	; 0x01
    fc1c:	b0 e0       	ldi	r27, 0x00	; 0
    fc1e:	0e 94 aa 9d 	call	0x13b54	; 0x13b54 <__muluhisi3>
    fc22:	04 89       	ldd	r16, Z+20	; 0x14
    fc24:	15 89       	ldd	r17, Z+21	; 0x15
    fc26:	26 89       	ldd	r18, Z+22	; 0x16
    fc28:	37 89       	ldd	r19, Z+23	; 0x17
    fc2a:	60 0f       	add	r22, r16
    fc2c:	71 1f       	adc	r23, r17
    fc2e:	82 1f       	adc	r24, r18
    fc30:	93 1f       	adc	r25, r19
    fc32:	03 c0       	rjmp	.+6      	; 0xfc3a <clust2sect+0x50>
    fc34:	60 e0       	ldi	r22, 0x00	; 0
    fc36:	70 e0       	ldi	r23, 0x00	; 0
    fc38:	cb 01       	movw	r24, r22
    fc3a:	1f 91       	pop	r17
    fc3c:	0f 91       	pop	r16
    fc3e:	08 95       	ret

0000fc40 <dir_rewind>:
    fc40:	0f 93       	push	r16
    fc42:	1f 93       	push	r17
    fc44:	cf 93       	push	r28
    fc46:	df 93       	push	r29
    fc48:	fc 01       	movw	r30, r24
    fc4a:	a0 91 04 04 	lds	r26, 0x0404	; 0x800404 <FatFs>
    fc4e:	b0 91 05 04 	lds	r27, 0x0405	; 0x800405 <FatFs+0x1>
    fc52:	11 82       	std	Z+1, r1	; 0x01
    fc54:	10 82       	st	Z, r1
    fc56:	64 81       	ldd	r22, Z+4	; 0x04
    fc58:	75 81       	ldd	r23, Z+5	; 0x05
    fc5a:	86 81       	ldd	r24, Z+6	; 0x06
    fc5c:	97 81       	ldd	r25, Z+7	; 0x07
    fc5e:	61 30       	cpi	r22, 0x01	; 1
    fc60:	71 05       	cpc	r23, r1
    fc62:	81 05       	cpc	r24, r1
    fc64:	91 05       	cpc	r25, r1
    fc66:	89 f1       	breq	.+98     	; 0xfcca <dir_rewind+0x8a>
    fc68:	18 96       	adiw	r26, 0x08	; 8
    fc6a:	0d 91       	ld	r16, X+
    fc6c:	1d 91       	ld	r17, X+
    fc6e:	2d 91       	ld	r18, X+
    fc70:	3c 91       	ld	r19, X
    fc72:	1b 97       	sbiw	r26, 0x0b	; 11
    fc74:	60 17       	cp	r22, r16
    fc76:	71 07       	cpc	r23, r17
    fc78:	82 07       	cpc	r24, r18
    fc7a:	93 07       	cpc	r25, r19
    fc7c:	40 f5       	brcc	.+80     	; 0xfcce <dir_rewind+0x8e>
    fc7e:	61 15       	cp	r22, r1
    fc80:	71 05       	cpc	r23, r1
    fc82:	81 05       	cpc	r24, r1
    fc84:	91 05       	cpc	r25, r1
    fc86:	49 f4       	brne	.+18     	; 0xfc9a <dir_rewind+0x5a>
    fc88:	2c 91       	ld	r18, X
    fc8a:	23 30       	cpi	r18, 0x03	; 3
    fc8c:	31 f4       	brne	.+12     	; 0xfc9a <dir_rewind+0x5a>
    fc8e:	50 96       	adiw	r26, 0x10	; 16
    fc90:	6d 91       	ld	r22, X+
    fc92:	7d 91       	ld	r23, X+
    fc94:	8d 91       	ld	r24, X+
    fc96:	9c 91       	ld	r25, X
    fc98:	53 97       	sbiw	r26, 0x13	; 19
    fc9a:	ef 01       	movw	r28, r30
    fc9c:	60 87       	std	Z+8, r22	; 0x08
    fc9e:	71 87       	std	Z+9, r23	; 0x09
    fca0:	82 87       	std	Z+10, r24	; 0x0a
    fca2:	93 87       	std	Z+11, r25	; 0x0b
    fca4:	61 15       	cp	r22, r1
    fca6:	71 05       	cpc	r23, r1
    fca8:	81 05       	cpc	r24, r1
    fcaa:	91 05       	cpc	r25, r1
    fcac:	11 f0       	breq	.+4      	; 0xfcb2 <dir_rewind+0x72>
    fcae:	9d df       	rcall	.-198    	; 0xfbea <clust2sect>
    fcb0:	06 c0       	rjmp	.+12     	; 0xfcbe <dir_rewind+0x7e>
    fcb2:	50 96       	adiw	r26, 0x10	; 16
    fcb4:	6d 91       	ld	r22, X+
    fcb6:	7d 91       	ld	r23, X+
    fcb8:	8d 91       	ld	r24, X+
    fcba:	9c 91       	ld	r25, X
    fcbc:	53 97       	sbiw	r26, 0x13	; 19
    fcbe:	6c 87       	std	Y+12, r22	; 0x0c
    fcc0:	7d 87       	std	Y+13, r23	; 0x0d
    fcc2:	8e 87       	std	Y+14, r24	; 0x0e
    fcc4:	9f 87       	std	Y+15, r25	; 0x0f
    fcc6:	80 e0       	ldi	r24, 0x00	; 0
    fcc8:	03 c0       	rjmp	.+6      	; 0xfcd0 <dir_rewind+0x90>
    fcca:	81 e0       	ldi	r24, 0x01	; 1
    fccc:	01 c0       	rjmp	.+2      	; 0xfcd0 <dir_rewind+0x90>
    fcce:	81 e0       	ldi	r24, 0x01	; 1
    fcd0:	df 91       	pop	r29
    fcd2:	cf 91       	pop	r28
    fcd4:	1f 91       	pop	r17
    fcd6:	0f 91       	pop	r16
    fcd8:	08 95       	ret

0000fcda <create_name>:
    fcda:	0f 93       	push	r16
    fcdc:	1f 93       	push	r17
    fcde:	cf 93       	push	r28
    fce0:	df 93       	push	r29
    fce2:	eb 01       	movw	r28, r22
    fce4:	fc 01       	movw	r30, r24
    fce6:	02 81       	ldd	r16, Z+2	; 0x02
    fce8:	13 81       	ldd	r17, Z+3	; 0x03
    fcea:	4b e0       	ldi	r20, 0x0B	; 11
    fcec:	50 e0       	ldi	r21, 0x00	; 0
    fcee:	60 e2       	ldi	r22, 0x20	; 32
    fcf0:	70 e0       	ldi	r23, 0x00	; 0
    fcf2:	c8 01       	movw	r24, r16
    fcf4:	53 df       	rcall	.-346    	; 0xfb9c <mem_set>
    fcf6:	28 81       	ld	r18, Y
    fcf8:	39 81       	ldd	r19, Y+1	; 0x01
    fcfa:	90 e0       	ldi	r25, 0x00	; 0
    fcfc:	80 e0       	ldi	r24, 0x00	; 0
    fcfe:	58 e0       	ldi	r21, 0x08	; 8
    fd00:	01 c0       	rjmp	.+2      	; 0xfd04 <create_name+0x2a>
    fd02:	84 2f       	mov	r24, r20
    fd04:	41 e0       	ldi	r20, 0x01	; 1
    fd06:	48 0f       	add	r20, r24
    fd08:	f9 01       	movw	r30, r18
    fd0a:	e8 0f       	add	r30, r24
    fd0c:	f1 1d       	adc	r31, r1
    fd0e:	80 81       	ld	r24, Z
    fd10:	81 32       	cpi	r24, 0x21	; 33
    fd12:	c0 f0       	brcs	.+48     	; 0xfd44 <create_name+0x6a>
    fd14:	8f 32       	cpi	r24, 0x2F	; 47
    fd16:	b1 f0       	breq	.+44     	; 0xfd44 <create_name+0x6a>
    fd18:	8e 32       	cpi	r24, 0x2E	; 46
    fd1a:	11 f0       	breq	.+4      	; 0xfd20 <create_name+0x46>
    fd1c:	95 17       	cp	r25, r21
    fd1e:	38 f0       	brcs	.+14     	; 0xfd2e <create_name+0x54>
    fd20:	58 30       	cpi	r21, 0x08	; 8
    fd22:	81 f4       	brne	.+32     	; 0xfd44 <create_name+0x6a>
    fd24:	8e 32       	cpi	r24, 0x2E	; 46
    fd26:	71 f4       	brne	.+28     	; 0xfd44 <create_name+0x6a>
    fd28:	98 e0       	ldi	r25, 0x08	; 8
    fd2a:	5b e0       	ldi	r21, 0x0B	; 11
    fd2c:	ea cf       	rjmp	.-44     	; 0xfd02 <create_name+0x28>
    fd2e:	6f e9       	ldi	r22, 0x9F	; 159
    fd30:	68 0f       	add	r22, r24
    fd32:	6a 31       	cpi	r22, 0x1A	; 26
    fd34:	08 f4       	brcc	.+2      	; 0xfd38 <create_name+0x5e>
    fd36:	80 52       	subi	r24, 0x20	; 32
    fd38:	f8 01       	movw	r30, r16
    fd3a:	e9 0f       	add	r30, r25
    fd3c:	f1 1d       	adc	r31, r1
    fd3e:	80 83       	st	Z, r24
    fd40:	9f 5f       	subi	r25, 0xFF	; 255
    fd42:	df cf       	rjmp	.-66     	; 0xfd02 <create_name+0x28>
    fd44:	24 0f       	add	r18, r20
    fd46:	31 1d       	adc	r19, r1
    fd48:	39 83       	std	Y+1, r19	; 0x01
    fd4a:	28 83       	st	Y, r18
    fd4c:	91 e0       	ldi	r25, 0x01	; 1
    fd4e:	81 32       	cpi	r24, 0x21	; 33
    fd50:	08 f0       	brcs	.+2      	; 0xfd54 <create_name+0x7a>
    fd52:	90 e0       	ldi	r25, 0x00	; 0
    fd54:	f8 01       	movw	r30, r16
    fd56:	93 87       	std	Z+11, r25	; 0x0b
    fd58:	80 e0       	ldi	r24, 0x00	; 0
    fd5a:	df 91       	pop	r29
    fd5c:	cf 91       	pop	r28
    fd5e:	1f 91       	pop	r17
    fd60:	0f 91       	pop	r16
    fd62:	08 95       	ret

0000fd64 <check_fs>:
    fd64:	cf 92       	push	r12
    fd66:	df 92       	push	r13
    fd68:	ef 92       	push	r14
    fd6a:	ff 92       	push	r15
    fd6c:	0f 93       	push	r16
    fd6e:	1f 93       	push	r17
    fd70:	cf 93       	push	r28
    fd72:	df 93       	push	r29
    fd74:	ec 01       	movw	r28, r24
    fd76:	6a 01       	movw	r12, r20
    fd78:	7b 01       	movw	r14, r22
    fd7a:	02 e0       	ldi	r16, 0x02	; 2
    fd7c:	10 e0       	ldi	r17, 0x00	; 0
    fd7e:	2e ef       	ldi	r18, 0xFE	; 254
    fd80:	31 e0       	ldi	r19, 0x01	; 1
    fd82:	ed dc       	rcall	.-1574   	; 0xf75e <disk_readp>
    fd84:	81 11       	cpse	r24, r1
    fd86:	23 c0       	rjmp	.+70     	; 0xfdce <check_fs+0x6a>
    fd88:	88 81       	ld	r24, Y
    fd8a:	99 81       	ldd	r25, Y+1	; 0x01
    fd8c:	85 35       	cpi	r24, 0x55	; 85
    fd8e:	9a 4a       	sbci	r25, 0xAA	; 170
    fd90:	01 f5       	brne	.+64     	; 0xfdd2 <check_fs+0x6e>
    fd92:	26 e3       	ldi	r18, 0x36	; 54
    fd94:	30 e0       	ldi	r19, 0x00	; 0
    fd96:	b7 01       	movw	r22, r14
    fd98:	a6 01       	movw	r20, r12
    fd9a:	ce 01       	movw	r24, r28
    fd9c:	e0 dc       	rcall	.-1600   	; 0xf75e <disk_readp>
    fd9e:	81 11       	cpse	r24, r1
    fda0:	05 c0       	rjmp	.+10     	; 0xfdac <check_fs+0x48>
    fda2:	88 81       	ld	r24, Y
    fda4:	99 81       	ldd	r25, Y+1	; 0x01
    fda6:	86 34       	cpi	r24, 0x46	; 70
    fda8:	91 44       	sbci	r25, 0x41	; 65
    fdaa:	a9 f0       	breq	.+42     	; 0xfdd6 <check_fs+0x72>
    fdac:	02 e0       	ldi	r16, 0x02	; 2
    fdae:	10 e0       	ldi	r17, 0x00	; 0
    fdb0:	22 e5       	ldi	r18, 0x52	; 82
    fdb2:	30 e0       	ldi	r19, 0x00	; 0
    fdb4:	b7 01       	movw	r22, r14
    fdb6:	a6 01       	movw	r20, r12
    fdb8:	ce 01       	movw	r24, r28
    fdba:	d1 dc       	rcall	.-1630   	; 0xf75e <disk_readp>
    fdbc:	81 11       	cpse	r24, r1
    fdbe:	0d c0       	rjmp	.+26     	; 0xfdda <check_fs+0x76>
    fdc0:	88 81       	ld	r24, Y
    fdc2:	99 81       	ldd	r25, Y+1	; 0x01
    fdc4:	86 34       	cpi	r24, 0x46	; 70
    fdc6:	91 44       	sbci	r25, 0x41	; 65
    fdc8:	51 f0       	breq	.+20     	; 0xfdde <check_fs+0x7a>
    fdca:	81 e0       	ldi	r24, 0x01	; 1
    fdcc:	09 c0       	rjmp	.+18     	; 0xfde0 <check_fs+0x7c>
    fdce:	83 e0       	ldi	r24, 0x03	; 3
    fdd0:	07 c0       	rjmp	.+14     	; 0xfde0 <check_fs+0x7c>
    fdd2:	82 e0       	ldi	r24, 0x02	; 2
    fdd4:	05 c0       	rjmp	.+10     	; 0xfde0 <check_fs+0x7c>
    fdd6:	80 e0       	ldi	r24, 0x00	; 0
    fdd8:	03 c0       	rjmp	.+6      	; 0xfde0 <check_fs+0x7c>
    fdda:	81 e0       	ldi	r24, 0x01	; 1
    fddc:	01 c0       	rjmp	.+2      	; 0xfde0 <check_fs+0x7c>
    fdde:	80 e0       	ldi	r24, 0x00	; 0
    fde0:	df 91       	pop	r29
    fde2:	cf 91       	pop	r28
    fde4:	1f 91       	pop	r17
    fde6:	0f 91       	pop	r16
    fde8:	ff 90       	pop	r15
    fdea:	ef 90       	pop	r14
    fdec:	df 90       	pop	r13
    fdee:	cf 90       	pop	r12
    fdf0:	08 95       	ret

0000fdf2 <get_fat>:
    fdf2:	4f 92       	push	r4
    fdf4:	5f 92       	push	r5
    fdf6:	6f 92       	push	r6
    fdf8:	7f 92       	push	r7
    fdfa:	8f 92       	push	r8
    fdfc:	9f 92       	push	r9
    fdfe:	af 92       	push	r10
    fe00:	bf 92       	push	r11
    fe02:	cf 92       	push	r12
    fe04:	df 92       	push	r13
    fe06:	ef 92       	push	r14
    fe08:	ff 92       	push	r15
    fe0a:	0f 93       	push	r16
    fe0c:	1f 93       	push	r17
    fe0e:	cf 93       	push	r28
    fe10:	df 93       	push	r29
    fe12:	00 d0       	rcall	.+0      	; 0xfe14 <get_fat+0x22>
    fe14:	1f 92       	push	r1
    fe16:	cd b7       	in	r28, 0x3d	; 61
    fe18:	de b7       	in	r29, 0x3e	; 62
    fe1a:	e0 90 04 04 	lds	r14, 0x0404	; 0x800404 <FatFs>
    fe1e:	f0 90 05 04 	lds	r15, 0x0405	; 0x800405 <FatFs+0x1>
    fe22:	62 30       	cpi	r22, 0x02	; 2
    fe24:	71 05       	cpc	r23, r1
    fe26:	81 05       	cpc	r24, r1
    fe28:	91 05       	cpc	r25, r1
    fe2a:	08 f4       	brcc	.+2      	; 0xfe2e <get_fat+0x3c>
    fe2c:	ba c0       	rjmp	.+372    	; 0xffa2 <get_fat+0x1b0>
    fe2e:	f7 01       	movw	r30, r14
    fe30:	80 84       	ldd	r8, Z+8	; 0x08
    fe32:	91 84       	ldd	r9, Z+9	; 0x09
    fe34:	a2 84       	ldd	r10, Z+10	; 0x0a
    fe36:	b3 84       	ldd	r11, Z+11	; 0x0b
    fe38:	68 15       	cp	r22, r8
    fe3a:	79 05       	cpc	r23, r9
    fe3c:	8a 05       	cpc	r24, r10
    fe3e:	9b 05       	cpc	r25, r11
    fe40:	08 f0       	brcs	.+2      	; 0xfe44 <get_fat+0x52>
    fe42:	b4 c0       	rjmp	.+360    	; 0xffac <get_fat+0x1ba>
    fe44:	4b 01       	movw	r8, r22
    fe46:	5c 01       	movw	r10, r24
    fe48:	80 81       	ld	r24, Z
    fe4a:	82 30       	cpi	r24, 0x02	; 2
    fe4c:	09 f4       	brne	.+2      	; 0xfe50 <get_fat+0x5e>
    fe4e:	5f c0       	rjmp	.+190    	; 0xff0e <get_fat+0x11c>
    fe50:	83 30       	cpi	r24, 0x03	; 3
    fe52:	09 f4       	brne	.+2      	; 0xfe56 <get_fat+0x64>
    fe54:	7b c0       	rjmp	.+246    	; 0xff4c <get_fat+0x15a>
    fe56:	81 30       	cpi	r24, 0x01	; 1
    fe58:	09 f0       	breq	.+2      	; 0xfe5c <get_fat+0x6a>
    fe5a:	ad c0       	rjmp	.+346    	; 0xffb6 <get_fat+0x1c4>
    fe5c:	c4 01       	movw	r24, r8
    fe5e:	96 95       	lsr	r25
    fe60:	87 95       	ror	r24
    fe62:	88 0d       	add	r24, r8
    fe64:	99 1d       	adc	r25, r9
    fe66:	9c 01       	movw	r18, r24
    fe68:	31 70       	andi	r19, 0x01	; 1
    fe6a:	89 2f       	mov	r24, r25
    fe6c:	99 27       	eor	r25, r25
    fe6e:	86 95       	lsr	r24
    fe70:	2f 3f       	cpi	r18, 0xFF	; 255
    fe72:	f1 e0       	ldi	r31, 0x01	; 1
    fe74:	3f 07       	cpc	r19, r31
    fe76:	89 f0       	breq	.+34     	; 0xfe9a <get_fat+0xa8>
    fe78:	f7 01       	movw	r30, r14
    fe7a:	44 85       	ldd	r20, Z+12	; 0x0c
    fe7c:	55 85       	ldd	r21, Z+13	; 0x0d
    fe7e:	66 85       	ldd	r22, Z+14	; 0x0e
    fe80:	77 85       	ldd	r23, Z+15	; 0x0f
    fe82:	48 0f       	add	r20, r24
    fe84:	59 1f       	adc	r21, r25
    fe86:	61 1d       	adc	r22, r1
    fe88:	71 1d       	adc	r23, r1
    fe8a:	02 e0       	ldi	r16, 0x02	; 2
    fe8c:	10 e0       	ldi	r17, 0x00	; 0
    fe8e:	ce 01       	movw	r24, r28
    fe90:	01 96       	adiw	r24, 0x01	; 1
    fe92:	65 dc       	rcall	.-1846   	; 0xf75e <disk_readp>
    fe94:	88 23       	and	r24, r24
    fe96:	51 f1       	breq	.+84     	; 0xfeec <get_fat+0xfa>
    fe98:	93 c0       	rjmp	.+294    	; 0xffc0 <get_fat+0x1ce>
    fe9a:	f7 01       	movw	r30, r14
    fe9c:	44 85       	ldd	r20, Z+12	; 0x0c
    fe9e:	55 85       	ldd	r21, Z+13	; 0x0d
    fea0:	66 85       	ldd	r22, Z+14	; 0x0e
    fea2:	77 85       	ldd	r23, Z+15	; 0x0f
    fea4:	2c 01       	movw	r4, r24
    fea6:	61 2c       	mov	r6, r1
    fea8:	71 2c       	mov	r7, r1
    feaa:	44 0d       	add	r20, r4
    feac:	55 1d       	adc	r21, r5
    feae:	66 1d       	adc	r22, r6
    feb0:	77 1d       	adc	r23, r7
    feb2:	01 e0       	ldi	r16, 0x01	; 1
    feb4:	10 e0       	ldi	r17, 0x00	; 0
    feb6:	2f ef       	ldi	r18, 0xFF	; 255
    feb8:	31 e0       	ldi	r19, 0x01	; 1
    feba:	ce 01       	movw	r24, r28
    febc:	01 96       	adiw	r24, 0x01	; 1
    febe:	4f dc       	rcall	.-1890   	; 0xf75e <disk_readp>
    fec0:	81 11       	cpse	r24, r1
    fec2:	83 c0       	rjmp	.+262    	; 0xffca <get_fat+0x1d8>
    fec4:	f7 01       	movw	r30, r14
    fec6:	44 85       	ldd	r20, Z+12	; 0x0c
    fec8:	55 85       	ldd	r21, Z+13	; 0x0d
    feca:	66 85       	ldd	r22, Z+14	; 0x0e
    fecc:	77 85       	ldd	r23, Z+15	; 0x0f
    fece:	44 0d       	add	r20, r4
    fed0:	55 1d       	adc	r21, r5
    fed2:	66 1d       	adc	r22, r6
    fed4:	77 1d       	adc	r23, r7
    fed6:	4f 5f       	subi	r20, 0xFF	; 255
    fed8:	5f 4f       	sbci	r21, 0xFF	; 255
    feda:	6f 4f       	sbci	r22, 0xFF	; 255
    fedc:	7f 4f       	sbci	r23, 0xFF	; 255
    fede:	20 e0       	ldi	r18, 0x00	; 0
    fee0:	30 e0       	ldi	r19, 0x00	; 0
    fee2:	ce 01       	movw	r24, r28
    fee4:	02 96       	adiw	r24, 0x02	; 2
    fee6:	3b dc       	rcall	.-1930   	; 0xf75e <disk_readp>
    fee8:	81 11       	cpse	r24, r1
    feea:	74 c0       	rjmp	.+232    	; 0xffd4 <get_fat+0x1e2>
    feec:	69 81       	ldd	r22, Y+1	; 0x01
    feee:	7a 81       	ldd	r23, Y+2	; 0x02
    fef0:	80 fe       	sbrs	r8, 0
    fef2:	09 c0       	rjmp	.+18     	; 0xff06 <get_fat+0x114>
    fef4:	72 95       	swap	r23
    fef6:	62 95       	swap	r22
    fef8:	6f 70       	andi	r22, 0x0F	; 15
    fefa:	67 27       	eor	r22, r23
    fefc:	7f 70       	andi	r23, 0x0F	; 15
    fefe:	67 27       	eor	r22, r23
    ff00:	80 e0       	ldi	r24, 0x00	; 0
    ff02:	90 e0       	ldi	r25, 0x00	; 0
    ff04:	75 c0       	rjmp	.+234    	; 0xfff0 <get_fat+0x1fe>
    ff06:	7f 70       	andi	r23, 0x0F	; 15
    ff08:	80 e0       	ldi	r24, 0x00	; 0
    ff0a:	90 e0       	ldi	r25, 0x00	; 0
    ff0c:	71 c0       	rjmp	.+226    	; 0xfff0 <get_fat+0x1fe>
    ff0e:	94 01       	movw	r18, r8
    ff10:	33 27       	eor	r19, r19
    ff12:	22 0f       	add	r18, r18
    ff14:	33 1f       	adc	r19, r19
    ff16:	f7 01       	movw	r30, r14
    ff18:	c4 84       	ldd	r12, Z+12	; 0x0c
    ff1a:	d5 84       	ldd	r13, Z+13	; 0x0d
    ff1c:	e6 84       	ldd	r14, Z+14	; 0x0e
    ff1e:	f7 84       	ldd	r15, Z+15	; 0x0f
    ff20:	bb 27       	eor	r27, r27
    ff22:	ab 2d       	mov	r26, r11
    ff24:	9a 2d       	mov	r25, r10
    ff26:	89 2d       	mov	r24, r9
    ff28:	b7 01       	movw	r22, r14
    ff2a:	a6 01       	movw	r20, r12
    ff2c:	48 0f       	add	r20, r24
    ff2e:	59 1f       	adc	r21, r25
    ff30:	6a 1f       	adc	r22, r26
    ff32:	7b 1f       	adc	r23, r27
    ff34:	02 e0       	ldi	r16, 0x02	; 2
    ff36:	10 e0       	ldi	r17, 0x00	; 0
    ff38:	ce 01       	movw	r24, r28
    ff3a:	01 96       	adiw	r24, 0x01	; 1
    ff3c:	10 dc       	rcall	.-2016   	; 0xf75e <disk_readp>
    ff3e:	81 11       	cpse	r24, r1
    ff40:	4e c0       	rjmp	.+156    	; 0xffde <get_fat+0x1ec>
    ff42:	69 81       	ldd	r22, Y+1	; 0x01
    ff44:	7a 81       	ldd	r23, Y+2	; 0x02
    ff46:	80 e0       	ldi	r24, 0x00	; 0
    ff48:	90 e0       	ldi	r25, 0x00	; 0
    ff4a:	52 c0       	rjmp	.+164    	; 0xfff0 <get_fat+0x1fe>
    ff4c:	94 01       	movw	r18, r8
    ff4e:	2f 77       	andi	r18, 0x7F	; 127
    ff50:	33 27       	eor	r19, r19
    ff52:	22 0f       	add	r18, r18
    ff54:	33 1f       	adc	r19, r19
    ff56:	22 0f       	add	r18, r18
    ff58:	33 1f       	adc	r19, r19
    ff5a:	f7 01       	movw	r30, r14
    ff5c:	c4 84       	ldd	r12, Z+12	; 0x0c
    ff5e:	d5 84       	ldd	r13, Z+13	; 0x0d
    ff60:	e6 84       	ldd	r14, Z+14	; 0x0e
    ff62:	f7 84       	ldd	r15, Z+15	; 0x0f
    ff64:	d5 01       	movw	r26, r10
    ff66:	c4 01       	movw	r24, r8
    ff68:	68 94       	set
    ff6a:	16 f8       	bld	r1, 6
    ff6c:	b6 95       	lsr	r27
    ff6e:	a7 95       	ror	r26
    ff70:	97 95       	ror	r25
    ff72:	87 95       	ror	r24
    ff74:	16 94       	lsr	r1
    ff76:	d1 f7       	brne	.-12     	; 0xff6c <get_fat+0x17a>
    ff78:	b7 01       	movw	r22, r14
    ff7a:	a6 01       	movw	r20, r12
    ff7c:	48 0f       	add	r20, r24
    ff7e:	59 1f       	adc	r21, r25
    ff80:	6a 1f       	adc	r22, r26
    ff82:	7b 1f       	adc	r23, r27
    ff84:	04 e0       	ldi	r16, 0x04	; 4
    ff86:	10 e0       	ldi	r17, 0x00	; 0
    ff88:	ce 01       	movw	r24, r28
    ff8a:	01 96       	adiw	r24, 0x01	; 1
    ff8c:	e8 db       	rcall	.-2096   	; 0xf75e <disk_readp>
    ff8e:	81 11       	cpse	r24, r1
    ff90:	2b c0       	rjmp	.+86     	; 0xffe8 <get_fat+0x1f6>
    ff92:	89 81       	ldd	r24, Y+1	; 0x01
    ff94:	9a 81       	ldd	r25, Y+2	; 0x02
    ff96:	ab 81       	ldd	r26, Y+3	; 0x03
    ff98:	bc 81       	ldd	r27, Y+4	; 0x04
    ff9a:	bc 01       	movw	r22, r24
    ff9c:	cd 01       	movw	r24, r26
    ff9e:	9f 70       	andi	r25, 0x0F	; 15
    ffa0:	27 c0       	rjmp	.+78     	; 0xfff0 <get_fat+0x1fe>
    ffa2:	61 e0       	ldi	r22, 0x01	; 1
    ffa4:	70 e0       	ldi	r23, 0x00	; 0
    ffa6:	80 e0       	ldi	r24, 0x00	; 0
    ffa8:	90 e0       	ldi	r25, 0x00	; 0
    ffaa:	22 c0       	rjmp	.+68     	; 0xfff0 <get_fat+0x1fe>
    ffac:	61 e0       	ldi	r22, 0x01	; 1
    ffae:	70 e0       	ldi	r23, 0x00	; 0
    ffb0:	80 e0       	ldi	r24, 0x00	; 0
    ffb2:	90 e0       	ldi	r25, 0x00	; 0
    ffb4:	1d c0       	rjmp	.+58     	; 0xfff0 <get_fat+0x1fe>
    ffb6:	61 e0       	ldi	r22, 0x01	; 1
    ffb8:	70 e0       	ldi	r23, 0x00	; 0
    ffba:	80 e0       	ldi	r24, 0x00	; 0
    ffbc:	90 e0       	ldi	r25, 0x00	; 0
    ffbe:	18 c0       	rjmp	.+48     	; 0xfff0 <get_fat+0x1fe>
    ffc0:	61 e0       	ldi	r22, 0x01	; 1
    ffc2:	70 e0       	ldi	r23, 0x00	; 0
    ffc4:	80 e0       	ldi	r24, 0x00	; 0
    ffc6:	90 e0       	ldi	r25, 0x00	; 0
    ffc8:	13 c0       	rjmp	.+38     	; 0xfff0 <get_fat+0x1fe>
    ffca:	61 e0       	ldi	r22, 0x01	; 1
    ffcc:	70 e0       	ldi	r23, 0x00	; 0
    ffce:	80 e0       	ldi	r24, 0x00	; 0
    ffd0:	90 e0       	ldi	r25, 0x00	; 0
    ffd2:	0e c0       	rjmp	.+28     	; 0xfff0 <get_fat+0x1fe>
    ffd4:	61 e0       	ldi	r22, 0x01	; 1
    ffd6:	70 e0       	ldi	r23, 0x00	; 0
    ffd8:	80 e0       	ldi	r24, 0x00	; 0
    ffda:	90 e0       	ldi	r25, 0x00	; 0
    ffdc:	09 c0       	rjmp	.+18     	; 0xfff0 <get_fat+0x1fe>
    ffde:	61 e0       	ldi	r22, 0x01	; 1
    ffe0:	70 e0       	ldi	r23, 0x00	; 0
    ffe2:	80 e0       	ldi	r24, 0x00	; 0
    ffe4:	90 e0       	ldi	r25, 0x00	; 0
    ffe6:	04 c0       	rjmp	.+8      	; 0xfff0 <get_fat+0x1fe>
    ffe8:	61 e0       	ldi	r22, 0x01	; 1
    ffea:	70 e0       	ldi	r23, 0x00	; 0
    ffec:	80 e0       	ldi	r24, 0x00	; 0
    ffee:	90 e0       	ldi	r25, 0x00	; 0
    fff0:	0f 90       	pop	r0
    fff2:	0f 90       	pop	r0
    fff4:	0f 90       	pop	r0
    fff6:	0f 90       	pop	r0
    fff8:	df 91       	pop	r29
    fffa:	cf 91       	pop	r28
    fffc:	1f 91       	pop	r17
    fffe:	0f 91       	pop	r16
   10000:	ff 90       	pop	r15
   10002:	ef 90       	pop	r14
   10004:	df 90       	pop	r13
   10006:	cf 90       	pop	r12
   10008:	bf 90       	pop	r11
   1000a:	af 90       	pop	r10
   1000c:	9f 90       	pop	r9
   1000e:	8f 90       	pop	r8
   10010:	7f 90       	pop	r7
   10012:	6f 90       	pop	r6
   10014:	5f 90       	pop	r5
   10016:	4f 90       	pop	r4
   10018:	08 95       	ret

0001001a <dir_next>:
   1001a:	cf 92       	push	r12
   1001c:	df 92       	push	r13
   1001e:	ef 92       	push	r14
   10020:	ff 92       	push	r15
   10022:	0f 93       	push	r16
   10024:	1f 93       	push	r17
   10026:	cf 93       	push	r28
   10028:	df 93       	push	r29
   1002a:	e0 90 04 04 	lds	r14, 0x0404	; 0x800404 <FatFs>
   1002e:	f0 90 05 04 	lds	r15, 0x0405	; 0x800405 <FatFs+0x1>
   10032:	fc 01       	movw	r30, r24
   10034:	c0 81       	ld	r28, Z
   10036:	d1 81       	ldd	r29, Z+1	; 0x01
   10038:	21 96       	adiw	r28, 0x01	; 1
   1003a:	09 f4       	brne	.+2      	; 0x1003e <dir_next+0x24>
   1003c:	5a c0       	rjmp	.+180    	; 0x100f2 <dir_next+0xd8>
   1003e:	44 85       	ldd	r20, Z+12	; 0x0c
   10040:	55 85       	ldd	r21, Z+13	; 0x0d
   10042:	66 85       	ldd	r22, Z+14	; 0x0e
   10044:	77 85       	ldd	r23, Z+15	; 0x0f
   10046:	41 15       	cp	r20, r1
   10048:	51 05       	cpc	r21, r1
   1004a:	61 05       	cpc	r22, r1
   1004c:	71 05       	cpc	r23, r1
   1004e:	09 f4       	brne	.+2      	; 0x10052 <dir_next+0x38>
   10050:	52 c0       	rjmp	.+164    	; 0x100f6 <dir_next+0xdc>
   10052:	8c 01       	movw	r16, r24
   10054:	ce 01       	movw	r24, r28
   10056:	8f 70       	andi	r24, 0x0F	; 15
   10058:	99 27       	eor	r25, r25
   1005a:	89 2b       	or	r24, r25
   1005c:	09 f0       	breq	.+2      	; 0x10060 <dir_next+0x46>
   1005e:	44 c0       	rjmp	.+136    	; 0x100e8 <dir_next+0xce>
   10060:	4f 5f       	subi	r20, 0xFF	; 255
   10062:	5f 4f       	sbci	r21, 0xFF	; 255
   10064:	6f 4f       	sbci	r22, 0xFF	; 255
   10066:	7f 4f       	sbci	r23, 0xFF	; 255
   10068:	44 87       	std	Z+12, r20	; 0x0c
   1006a:	55 87       	std	Z+13, r21	; 0x0d
   1006c:	66 87       	std	Z+14, r22	; 0x0e
   1006e:	77 87       	std	Z+15, r23	; 0x0f
   10070:	40 85       	ldd	r20, Z+8	; 0x08
   10072:	51 85       	ldd	r21, Z+9	; 0x09
   10074:	62 85       	ldd	r22, Z+10	; 0x0a
   10076:	73 85       	ldd	r23, Z+11	; 0x0b
   10078:	41 15       	cp	r20, r1
   1007a:	51 05       	cpc	r21, r1
   1007c:	61 05       	cpc	r22, r1
   1007e:	71 05       	cpc	r23, r1
   10080:	39 f4       	brne	.+14     	; 0x10090 <dir_next+0x76>
   10082:	f7 01       	movw	r30, r14
   10084:	84 81       	ldd	r24, Z+4	; 0x04
   10086:	95 81       	ldd	r25, Z+5	; 0x05
   10088:	c8 17       	cp	r28, r24
   1008a:	d9 07       	cpc	r29, r25
   1008c:	b0 f5       	brcc	.+108    	; 0x100fa <dir_next+0xe0>
   1008e:	2c c0       	rjmp	.+88     	; 0x100e8 <dir_next+0xce>
   10090:	f7 01       	movw	r30, r14
   10092:	81 81       	ldd	r24, Z+1	; 0x01
   10094:	90 e0       	ldi	r25, 0x00	; 0
   10096:	01 97       	sbiw	r24, 0x01	; 1
   10098:	9e 01       	movw	r18, r28
   1009a:	32 95       	swap	r19
   1009c:	22 95       	swap	r18
   1009e:	2f 70       	andi	r18, 0x0F	; 15
   100a0:	23 27       	eor	r18, r19
   100a2:	3f 70       	andi	r19, 0x0F	; 15
   100a4:	23 27       	eor	r18, r19
   100a6:	82 23       	and	r24, r18
   100a8:	93 23       	and	r25, r19
   100aa:	89 2b       	or	r24, r25
   100ac:	e9 f4       	brne	.+58     	; 0x100e8 <dir_next+0xce>
   100ae:	cb 01       	movw	r24, r22
   100b0:	ba 01       	movw	r22, r20
   100b2:	9f de       	rcall	.-706    	; 0xfdf2 <get_fat>
   100b4:	62 30       	cpi	r22, 0x02	; 2
   100b6:	71 05       	cpc	r23, r1
   100b8:	81 05       	cpc	r24, r1
   100ba:	91 05       	cpc	r25, r1
   100bc:	00 f1       	brcs	.+64     	; 0x100fe <dir_next+0xe4>
   100be:	f7 01       	movw	r30, r14
   100c0:	c0 84       	ldd	r12, Z+8	; 0x08
   100c2:	d1 84       	ldd	r13, Z+9	; 0x09
   100c4:	e2 84       	ldd	r14, Z+10	; 0x0a
   100c6:	f3 84       	ldd	r15, Z+11	; 0x0b
   100c8:	6c 15       	cp	r22, r12
   100ca:	7d 05       	cpc	r23, r13
   100cc:	8e 05       	cpc	r24, r14
   100ce:	9f 05       	cpc	r25, r15
   100d0:	c0 f4       	brcc	.+48     	; 0x10102 <dir_next+0xe8>
   100d2:	f8 01       	movw	r30, r16
   100d4:	60 87       	std	Z+8, r22	; 0x08
   100d6:	71 87       	std	Z+9, r23	; 0x09
   100d8:	82 87       	std	Z+10, r24	; 0x0a
   100da:	93 87       	std	Z+11, r25	; 0x0b
   100dc:	86 dd       	rcall	.-1268   	; 0xfbea <clust2sect>
   100de:	f8 01       	movw	r30, r16
   100e0:	64 87       	std	Z+12, r22	; 0x0c
   100e2:	75 87       	std	Z+13, r23	; 0x0d
   100e4:	86 87       	std	Z+14, r24	; 0x0e
   100e6:	97 87       	std	Z+15, r25	; 0x0f
   100e8:	f8 01       	movw	r30, r16
   100ea:	d1 83       	std	Z+1, r29	; 0x01
   100ec:	c0 83       	st	Z, r28
   100ee:	80 e0       	ldi	r24, 0x00	; 0
   100f0:	09 c0       	rjmp	.+18     	; 0x10104 <dir_next+0xea>
   100f2:	83 e0       	ldi	r24, 0x03	; 3
   100f4:	07 c0       	rjmp	.+14     	; 0x10104 <dir_next+0xea>
   100f6:	83 e0       	ldi	r24, 0x03	; 3
   100f8:	05 c0       	rjmp	.+10     	; 0x10104 <dir_next+0xea>
   100fa:	83 e0       	ldi	r24, 0x03	; 3
   100fc:	03 c0       	rjmp	.+6      	; 0x10104 <dir_next+0xea>
   100fe:	81 e0       	ldi	r24, 0x01	; 1
   10100:	01 c0       	rjmp	.+2      	; 0x10104 <dir_next+0xea>
   10102:	83 e0       	ldi	r24, 0x03	; 3
   10104:	df 91       	pop	r29
   10106:	cf 91       	pop	r28
   10108:	1f 91       	pop	r17
   1010a:	0f 91       	pop	r16
   1010c:	ff 90       	pop	r15
   1010e:	ef 90       	pop	r14
   10110:	df 90       	pop	r13
   10112:	cf 90       	pop	r12
   10114:	08 95       	ret

00010116 <dir_find>:
   10116:	df 92       	push	r13
   10118:	ef 92       	push	r14
   1011a:	ff 92       	push	r15
   1011c:	0f 93       	push	r16
   1011e:	1f 93       	push	r17
   10120:	cf 93       	push	r28
   10122:	df 93       	push	r29
   10124:	7c 01       	movw	r14, r24
   10126:	8c dd       	rcall	.-1256   	; 0xfc40 <dir_rewind>
   10128:	81 11       	cpse	r24, r1
   1012a:	3b c0       	rjmp	.+118    	; 0x101a2 <dir_find+0x8c>
   1012c:	e0 91 04 04 	lds	r30, 0x0404	; 0x800404 <FatFs>
   10130:	f0 91 05 04 	lds	r31, 0x0405	; 0x800405 <FatFs+0x1>
   10134:	c6 81       	ldd	r28, Z+6	; 0x06
   10136:	d7 81       	ldd	r29, Z+7	; 0x07
   10138:	f7 01       	movw	r30, r14
   1013a:	20 81       	ld	r18, Z
   1013c:	31 81       	ldd	r19, Z+1	; 0x01
   1013e:	2f 70       	andi	r18, 0x0F	; 15
   10140:	33 27       	eor	r19, r19
   10142:	22 0f       	add	r18, r18
   10144:	33 1f       	adc	r19, r19
   10146:	22 95       	swap	r18
   10148:	32 95       	swap	r19
   1014a:	30 7f       	andi	r19, 0xF0	; 240
   1014c:	32 27       	eor	r19, r18
   1014e:	20 7f       	andi	r18, 0xF0	; 240
   10150:	32 27       	eor	r19, r18
   10152:	44 85       	ldd	r20, Z+12	; 0x0c
   10154:	55 85       	ldd	r21, Z+13	; 0x0d
   10156:	66 85       	ldd	r22, Z+14	; 0x0e
   10158:	77 85       	ldd	r23, Z+15	; 0x0f
   1015a:	00 e2       	ldi	r16, 0x20	; 32
   1015c:	10 e0       	ldi	r17, 0x00	; 0
   1015e:	ce 01       	movw	r24, r28
   10160:	fe da       	rcall	.-2564   	; 0xf75e <disk_readp>
   10162:	91 e0       	ldi	r25, 0x01	; 1
   10164:	81 11       	cpse	r24, r1
   10166:	01 c0       	rjmp	.+2      	; 0x1016a <dir_find+0x54>
   10168:	90 e0       	ldi	r25, 0x00	; 0
   1016a:	d9 2e       	mov	r13, r25
   1016c:	91 11       	cpse	r25, r1
   1016e:	14 c0       	rjmp	.+40     	; 0x10198 <dir_find+0x82>
   10170:	88 81       	ld	r24, Y
   10172:	88 23       	and	r24, r24
   10174:	99 f0       	breq	.+38     	; 0x1019c <dir_find+0x86>
   10176:	8b 85       	ldd	r24, Y+11	; 0x0b
   10178:	83 fd       	sbrc	r24, 3
   1017a:	09 c0       	rjmp	.+18     	; 0x1018e <dir_find+0x78>
   1017c:	f7 01       	movw	r30, r14
   1017e:	62 81       	ldd	r22, Z+2	; 0x02
   10180:	73 81       	ldd	r23, Z+3	; 0x03
   10182:	4b e0       	ldi	r20, 0x0B	; 11
   10184:	50 e0       	ldi	r21, 0x00	; 0
   10186:	ce 01       	movw	r24, r28
   10188:	13 dd       	rcall	.-1498   	; 0xfbb0 <mem_cmp>
   1018a:	89 2b       	or	r24, r25
   1018c:	49 f0       	breq	.+18     	; 0x101a0 <dir_find+0x8a>
   1018e:	c7 01       	movw	r24, r14
   10190:	44 df       	rcall	.-376    	; 0x1001a <dir_next>
   10192:	88 23       	and	r24, r24
   10194:	89 f2       	breq	.-94     	; 0x10138 <dir_find+0x22>
   10196:	05 c0       	rjmp	.+10     	; 0x101a2 <dir_find+0x8c>
   10198:	89 2f       	mov	r24, r25
   1019a:	03 c0       	rjmp	.+6      	; 0x101a2 <dir_find+0x8c>
   1019c:	83 e0       	ldi	r24, 0x03	; 3
   1019e:	01 c0       	rjmp	.+2      	; 0x101a2 <dir_find+0x8c>
   101a0:	8d 2d       	mov	r24, r13
   101a2:	df 91       	pop	r29
   101a4:	cf 91       	pop	r28
   101a6:	1f 91       	pop	r17
   101a8:	0f 91       	pop	r16
   101aa:	ff 90       	pop	r15
   101ac:	ef 90       	pop	r14
   101ae:	df 90       	pop	r13
   101b0:	08 95       	ret

000101b2 <follow_path>:
   101b2:	0f 93       	push	r16
   101b4:	1f 93       	push	r17
   101b6:	cf 93       	push	r28
   101b8:	df 93       	push	r29
   101ba:	1f 92       	push	r1
   101bc:	1f 92       	push	r1
   101be:	cd b7       	in	r28, 0x3d	; 61
   101c0:	de b7       	in	r29, 0x3e	; 62
   101c2:	8c 01       	movw	r16, r24
   101c4:	7a 83       	std	Y+2, r23	; 0x02
   101c6:	69 83       	std	Y+1, r22	; 0x01
   101c8:	03 c0       	rjmp	.+6      	; 0x101d0 <follow_path+0x1e>
   101ca:	31 96       	adiw	r30, 0x01	; 1
   101cc:	fa 83       	std	Y+2, r31	; 0x02
   101ce:	e9 83       	std	Y+1, r30	; 0x01
   101d0:	e9 81       	ldd	r30, Y+1	; 0x01
   101d2:	fa 81       	ldd	r31, Y+2	; 0x02
   101d4:	80 81       	ld	r24, Z
   101d6:	80 32       	cpi	r24, 0x20	; 32
   101d8:	c1 f3       	breq	.-16     	; 0x101ca <follow_path+0x18>
   101da:	8f 32       	cpi	r24, 0x2F	; 47
   101dc:	19 f4       	brne	.+6      	; 0x101e4 <follow_path+0x32>
   101de:	31 96       	adiw	r30, 0x01	; 1
   101e0:	fa 83       	std	Y+2, r31	; 0x02
   101e2:	e9 83       	std	Y+1, r30	; 0x01
   101e4:	d8 01       	movw	r26, r16
   101e6:	14 96       	adiw	r26, 0x04	; 4
   101e8:	1d 92       	st	X+, r1
   101ea:	1d 92       	st	X+, r1
   101ec:	1d 92       	st	X+, r1
   101ee:	1c 92       	st	X, r1
   101f0:	17 97       	sbiw	r26, 0x07	; 7
   101f2:	e9 81       	ldd	r30, Y+1	; 0x01
   101f4:	fa 81       	ldd	r31, Y+2	; 0x02
   101f6:	80 81       	ld	r24, Z
   101f8:	81 32       	cpi	r24, 0x21	; 33
   101fa:	58 f4       	brcc	.+22     	; 0x10212 <follow_path+0x60>
   101fc:	c8 01       	movw	r24, r16
   101fe:	20 dd       	rcall	.-1472   	; 0xfc40 <dir_rewind>
   10200:	e0 91 04 04 	lds	r30, 0x0404	; 0x800404 <FatFs>
   10204:	f0 91 05 04 	lds	r31, 0x0405	; 0x800405 <FatFs+0x1>
   10208:	06 80       	ldd	r0, Z+6	; 0x06
   1020a:	f7 81       	ldd	r31, Z+7	; 0x07
   1020c:	e0 2d       	mov	r30, r0
   1020e:	10 82       	st	Z, r1
   10210:	40 c0       	rjmp	.+128    	; 0x10292 <follow_path+0xe0>
   10212:	be 01       	movw	r22, r28
   10214:	6f 5f       	subi	r22, 0xFF	; 255
   10216:	7f 4f       	sbci	r23, 0xFF	; 255
   10218:	c8 01       	movw	r24, r16
   1021a:	5f dd       	rcall	.-1346   	; 0xfcda <create_name>
   1021c:	81 11       	cpse	r24, r1
   1021e:	39 c0       	rjmp	.+114    	; 0x10292 <follow_path+0xe0>
   10220:	c8 01       	movw	r24, r16
   10222:	79 df       	rcall	.-270    	; 0x10116 <dir_find>
   10224:	88 23       	and	r24, r24
   10226:	59 f0       	breq	.+22     	; 0x1023e <follow_path+0x8c>
   10228:	83 30       	cpi	r24, 0x03	; 3
   1022a:	99 f5       	brne	.+102    	; 0x10292 <follow_path+0xe0>
   1022c:	d8 01       	movw	r26, r16
   1022e:	12 96       	adiw	r26, 0x02	; 2
   10230:	ed 91       	ld	r30, X+
   10232:	fc 91       	ld	r31, X
   10234:	13 97       	sbiw	r26, 0x03	; 3
   10236:	93 85       	ldd	r25, Z+11	; 0x0b
   10238:	99 23       	and	r25, r25
   1023a:	41 f1       	breq	.+80     	; 0x1028c <follow_path+0xda>
   1023c:	2a c0       	rjmp	.+84     	; 0x10292 <follow_path+0xe0>
   1023e:	d8 01       	movw	r26, r16
   10240:	12 96       	adiw	r26, 0x02	; 2
   10242:	ed 91       	ld	r30, X+
   10244:	fc 91       	ld	r31, X
   10246:	13 97       	sbiw	r26, 0x03	; 3
   10248:	93 85       	ldd	r25, Z+11	; 0x0b
   1024a:	91 11       	cpse	r25, r1
   1024c:	22 c0       	rjmp	.+68     	; 0x10292 <follow_path+0xe0>
   1024e:	e0 91 04 04 	lds	r30, 0x0404	; 0x800404 <FatFs>
   10252:	f0 91 05 04 	lds	r31, 0x0405	; 0x800405 <FatFs+0x1>
   10256:	06 80       	ldd	r0, Z+6	; 0x06
   10258:	f7 81       	ldd	r31, Z+7	; 0x07
   1025a:	e0 2d       	mov	r30, r0
   1025c:	83 85       	ldd	r24, Z+11	; 0x0b
   1025e:	84 ff       	sbrs	r24, 4
   10260:	17 c0       	rjmp	.+46     	; 0x10290 <follow_path+0xde>
   10262:	84 89       	ldd	r24, Z+20	; 0x14
   10264:	95 89       	ldd	r25, Z+21	; 0x15
   10266:	a0 e0       	ldi	r26, 0x00	; 0
   10268:	b0 e0       	ldi	r27, 0x00	; 0
   1026a:	bc 01       	movw	r22, r24
   1026c:	55 27       	eor	r21, r21
   1026e:	44 27       	eor	r20, r20
   10270:	82 8d       	ldd	r24, Z+26	; 0x1a
   10272:	93 8d       	ldd	r25, Z+27	; 0x1b
   10274:	a0 e0       	ldi	r26, 0x00	; 0
   10276:	b0 e0       	ldi	r27, 0x00	; 0
   10278:	84 2b       	or	r24, r20
   1027a:	95 2b       	or	r25, r21
   1027c:	a6 2b       	or	r26, r22
   1027e:	b7 2b       	or	r27, r23
   10280:	f8 01       	movw	r30, r16
   10282:	84 83       	std	Z+4, r24	; 0x04
   10284:	95 83       	std	Z+5, r25	; 0x05
   10286:	a6 83       	std	Z+6, r26	; 0x06
   10288:	b7 83       	std	Z+7, r27	; 0x07
   1028a:	c3 cf       	rjmp	.-122    	; 0x10212 <follow_path+0x60>
   1028c:	84 e0       	ldi	r24, 0x04	; 4
   1028e:	01 c0       	rjmp	.+2      	; 0x10292 <follow_path+0xe0>
   10290:	84 e0       	ldi	r24, 0x04	; 4
   10292:	0f 90       	pop	r0
   10294:	0f 90       	pop	r0
   10296:	df 91       	pop	r29
   10298:	cf 91       	pop	r28
   1029a:	1f 91       	pop	r17
   1029c:	0f 91       	pop	r16
   1029e:	08 95       	ret

000102a0 <pf_mount>:
/*-----------------------------------------------------------------------*/

FRESULT pf_mount (
	FATFS *fs		/* Pointer to new file system object (NULL: Unmount) */
)
{
   102a0:	4f 92       	push	r4
   102a2:	5f 92       	push	r5
   102a4:	6f 92       	push	r6
   102a6:	7f 92       	push	r7
   102a8:	8f 92       	push	r8
   102aa:	9f 92       	push	r9
   102ac:	af 92       	push	r10
   102ae:	bf 92       	push	r11
   102b0:	df 92       	push	r13
   102b2:	ef 92       	push	r14
   102b4:	ff 92       	push	r15
   102b6:	0f 93       	push	r16
   102b8:	1f 93       	push	r17
   102ba:	cf 93       	push	r28
   102bc:	df 93       	push	r29
   102be:	cd b7       	in	r28, 0x3d	; 61
   102c0:	de b7       	in	r29, 0x3e	; 62
   102c2:	a8 97       	sbiw	r28, 0x28	; 40
   102c4:	0f b6       	in	r0, 0x3f	; 63
   102c6:	f8 94       	cli
   102c8:	de bf       	out	0x3e, r29	; 62
   102ca:	0f be       	out	0x3f, r0	; 63
   102cc:	cd bf       	out	0x3d, r28	; 61
	BYTE fmt, buf[36];
	DWORD bsect, fsize, tsect, mclst;


	FatFs = 0;
   102ce:	10 92 05 04 	sts	0x0405, r1	; 0x800405 <FatFs+0x1>
   102d2:	10 92 04 04 	sts	0x0404, r1	; 0x800404 <FatFs>
	if (!fs) return FR_OK;				/* Unregister fs object */
   102d6:	00 97       	sbiw	r24, 0x00	; 0
   102d8:	09 f4       	brne	.+2      	; 0x102dc <pf_mount+0x3c>
   102da:	f6 c0       	rjmp	.+492    	; 0x104c8 <pf_mount+0x228>
   102dc:	7c 01       	movw	r14, r24

	if (disk_initialize() & STA_NOINIT)	/* Check if the drive is ready or not */
   102de:	0a db       	rcall	.-2540   	; 0xf8f4 <disk_initialize>
   102e0:	80 fd       	sbrc	r24, 0
   102e2:	f4 c0       	rjmp	.+488    	; 0x104cc <pf_mount+0x22c>
		return FR_NOT_READY;

	/* Search FAT partition on the drive */
	bsect = 0;
	fmt = check_fs(buf, bsect);			/* Check sector 0 as an SFD format */
   102e4:	40 e0       	ldi	r20, 0x00	; 0
   102e6:	50 e0       	ldi	r21, 0x00	; 0
   102e8:	ba 01       	movw	r22, r20
   102ea:	ce 01       	movw	r24, r28
   102ec:	01 96       	adiw	r24, 0x01	; 1
   102ee:	3a dd       	rcall	.-1420   	; 0xfd64 <check_fs>
   102f0:	d8 2e       	mov	r13, r24
//   	sprintf(str,"%d",fmt);
//   	setpos(4,0);
//   	str_lcd(str);
	if (fmt == 1) {						/* Not an FAT boot record, it may be FDISK format */
   102f2:	41 e0       	ldi	r20, 0x01	; 1
   102f4:	84 13       	cpse	r24, r20
   102f6:	1a c0       	rjmp	.+52     	; 0x1032c <pf_mount+0x8c>
		/* Check a partition listed in top of the partition table */
		if (disk_readp(buf, bsect, MBR_Table, 16)) {	/* 1st partition entry */
   102f8:	00 e1       	ldi	r16, 0x10	; 16
   102fa:	10 e0       	ldi	r17, 0x00	; 0
   102fc:	2e eb       	ldi	r18, 0xBE	; 190
   102fe:	31 e0       	ldi	r19, 0x01	; 1
   10300:	40 e0       	ldi	r20, 0x00	; 0
   10302:	50 e0       	ldi	r21, 0x00	; 0
   10304:	ba 01       	movw	r22, r20
   10306:	ce 01       	movw	r24, r28
   10308:	01 96       	adiw	r24, 0x01	; 1
   1030a:	29 da       	rcall	.-2990   	; 0xf75e <disk_readp>
   1030c:	81 11       	cpse	r24, r1
   1030e:	12 c0       	rjmp	.+36     	; 0x10334 <pf_mount+0x94>
			fmt = 3;
		} else {
			if (buf[4]) {					/* Is the partition existing? */
   10310:	8d 81       	ldd	r24, Y+5	; 0x05
   10312:	88 23       	and	r24, r24
   10314:	b9 f0       	breq	.+46     	; 0x10344 <pf_mount+0xa4>
				bsect = LD_DWORD(&buf[8]);	/* Partition offset in LBA */
   10316:	89 84       	ldd	r8, Y+9	; 0x09
   10318:	9a 84       	ldd	r9, Y+10	; 0x0a
   1031a:	ab 84       	ldd	r10, Y+11	; 0x0b
   1031c:	bc 84       	ldd	r11, Y+12	; 0x0c
				fmt = check_fs(buf, bsect);	/* Check the partition */
   1031e:	b5 01       	movw	r22, r10
   10320:	a4 01       	movw	r20, r8
   10322:	ce 01       	movw	r24, r28
   10324:	01 96       	adiw	r24, 0x01	; 1
   10326:	1e dd       	rcall	.-1476   	; 0xfd64 <check_fs>
   10328:	d8 2e       	mov	r13, r24
   1032a:	0f c0       	rjmp	.+30     	; 0x1034a <pf_mount+0xaa>

	if (disk_initialize() & STA_NOINIT)	/* Check if the drive is ready or not */
		return FR_NOT_READY;

	/* Search FAT partition on the drive */
	bsect = 0;
   1032c:	81 2c       	mov	r8, r1
   1032e:	91 2c       	mov	r9, r1
   10330:	54 01       	movw	r10, r8
   10332:	0b c0       	rjmp	.+22     	; 0x1034a <pf_mount+0xaa>
   10334:	81 2c       	mov	r8, r1
   10336:	91 2c       	mov	r9, r1
   10338:	54 01       	movw	r10, r8
//   	setpos(4,0);
//   	str_lcd(str);
	if (fmt == 1) {						/* Not an FAT boot record, it may be FDISK format */
		/* Check a partition listed in top of the partition table */
		if (disk_readp(buf, bsect, MBR_Table, 16)) {	/* 1st partition entry */
			fmt = 3;
   1033a:	0f 2e       	mov	r0, r31
   1033c:	f3 e0       	ldi	r31, 0x03	; 3
   1033e:	df 2e       	mov	r13, r31
   10340:	f0 2d       	mov	r31, r0
   10342:	03 c0       	rjmp	.+6      	; 0x1034a <pf_mount+0xaa>

	if (disk_initialize() & STA_NOINIT)	/* Check if the drive is ready or not */
		return FR_NOT_READY;

	/* Search FAT partition on the drive */
	bsect = 0;
   10344:	81 2c       	mov	r8, r1
   10346:	91 2c       	mov	r9, r1
   10348:	54 01       	movw	r10, r8
				bsect = LD_DWORD(&buf[8]);	/* Partition offset in LBA */
				fmt = check_fs(buf, bsect);	/* Check the partition */
			}
		}
	}
	if (fmt == 3) return FR_DISK_ERR;
   1034a:	53 e0       	ldi	r21, 0x03	; 3
   1034c:	d5 16       	cp	r13, r21
   1034e:	09 f4       	brne	.+2      	; 0x10352 <pf_mount+0xb2>
   10350:	bf c0       	rjmp	.+382    	; 0x104d0 <pf_mount+0x230>
	if (fmt) return FR_NO_FILESYSTEM;	/* No valid FAT patition is found */
   10352:	d1 10       	cpse	r13, r1
   10354:	bf c0       	rjmp	.+382    	; 0x104d4 <pf_mount+0x234>

	/* Initialize the file system object */
	if (disk_readp(buf, bsect, 13, sizeof(buf))) return FR_DISK_ERR;
   10356:	04 e2       	ldi	r16, 0x24	; 36
   10358:	10 e0       	ldi	r17, 0x00	; 0
   1035a:	2d e0       	ldi	r18, 0x0D	; 13
   1035c:	30 e0       	ldi	r19, 0x00	; 0
   1035e:	b5 01       	movw	r22, r10
   10360:	a4 01       	movw	r20, r8
   10362:	ce 01       	movw	r24, r28
   10364:	01 96       	adiw	r24, 0x01	; 1
   10366:	fb d9       	rcall	.-3082   	; 0xf75e <disk_readp>
   10368:	81 11       	cpse	r24, r1
   1036a:	b6 c0       	rjmp	.+364    	; 0x104d8 <pf_mount+0x238>

	fsize = LD_WORD(buf+BPB_FATSz16-13);				/* Number of sectors per FAT */
   1036c:	2a 85       	ldd	r18, Y+10	; 0x0a
   1036e:	3b 85       	ldd	r19, Y+11	; 0x0b
   10370:	40 e0       	ldi	r20, 0x00	; 0
   10372:	50 e0       	ldi	r21, 0x00	; 0
	if (!fsize) fsize = LD_DWORD(buf+BPB_FATSz32-13);
   10374:	21 15       	cp	r18, r1
   10376:	31 05       	cpc	r19, r1
   10378:	41 05       	cpc	r20, r1
   1037a:	51 05       	cpc	r21, r1
   1037c:	21 f4       	brne	.+8      	; 0x10386 <pf_mount+0xe6>
   1037e:	28 8d       	ldd	r18, Y+24	; 0x18
   10380:	39 8d       	ldd	r19, Y+25	; 0x19
   10382:	4a 8d       	ldd	r20, Y+26	; 0x1a
   10384:	5b 8d       	ldd	r21, Y+27	; 0x1b

	fsize *= buf[BPB_NumFATs-13];						/* Number of sectors in FAT area */
   10386:	ac 81       	ldd	r26, Y+4	; 0x04
   10388:	b0 e0       	ldi	r27, 0x00	; 0
   1038a:	0e 94 aa 9d 	call	0x13b54	; 0x13b54 <__muluhisi3>
   1038e:	6d a3       	std	Y+37, r22	; 0x25
   10390:	7e a3       	std	Y+38, r23	; 0x26
   10392:	8f a3       	std	Y+39, r24	; 0x27
   10394:	98 a7       	std	Y+40, r25	; 0x28
	fs->fatbase = bsect + LD_WORD(buf+BPB_RsvdSecCnt-13); /* FAT start sector (lba) */
   10396:	8a 81       	ldd	r24, Y+2	; 0x02
   10398:	9b 81       	ldd	r25, Y+3	; 0x03
   1039a:	88 0e       	add	r8, r24
   1039c:	99 1e       	adc	r9, r25
   1039e:	a1 1c       	adc	r10, r1
   103a0:	b1 1c       	adc	r11, r1
   103a2:	d7 01       	movw	r26, r14
   103a4:	1c 96       	adiw	r26, 0x0c	; 12
   103a6:	8d 92       	st	X+, r8
   103a8:	9d 92       	st	X+, r9
   103aa:	ad 92       	st	X+, r10
   103ac:	bc 92       	st	X, r11
   103ae:	1f 97       	sbiw	r26, 0x0f	; 15
	fs->csize = buf[BPB_SecPerClus-13];					/* Number of sectors per cluster */
   103b0:	e9 81       	ldd	r30, Y+1	; 0x01
   103b2:	11 96       	adiw	r26, 0x01	; 1
   103b4:	ec 93       	st	X, r30
   103b6:	11 97       	sbiw	r26, 0x01	; 1
	fs->n_rootdir = LD_WORD(buf+BPB_RootEntCnt-13);		/* Nmuber of root directory entries */
   103b8:	8d 81       	ldd	r24, Y+5	; 0x05
   103ba:	9e 81       	ldd	r25, Y+6	; 0x06
   103bc:	15 96       	adiw	r26, 0x05	; 5
   103be:	9c 93       	st	X, r25
   103c0:	8e 93       	st	-X, r24
   103c2:	14 97       	sbiw	r26, 0x04	; 4
	tsect = LD_WORD(buf+BPB_TotSec16-13);				/* Number of sectors on the file system */
   103c4:	0f 81       	ldd	r16, Y+7	; 0x07
   103c6:	18 85       	ldd	r17, Y+8	; 0x08
   103c8:	20 e0       	ldi	r18, 0x00	; 0
   103ca:	30 e0       	ldi	r19, 0x00	; 0
	if (!tsect) tsect = LD_DWORD(buf+BPB_TotSec32-13);
   103cc:	01 15       	cp	r16, r1
   103ce:	11 05       	cpc	r17, r1
   103d0:	21 05       	cpc	r18, r1
   103d2:	31 05       	cpc	r19, r1
   103d4:	21 f4       	brne	.+8      	; 0x103de <pf_mount+0x13e>
   103d6:	0c 89       	ldd	r16, Y+20	; 0x14
   103d8:	1d 89       	ldd	r17, Y+21	; 0x15
   103da:	2e 89       	ldd	r18, Y+22	; 0x16
   103dc:	3f 89       	ldd	r19, Y+23	; 0x17
	mclst = (tsect						/* Last cluster# + 1 */
		- LD_WORD(buf+BPB_RsvdSecCnt-13) - fsize - fs->n_rootdir / 16
   103de:	4a 81       	ldd	r20, Y+2	; 0x02
   103e0:	5b 81       	ldd	r21, Y+3	; 0x03
   103e2:	04 1b       	sub	r16, r20
   103e4:	15 0b       	sbc	r17, r21
   103e6:	21 09       	sbc	r18, r1
   103e8:	31 09       	sbc	r19, r1
   103ea:	4d a1       	ldd	r20, Y+37	; 0x25
   103ec:	5e a1       	ldd	r21, Y+38	; 0x26
   103ee:	6f a1       	ldd	r22, Y+39	; 0x27
   103f0:	78 a5       	ldd	r23, Y+40	; 0x28
   103f2:	04 1b       	sub	r16, r20
   103f4:	15 0b       	sbc	r17, r21
   103f6:	26 0b       	sbc	r18, r22
   103f8:	37 0b       	sbc	r19, r23
   103fa:	92 95       	swap	r25
   103fc:	82 95       	swap	r24
   103fe:	8f 70       	andi	r24, 0x0F	; 15
   10400:	89 27       	eor	r24, r25
   10402:	9f 70       	andi	r25, 0x0F	; 15
   10404:	89 27       	eor	r24, r25
   10406:	2c 01       	movw	r4, r24
   10408:	61 2c       	mov	r6, r1
   1040a:	71 2c       	mov	r7, r1
   1040c:	c9 01       	movw	r24, r18
   1040e:	b8 01       	movw	r22, r16
   10410:	64 19       	sub	r22, r4
   10412:	75 09       	sbc	r23, r5
   10414:	86 09       	sbc	r24, r6
   10416:	97 09       	sbc	r25, r7
		) / fs->csize + 2;
   10418:	2e 2f       	mov	r18, r30
   1041a:	30 e0       	ldi	r19, 0x00	; 0
   1041c:	40 e0       	ldi	r20, 0x00	; 0
   1041e:	50 e0       	ldi	r21, 0x00	; 0
   10420:	0e 94 64 9d 	call	0x13ac8	; 0x13ac8 <__udivmodsi4>
	fs->fatbase = bsect + LD_WORD(buf+BPB_RsvdSecCnt-13); /* FAT start sector (lba) */
	fs->csize = buf[BPB_SecPerClus-13];					/* Number of sectors per cluster */
	fs->n_rootdir = LD_WORD(buf+BPB_RootEntCnt-13);		/* Nmuber of root directory entries */
	tsect = LD_WORD(buf+BPB_TotSec16-13);				/* Number of sectors on the file system */
	if (!tsect) tsect = LD_DWORD(buf+BPB_TotSec32-13);
	mclst = (tsect						/* Last cluster# + 1 */
   10424:	ba 01       	movw	r22, r20
   10426:	a9 01       	movw	r20, r18
   10428:	4e 5f       	subi	r20, 0xFE	; 254
   1042a:	5f 4f       	sbci	r21, 0xFF	; 255
   1042c:	6f 4f       	sbci	r22, 0xFF	; 255
   1042e:	7f 4f       	sbci	r23, 0xFF	; 255
		- LD_WORD(buf+BPB_RsvdSecCnt-13) - fsize - fs->n_rootdir / 16
		) / fs->csize + 2;
	fs->max_clust = (CLUST)mclst;
   10430:	d7 01       	movw	r26, r14
   10432:	18 96       	adiw	r26, 0x08	; 8
   10434:	4d 93       	st	X+, r20
   10436:	5d 93       	st	X+, r21
   10438:	6d 93       	st	X+, r22
   1043a:	7c 93       	st	X, r23
   1043c:	1b 97       	sbiw	r26, 0x0b	; 11

	fmt = FS_FAT12;							/* Determine the FAT sub type */
	if (mclst >= 0xFF7) fmt = FS_FAT16;		/* Number of clusters >= 0xFF5 */
   1043e:	47 3f       	cpi	r20, 0xF7	; 247
   10440:	bf e0       	ldi	r27, 0x0F	; 15
   10442:	5b 07       	cpc	r21, r27
   10444:	61 05       	cpc	r22, r1
   10446:	71 05       	cpc	r23, r1
   10448:	10 f4       	brcc	.+4      	; 0x1044e <pf_mount+0x1ae>
	mclst = (tsect						/* Last cluster# + 1 */
		- LD_WORD(buf+BPB_RsvdSecCnt-13) - fsize - fs->n_rootdir / 16
		) / fs->csize + 2;
	fs->max_clust = (CLUST)mclst;

	fmt = FS_FAT12;							/* Determine the FAT sub type */
   1044a:	81 e0       	ldi	r24, 0x01	; 1
   1044c:	01 c0       	rjmp	.+2      	; 0x10450 <pf_mount+0x1b0>
	if (mclst >= 0xFF7) fmt = FS_FAT16;		/* Number of clusters >= 0xFF5 */
   1044e:	82 e0       	ldi	r24, 0x02	; 2
	if (mclst >= 0xFFF7)					/* Number of clusters >= 0xFFF5 */
   10450:	47 3f       	cpi	r20, 0xF7	; 247
   10452:	5f 4f       	sbci	r21, 0xFF	; 255
   10454:	61 05       	cpc	r22, r1
   10456:	71 05       	cpc	r23, r1
   10458:	08 f0       	brcs	.+2      	; 0x1045c <pf_mount+0x1bc>
#if _FS_FAT32
		fmt = FS_FAT32;
   1045a:	83 e0       	ldi	r24, 0x03	; 3
#else
		return FR_NO_FILESYSTEM;
#endif

	fs->fs_type = fmt;		/* FAT sub-type */
   1045c:	d7 01       	movw	r26, r14
   1045e:	8c 93       	st	X, r24
#if _FS_FAT32
	if (fmt == FS_FAT32)
   10460:	83 30       	cpi	r24, 0x03	; 3
   10462:	51 f4       	brne	.+20     	; 0x10478 <pf_mount+0x1d8>
		fs->dirbase = LD_DWORD(buf+(BPB_RootClus-13));	/* Root directory start cluster */
   10464:	88 a1       	ldd	r24, Y+32	; 0x20
   10466:	99 a1       	ldd	r25, Y+33	; 0x21
   10468:	aa a1       	ldd	r26, Y+34	; 0x22
   1046a:	bb a1       	ldd	r27, Y+35	; 0x23
   1046c:	f7 01       	movw	r30, r14
   1046e:	80 8b       	std	Z+16, r24	; 0x10
   10470:	91 8b       	std	Z+17, r25	; 0x11
   10472:	a2 8b       	std	Z+18, r26	; 0x12
   10474:	b3 8b       	std	Z+19, r27	; 0x13
   10476:	0d c0       	rjmp	.+26     	; 0x10492 <pf_mount+0x1f2>
	else
#endif
		fs->dirbase = fs->fatbase + fsize;				/* Root directory start sector (lba) */
   10478:	8d a1       	ldd	r24, Y+37	; 0x25
   1047a:	9e a1       	ldd	r25, Y+38	; 0x26
   1047c:	af a1       	ldd	r26, Y+39	; 0x27
   1047e:	b8 a5       	ldd	r27, Y+40	; 0x28
   10480:	88 0d       	add	r24, r8
   10482:	99 1d       	adc	r25, r9
   10484:	aa 1d       	adc	r26, r10
   10486:	bb 1d       	adc	r27, r11
   10488:	f7 01       	movw	r30, r14
   1048a:	80 8b       	std	Z+16, r24	; 0x10
   1048c:	91 8b       	std	Z+17, r25	; 0x11
   1048e:	a2 8b       	std	Z+18, r26	; 0x12
   10490:	b3 8b       	std	Z+19, r27	; 0x13
	fs->database = fs->fatbase + fsize + fs->n_rootdir / 16;	/* Data start sector (lba) */
   10492:	4d a1       	ldd	r20, Y+37	; 0x25
   10494:	5e a1       	ldd	r21, Y+38	; 0x26
   10496:	6f a1       	ldd	r22, Y+39	; 0x27
   10498:	78 a5       	ldd	r23, Y+40	; 0x28
   1049a:	84 0e       	add	r8, r20
   1049c:	95 1e       	adc	r9, r21
   1049e:	a6 1e       	adc	r10, r22
   104a0:	b7 1e       	adc	r11, r23
   104a2:	84 0c       	add	r8, r4
   104a4:	95 1c       	adc	r9, r5
   104a6:	a6 1c       	adc	r10, r6
   104a8:	b7 1c       	adc	r11, r7
   104aa:	d7 01       	movw	r26, r14
   104ac:	54 96       	adiw	r26, 0x14	; 20
   104ae:	8d 92       	st	X+, r8
   104b0:	9d 92       	st	X+, r9
   104b2:	ad 92       	st	X+, r10
   104b4:	bc 92       	st	X, r11
   104b6:	57 97       	sbiw	r26, 0x17	; 23

	fs->flag = 0;
   104b8:	12 96       	adiw	r26, 0x02	; 2
   104ba:	1c 92       	st	X, r1
	FatFs = fs;
   104bc:	f0 92 05 04 	sts	0x0405, r15	; 0x800405 <FatFs+0x1>
   104c0:	e0 92 04 04 	sts	0x0404, r14	; 0x800404 <FatFs>

	return FR_OK;
   104c4:	80 e0       	ldi	r24, 0x00	; 0
   104c6:	09 c0       	rjmp	.+18     	; 0x104da <pf_mount+0x23a>
	BYTE fmt, buf[36];
	DWORD bsect, fsize, tsect, mclst;


	FatFs = 0;
	if (!fs) return FR_OK;				/* Unregister fs object */
   104c8:	80 e0       	ldi	r24, 0x00	; 0
   104ca:	07 c0       	rjmp	.+14     	; 0x104da <pf_mount+0x23a>

	if (disk_initialize() & STA_NOINIT)	/* Check if the drive is ready or not */
		return FR_NOT_READY;
   104cc:	82 e0       	ldi	r24, 0x02	; 2
   104ce:	05 c0       	rjmp	.+10     	; 0x104da <pf_mount+0x23a>
				bsect = LD_DWORD(&buf[8]);	/* Partition offset in LBA */
				fmt = check_fs(buf, bsect);	/* Check the partition */
			}
		}
	}
	if (fmt == 3) return FR_DISK_ERR;
   104d0:	81 e0       	ldi	r24, 0x01	; 1
   104d2:	03 c0       	rjmp	.+6      	; 0x104da <pf_mount+0x23a>
	if (fmt) return FR_NO_FILESYSTEM;	/* No valid FAT patition is found */
   104d4:	87 e0       	ldi	r24, 0x07	; 7
   104d6:	01 c0       	rjmp	.+2      	; 0x104da <pf_mount+0x23a>

	/* Initialize the file system object */
	if (disk_readp(buf, bsect, 13, sizeof(buf))) return FR_DISK_ERR;
   104d8:	81 e0       	ldi	r24, 0x01	; 1

	fs->flag = 0;
	FatFs = fs;

	return FR_OK;
}
   104da:	a8 96       	adiw	r28, 0x28	; 40
   104dc:	0f b6       	in	r0, 0x3f	; 63
   104de:	f8 94       	cli
   104e0:	de bf       	out	0x3e, r29	; 62
   104e2:	0f be       	out	0x3f, r0	; 63
   104e4:	cd bf       	out	0x3d, r28	; 61
   104e6:	df 91       	pop	r29
   104e8:	cf 91       	pop	r28
   104ea:	1f 91       	pop	r17
   104ec:	0f 91       	pop	r16
   104ee:	ff 90       	pop	r15
   104f0:	ef 90       	pop	r14
   104f2:	df 90       	pop	r13
   104f4:	bf 90       	pop	r11
   104f6:	af 90       	pop	r10
   104f8:	9f 90       	pop	r9
   104fa:	8f 90       	pop	r8
   104fc:	7f 90       	pop	r7
   104fe:	6f 90       	pop	r6
   10500:	5f 90       	pop	r5
   10502:	4f 90       	pop	r4
   10504:	08 95       	ret

00010506 <pf_open>:
/*-----------------------------------------------------------------------*/

FRESULT pf_open (
	const char *path	/* Pointer to the file name */
)
{
   10506:	0f 93       	push	r16
   10508:	1f 93       	push	r17
   1050a:	cf 93       	push	r28
   1050c:	df 93       	push	r29
   1050e:	cd b7       	in	r28, 0x3d	; 61
   10510:	de b7       	in	r29, 0x3e	; 62
   10512:	ec 97       	sbiw	r28, 0x3c	; 60
   10514:	0f b6       	in	r0, 0x3f	; 63
   10516:	f8 94       	cli
   10518:	de bf       	out	0x3e, r29	; 62
   1051a:	0f be       	out	0x3f, r0	; 63
   1051c:	cd bf       	out	0x3d, r28	; 61
	FRESULT res;
	DIR dj;
	BYTE sp[12], dir[32];
	FATFS *fs = FatFs;
   1051e:	00 91 04 04 	lds	r16, 0x0404	; 0x800404 <FatFs>
   10522:	10 91 05 04 	lds	r17, 0x0405	; 0x800405 <FatFs+0x1>


	if (!fs)						/* Check file system */
   10526:	01 15       	cp	r16, r1
   10528:	11 05       	cpc	r17, r1
   1052a:	c1 f1       	breq	.+112    	; 0x1059c <pf_open+0x96>
   1052c:	bc 01       	movw	r22, r24
		return FR_NOT_ENABLED;

	fs->flag = 0;
   1052e:	f8 01       	movw	r30, r16
   10530:	12 82       	std	Z+2, r1	; 0x02
	fs->buf = dir;
   10532:	ce 01       	movw	r24, r28
   10534:	4d 96       	adiw	r24, 0x1d	; 29
   10536:	97 83       	std	Z+7, r25	; 0x07
   10538:	86 83       	std	Z+6, r24	; 0x06
	dj.fn = sp;
   1053a:	0c 97       	sbiw	r24, 0x0c	; 12
   1053c:	9c 83       	std	Y+4, r25	; 0x04
   1053e:	8b 83       	std	Y+3, r24	; 0x03
	res = follow_path(&dj, path);	/* Follow the file path */
   10540:	40 97       	sbiw	r24, 0x10	; 16
   10542:	37 de       	rcall	.-914    	; 0x101b2 <follow_path>
	if (res != FR_OK) return res;	/* Follow failed */
   10544:	81 11       	cpse	r24, r1
   10546:	2f c0       	rjmp	.+94     	; 0x105a6 <pf_open+0xa0>
	if (!dir[0] || (dir[DIR_Attr] & AM_DIR))	/* It is a directory */
   10548:	8d 8d       	ldd	r24, Y+29	; 0x1d
   1054a:	88 23       	and	r24, r24
   1054c:	49 f1       	breq	.+82     	; 0x105a0 <pf_open+0x9a>
   1054e:	88 a5       	ldd	r24, Y+40	; 0x28
   10550:	84 fd       	sbrc	r24, 4
   10552:	28 c0       	rjmp	.+80     	; 0x105a4 <pf_open+0x9e>
		return FR_NO_FILE;

	fs->org_clust =						/* File start cluster */
#if _FS_FAT32
		((DWORD)LD_WORD(dir+DIR_FstClusHI) << 16) |
   10554:	89 a9       	ldd	r24, Y+49	; 0x31
   10556:	9a a9       	ldd	r25, Y+50	; 0x32
   10558:	a0 e0       	ldi	r26, 0x00	; 0
   1055a:	b0 e0       	ldi	r27, 0x00	; 0
   1055c:	bc 01       	movw	r22, r24
   1055e:	55 27       	eor	r21, r21
   10560:	44 27       	eor	r20, r20
#endif
		LD_WORD(dir+DIR_FstClusLO);
   10562:	8f a9       	ldd	r24, Y+55	; 0x37
   10564:	98 ad       	ldd	r25, Y+56	; 0x38
	if (!dir[0] || (dir[DIR_Attr] & AM_DIR))	/* It is a directory */
		return FR_NO_FILE;

	fs->org_clust =						/* File start cluster */
#if _FS_FAT32
		((DWORD)LD_WORD(dir+DIR_FstClusHI) << 16) |
   10566:	a0 e0       	ldi	r26, 0x00	; 0
   10568:	b0 e0       	ldi	r27, 0x00	; 0
   1056a:	84 2b       	or	r24, r20
   1056c:	95 2b       	or	r25, r21
   1056e:	a6 2b       	or	r26, r22
   10570:	b7 2b       	or	r27, r23
	res = follow_path(&dj, path);	/* Follow the file path */
	if (res != FR_OK) return res;	/* Follow failed */
	if (!dir[0] || (dir[DIR_Attr] & AM_DIR))	/* It is a directory */
		return FR_NO_FILE;

	fs->org_clust =						/* File start cluster */
   10572:	f8 01       	movw	r30, r16
   10574:	80 a3       	std	Z+32, r24	; 0x20
   10576:	91 a3       	std	Z+33, r25	; 0x21
   10578:	a2 a3       	std	Z+34, r26	; 0x22
   1057a:	b3 a3       	std	Z+35, r27	; 0x23
#if _FS_FAT32
		((DWORD)LD_WORD(dir+DIR_FstClusHI) << 16) |
#endif
		LD_WORD(dir+DIR_FstClusLO);
	fs->fsize = LD_DWORD(dir+DIR_FileSize);	/* File size */
   1057c:	89 ad       	ldd	r24, Y+57	; 0x39
   1057e:	9a ad       	ldd	r25, Y+58	; 0x3a
   10580:	ab ad       	ldd	r26, Y+59	; 0x3b
   10582:	bc ad       	ldd	r27, Y+60	; 0x3c
   10584:	84 8f       	std	Z+28, r24	; 0x1c
   10586:	95 8f       	std	Z+29, r25	; 0x1d
   10588:	a6 8f       	std	Z+30, r26	; 0x1e
   1058a:	b7 8f       	std	Z+31, r27	; 0x1f
	fs->fptr = 0;						/* File pointer */
   1058c:	10 8e       	std	Z+24, r1	; 0x18
   1058e:	11 8e       	std	Z+25, r1	; 0x19
   10590:	12 8e       	std	Z+26, r1	; 0x1a
   10592:	13 8e       	std	Z+27, r1	; 0x1b
	fs->flag = FA_OPENED;
   10594:	81 e0       	ldi	r24, 0x01	; 1
   10596:	82 83       	std	Z+2, r24	; 0x02

	return FR_OK;
   10598:	80 e0       	ldi	r24, 0x00	; 0
   1059a:	05 c0       	rjmp	.+10     	; 0x105a6 <pf_open+0xa0>
	BYTE sp[12], dir[32];
	FATFS *fs = FatFs;


	if (!fs)						/* Check file system */
		return FR_NOT_ENABLED;
   1059c:	86 e0       	ldi	r24, 0x06	; 6
   1059e:	03 c0       	rjmp	.+6      	; 0x105a6 <pf_open+0xa0>
	fs->buf = dir;
	dj.fn = sp;
	res = follow_path(&dj, path);	/* Follow the file path */
	if (res != FR_OK) return res;	/* Follow failed */
	if (!dir[0] || (dir[DIR_Attr] & AM_DIR))	/* It is a directory */
		return FR_NO_FILE;
   105a0:	83 e0       	ldi	r24, 0x03	; 3
   105a2:	01 c0       	rjmp	.+2      	; 0x105a6 <pf_open+0xa0>
   105a4:	83 e0       	ldi	r24, 0x03	; 3
	fs->fsize = LD_DWORD(dir+DIR_FileSize);	/* File size */
	fs->fptr = 0;						/* File pointer */
	fs->flag = FA_OPENED;

	return FR_OK;
}
   105a6:	ec 96       	adiw	r28, 0x3c	; 60
   105a8:	0f b6       	in	r0, 0x3f	; 63
   105aa:	f8 94       	cli
   105ac:	de bf       	out	0x3e, r29	; 62
   105ae:	0f be       	out	0x3f, r0	; 63
   105b0:	cd bf       	out	0x3d, r28	; 61
   105b2:	df 91       	pop	r29
   105b4:	cf 91       	pop	r28
   105b6:	1f 91       	pop	r17
   105b8:	0f 91       	pop	r16
   105ba:	08 95       	ret

000105bc <pf_read>:
FRESULT pf_read (
	void* buff,		/* Pointer to the read buffer (NULL:Forward data to the stream)*/
	WORD btr,		/* Number of bytes to read */
	WORD* br		/* Pointer to number of bytes read */
)
{
   105bc:	2f 92       	push	r2
   105be:	3f 92       	push	r3
   105c0:	4f 92       	push	r4
   105c2:	5f 92       	push	r5
   105c4:	6f 92       	push	r6
   105c6:	7f 92       	push	r7
   105c8:	8f 92       	push	r8
   105ca:	9f 92       	push	r9
   105cc:	af 92       	push	r10
   105ce:	bf 92       	push	r11
   105d0:	cf 92       	push	r12
   105d2:	df 92       	push	r13
   105d4:	ef 92       	push	r14
   105d6:	ff 92       	push	r15
   105d8:	0f 93       	push	r16
   105da:	1f 93       	push	r17
   105dc:	cf 93       	push	r28
   105de:	df 93       	push	r29
   105e0:	3c 01       	movw	r6, r24
   105e2:	6b 01       	movw	r12, r22
   105e4:	4a 01       	movw	r8, r20
	DRESULT dr;
	CLUST clst;
	DWORD sect, remain;
	BYTE *rbuff = buff;
	WORD rcnt;
	FATFS *fs = FatFs;
   105e6:	e0 90 04 04 	lds	r14, 0x0404	; 0x800404 <FatFs>
   105ea:	f0 90 05 04 	lds	r15, 0x0405	; 0x800405 <FatFs+0x1>


	*br = 0;
   105ee:	fa 01       	movw	r30, r20
   105f0:	11 82       	std	Z+1, r1	; 0x01
   105f2:	10 82       	st	Z, r1
	if (!fs) return FR_NOT_ENABLED;		/* Check file system */
   105f4:	e1 14       	cp	r14, r1
   105f6:	f1 04       	cpc	r15, r1
   105f8:	09 f4       	brne	.+2      	; 0x105fc <pf_read+0x40>
   105fa:	b8 c0       	rjmp	.+368    	; 0x1076c <pf_read+0x1b0>
	if (!(fs->flag & FA_OPENED))		/* Check if opened */
   105fc:	f7 01       	movw	r30, r14
   105fe:	82 81       	ldd	r24, Z+2	; 0x02
   10600:	80 ff       	sbrs	r24, 0
   10602:	b6 c0       	rjmp	.+364    	; 0x10770 <pf_read+0x1b4>
		return FR_NOT_OPENED;

	remain = fs->fsize - fs->fptr;
   10604:	84 8d       	ldd	r24, Z+28	; 0x1c
   10606:	95 8d       	ldd	r25, Z+29	; 0x1d
   10608:	a6 8d       	ldd	r26, Z+30	; 0x1e
   1060a:	b7 8d       	ldd	r27, Z+31	; 0x1f
   1060c:	40 8d       	ldd	r20, Z+24	; 0x18
   1060e:	51 8d       	ldd	r21, Z+25	; 0x19
   10610:	62 8d       	ldd	r22, Z+26	; 0x1a
   10612:	73 8d       	ldd	r23, Z+27	; 0x1b
   10614:	84 1b       	sub	r24, r20
   10616:	95 0b       	sbc	r25, r21
   10618:	a6 0b       	sbc	r26, r22
   1061a:	b7 0b       	sbc	r27, r23
	if (btr > remain) btr = (WORD)remain;			/* Truncate btr by remaining bytes */
   1061c:	a6 01       	movw	r20, r12
   1061e:	60 e0       	ldi	r22, 0x00	; 0
   10620:	70 e0       	ldi	r23, 0x00	; 0
   10622:	84 17       	cp	r24, r20
   10624:	95 07       	cpc	r25, r21
   10626:	a6 07       	cpc	r26, r22
   10628:	b7 07       	cpc	r27, r23
   1062a:	08 f4       	brcc	.+2      	; 0x1062e <pf_read+0x72>
   1062c:	6c 01       	movw	r12, r24
			if (!sect) goto fr_abort;
			fs->dsect = sect + fs->csect++;
		}
		rcnt = 512 - ((WORD)fs->fptr % 512);		/* Get partial sector data from sector buffer */
		if (rcnt > btr) rcnt = btr;
		dr = disk_readp(!buff ? 0 : rbuff, fs->dsect, (WORD)(fs->fptr % 512), rcnt);
   1062e:	53 01       	movw	r10, r6
   10630:	93 c0       	rjmp	.+294    	; 0x10758 <pf_read+0x19c>

	remain = fs->fsize - fs->fptr;
	if (btr > remain) btr = (WORD)remain;			/* Truncate btr by remaining bytes */

	while (btr)	{									/* Repeat until all data transferred */
		if ((fs->fptr % 512) == 0) {				/* On the sector boundary? */
   10632:	f7 01       	movw	r30, r14
   10634:	20 8c       	ldd	r2, Z+24	; 0x18
   10636:	31 8c       	ldd	r3, Z+25	; 0x19
   10638:	42 8c       	ldd	r4, Z+26	; 0x1a
   1063a:	53 8c       	ldd	r5, Z+27	; 0x1b
   1063c:	d2 01       	movw	r26, r4
   1063e:	c1 01       	movw	r24, r2
   10640:	91 70       	andi	r25, 0x01	; 1
   10642:	aa 27       	eor	r26, r26
   10644:	bb 27       	eor	r27, r27
   10646:	89 2b       	or	r24, r25
   10648:	8a 2b       	or	r24, r26
   1064a:	8b 2b       	or	r24, r27
   1064c:	09 f0       	breq	.+2      	; 0x10650 <pf_read+0x94>
   1064e:	4c c0       	rjmp	.+152    	; 0x106e8 <pf_read+0x12c>
			if ((fs->fptr / 512 % fs->csize) == 0) {	/* On the cluster boundary? */
   10650:	21 81       	ldd	r18, Z+1	; 0x01
   10652:	30 e0       	ldi	r19, 0x00	; 0
   10654:	40 e0       	ldi	r20, 0x00	; 0
   10656:	50 e0       	ldi	r21, 0x00	; 0
   10658:	c2 01       	movw	r24, r4
   1065a:	b1 01       	movw	r22, r2
   1065c:	05 2e       	mov	r0, r21
   1065e:	59 e0       	ldi	r21, 0x09	; 9
   10660:	96 95       	lsr	r25
   10662:	87 95       	ror	r24
   10664:	77 95       	ror	r23
   10666:	67 95       	ror	r22
   10668:	5a 95       	dec	r21
   1066a:	d1 f7       	brne	.-12     	; 0x10660 <pf_read+0xa4>
   1066c:	50 2d       	mov	r21, r0
   1066e:	0e 94 64 9d 	call	0x13ac8	; 0x13ac8 <__udivmodsi4>
   10672:	67 2b       	or	r22, r23
   10674:	68 2b       	or	r22, r24
   10676:	69 2b       	or	r22, r25
   10678:	e1 f4       	brne	.+56     	; 0x106b2 <pf_read+0xf6>
				clst = (fs->fptr == 0) ?			/* On the top of the file? */
					fs->org_clust : get_fat(fs->curr_clust);
   1067a:	23 28       	or	r2, r3
   1067c:	24 28       	or	r2, r4
   1067e:	25 28       	or	r2, r5
   10680:	31 f4       	brne	.+12     	; 0x1068e <pf_read+0xd2>
   10682:	f7 01       	movw	r30, r14
   10684:	60 a1       	ldd	r22, Z+32	; 0x20
   10686:	71 a1       	ldd	r23, Z+33	; 0x21
   10688:	82 a1       	ldd	r24, Z+34	; 0x22
   1068a:	93 a1       	ldd	r25, Z+35	; 0x23
   1068c:	06 c0       	rjmp	.+12     	; 0x1069a <pf_read+0xde>
   1068e:	f7 01       	movw	r30, r14
   10690:	64 a1       	ldd	r22, Z+36	; 0x24
   10692:	75 a1       	ldd	r23, Z+37	; 0x25
   10694:	86 a1       	ldd	r24, Z+38	; 0x26
   10696:	97 a1       	ldd	r25, Z+39	; 0x27
   10698:	ac db       	rcall	.-2216   	; 0xfdf2 <get_fat>
				if (clst <= 1) goto fr_abort;
   1069a:	62 30       	cpi	r22, 0x02	; 2
   1069c:	71 05       	cpc	r23, r1
   1069e:	81 05       	cpc	r24, r1
   106a0:	91 05       	cpc	r25, r1
   106a2:	08 f4       	brcc	.+2      	; 0x106a6 <pf_read+0xea>
   106a4:	5f c0       	rjmp	.+190    	; 0x10764 <pf_read+0x1a8>
				fs->curr_clust = clst;				/* Update current cluster */
   106a6:	f7 01       	movw	r30, r14
   106a8:	64 a3       	std	Z+36, r22	; 0x24
   106aa:	75 a3       	std	Z+37, r23	; 0x25
   106ac:	86 a3       	std	Z+38, r24	; 0x26
   106ae:	97 a3       	std	Z+39, r25	; 0x27
				fs->csect = 0;						/* Reset sector offset in the cluster */
   106b0:	13 82       	std	Z+3, r1	; 0x03
			}
			sect = clust2sect(fs->curr_clust);		/* Get current sector */
   106b2:	f7 01       	movw	r30, r14
   106b4:	64 a1       	ldd	r22, Z+36	; 0x24
   106b6:	75 a1       	ldd	r23, Z+37	; 0x25
   106b8:	86 a1       	ldd	r24, Z+38	; 0x26
   106ba:	97 a1       	ldd	r25, Z+39	; 0x27
   106bc:	96 da       	rcall	.-2772   	; 0xfbea <clust2sect>
			if (!sect) goto fr_abort;
   106be:	61 15       	cp	r22, r1
   106c0:	71 05       	cpc	r23, r1
   106c2:	81 05       	cpc	r24, r1
   106c4:	91 05       	cpc	r25, r1
   106c6:	09 f4       	brne	.+2      	; 0x106ca <pf_read+0x10e>
   106c8:	4d c0       	rjmp	.+154    	; 0x10764 <pf_read+0x1a8>
			fs->dsect = sect + fs->csect++;
   106ca:	f7 01       	movw	r30, r14
   106cc:	23 81       	ldd	r18, Z+3	; 0x03
   106ce:	31 e0       	ldi	r19, 0x01	; 1
   106d0:	32 0f       	add	r19, r18
   106d2:	33 83       	std	Z+3, r19	; 0x03
   106d4:	dc 01       	movw	r26, r24
   106d6:	cb 01       	movw	r24, r22
   106d8:	82 0f       	add	r24, r18
   106da:	91 1d       	adc	r25, r1
   106dc:	a1 1d       	adc	r26, r1
   106de:	b1 1d       	adc	r27, r1
   106e0:	80 a7       	std	Z+40, r24	; 0x28
   106e2:	91 a7       	std	Z+41, r25	; 0x29
   106e4:	a2 a7       	std	Z+42, r26	; 0x2a
   106e6:	b3 a7       	std	Z+43, r27	; 0x2b
		}
		rcnt = 512 - ((WORD)fs->fptr % 512);		/* Get partial sector data from sector buffer */
   106e8:	f7 01       	movw	r30, r14
   106ea:	80 8d       	ldd	r24, Z+24	; 0x18
   106ec:	91 8d       	ldd	r25, Z+25	; 0x19
   106ee:	a2 8d       	ldd	r26, Z+26	; 0x1a
   106f0:	b3 8d       	ldd	r27, Z+27	; 0x1b
   106f2:	9c 01       	movw	r18, r24
   106f4:	31 70       	andi	r19, 0x01	; 1
   106f6:	c0 e0       	ldi	r28, 0x00	; 0
   106f8:	d2 e0       	ldi	r29, 0x02	; 2
   106fa:	c2 1b       	sub	r28, r18
   106fc:	d3 0b       	sbc	r29, r19
		if (rcnt > btr) rcnt = btr;
   106fe:	cc 16       	cp	r12, r28
   10700:	dd 06       	cpc	r13, r29
   10702:	08 f4       	brcc	.+2      	; 0x10706 <pf_read+0x14a>
   10704:	e6 01       	movw	r28, r12
		dr = disk_readp(!buff ? 0 : rbuff, fs->dsect, (WORD)(fs->fptr % 512), rcnt);
   10706:	f7 01       	movw	r30, r14
   10708:	40 a5       	ldd	r20, Z+40	; 0x28
   1070a:	51 a5       	ldd	r21, Z+41	; 0x29
   1070c:	62 a5       	ldd	r22, Z+42	; 0x2a
   1070e:	73 a5       	ldd	r23, Z+43	; 0x2b
   10710:	61 14       	cp	r6, r1
   10712:	71 04       	cpc	r7, r1
   10714:	19 f4       	brne	.+6      	; 0x1071c <pf_read+0x160>
   10716:	80 e0       	ldi	r24, 0x00	; 0
   10718:	90 e0       	ldi	r25, 0x00	; 0
   1071a:	02 c0       	rjmp	.+4      	; 0x10720 <pf_read+0x164>
   1071c:	8a 2d       	mov	r24, r10
   1071e:	9b 2d       	mov	r25, r11
   10720:	8e 01       	movw	r16, r28
   10722:	1d d8       	rcall	.-4038   	; 0xf75e <disk_readp>
		if (dr) goto fr_abort;
   10724:	81 11       	cpse	r24, r1
   10726:	1e c0       	rjmp	.+60     	; 0x10764 <pf_read+0x1a8>
		fs->fptr += rcnt; rbuff += rcnt;			/* Update pointers and counters */
   10728:	f7 01       	movw	r30, r14
   1072a:	80 8d       	ldd	r24, Z+24	; 0x18
   1072c:	91 8d       	ldd	r25, Z+25	; 0x19
   1072e:	a2 8d       	ldd	r26, Z+26	; 0x1a
   10730:	b3 8d       	ldd	r27, Z+27	; 0x1b
   10732:	8c 0f       	add	r24, r28
   10734:	9d 1f       	adc	r25, r29
   10736:	a1 1d       	adc	r26, r1
   10738:	b1 1d       	adc	r27, r1
   1073a:	80 8f       	std	Z+24, r24	; 0x18
   1073c:	91 8f       	std	Z+25, r25	; 0x19
   1073e:	a2 8f       	std	Z+26, r26	; 0x1a
   10740:	b3 8f       	std	Z+27, r27	; 0x1b
   10742:	ac 0e       	add	r10, r28
   10744:	bd 1e       	adc	r11, r29
		btr -= rcnt; *br += rcnt;
   10746:	cc 1a       	sub	r12, r28
   10748:	dd 0a       	sbc	r13, r29
   1074a:	f4 01       	movw	r30, r8
   1074c:	80 81       	ld	r24, Z
   1074e:	91 81       	ldd	r25, Z+1	; 0x01
   10750:	c8 0f       	add	r28, r24
   10752:	d9 1f       	adc	r29, r25
   10754:	d1 83       	std	Z+1, r29	; 0x01
   10756:	c0 83       	st	Z, r28
		return FR_NOT_OPENED;

	remain = fs->fsize - fs->fptr;
	if (btr > remain) btr = (WORD)remain;			/* Truncate btr by remaining bytes */

	while (btr)	{									/* Repeat until all data transferred */
   10758:	c1 14       	cp	r12, r1
   1075a:	d1 04       	cpc	r13, r1
   1075c:	09 f0       	breq	.+2      	; 0x10760 <pf_read+0x1a4>
   1075e:	69 cf       	rjmp	.-302    	; 0x10632 <pf_read+0x76>
		if (dr) goto fr_abort;
		fs->fptr += rcnt; rbuff += rcnt;			/* Update pointers and counters */
		btr -= rcnt; *br += rcnt;
	}

	return FR_OK;
   10760:	80 e0       	ldi	r24, 0x00	; 0
   10762:	07 c0       	rjmp	.+14     	; 0x10772 <pf_read+0x1b6>

fr_abort:
	fs->flag = 0;
   10764:	f7 01       	movw	r30, r14
   10766:	12 82       	std	Z+2, r1	; 0x02
	return FR_DISK_ERR;
   10768:	81 e0       	ldi	r24, 0x01	; 1
   1076a:	03 c0       	rjmp	.+6      	; 0x10772 <pf_read+0x1b6>
	WORD rcnt;
	FATFS *fs = FatFs;


	*br = 0;
	if (!fs) return FR_NOT_ENABLED;		/* Check file system */
   1076c:	86 e0       	ldi	r24, 0x06	; 6
   1076e:	01 c0       	rjmp	.+2      	; 0x10772 <pf_read+0x1b6>
	if (!(fs->flag & FA_OPENED))		/* Check if opened */
		return FR_NOT_OPENED;
   10770:	85 e0       	ldi	r24, 0x05	; 5
	return FR_OK;

fr_abort:
	fs->flag = 0;
	return FR_DISK_ERR;
}
   10772:	df 91       	pop	r29
   10774:	cf 91       	pop	r28
   10776:	1f 91       	pop	r17
   10778:	0f 91       	pop	r16
   1077a:	ff 90       	pop	r15
   1077c:	ef 90       	pop	r14
   1077e:	df 90       	pop	r13
   10780:	cf 90       	pop	r12
   10782:	bf 90       	pop	r11
   10784:	af 90       	pop	r10
   10786:	9f 90       	pop	r9
   10788:	8f 90       	pop	r8
   1078a:	7f 90       	pop	r7
   1078c:	6f 90       	pop	r6
   1078e:	5f 90       	pop	r5
   10790:	4f 90       	pop	r4
   10792:	3f 90       	pop	r3
   10794:	2f 90       	pop	r2
   10796:	08 95       	ret

00010798 <RTC_ConvertFromDec>:
	unsigned char ch = ((c/10)<<4)|(c%10);
	return ch;
}
unsigned char RTC_ConvertFromDec(unsigned char c)//   
{
	unsigned char ch = ((c>>4)*10+(0b00001111&c));
   10798:	98 2f       	mov	r25, r24
   1079a:	92 95       	swap	r25
   1079c:	9f 70       	andi	r25, 0x0F	; 15
   1079e:	99 0f       	add	r25, r25
   107a0:	29 2f       	mov	r18, r25
   107a2:	22 0f       	add	r18, r18
   107a4:	22 0f       	add	r18, r18
   107a6:	92 0f       	add	r25, r18
   107a8:	8f 70       	andi	r24, 0x0F	; 15
	return ch;
}
   107aa:	89 0f       	add	r24, r25
   107ac:	08 95       	ret

000107ae <RTC_init>:
//   
void RTC_init(void){
	I2C_StartCondition();               //  i2c
   107ae:	0e d0       	rcall	.+28     	; 0x107cc <I2C_StartCondition>
	I2C_SendByte(0b11010000);   //   ,  
   107b0:	80 ed       	ldi	r24, 0xD0	; 208
   107b2:	18 d0       	rcall	.+48     	; 0x107e4 <I2C_SendByte>
	I2C_SendByte(0x0E);            //   
   107b4:	8e e0       	ldi	r24, 0x0E	; 14
   107b6:	16 d0       	rcall	.+44     	; 0x107e4 <I2C_SendByte>
	I2C_SendByte(0b00100000);      //       1 
   107b8:	80 e2       	ldi	r24, 0x20	; 32
	I2C_SendByte(0b00001000);      //   32 
   107ba:	14 d0       	rcall	.+40     	; 0x107e4 <I2C_SendByte>
   107bc:	88 e0       	ldi	r24, 0x08	; 8
   107be:	12 d0       	rcall	.+36     	; 0x107e4 <I2C_SendByte>
	I2C_StopCondition();                //  i2c
   107c0:	0d c0       	rjmp	.+26     	; 0x107dc <I2C_StopCondition>
   107c2:	08 95       	ret

000107c4 <I2C_Init>:
   107c4:	80 e2       	ldi	r24, 0x20	; 32
{
    I2C_StartCondition(); //   START
	I2C_SendByte(addr); //      +  -
	I2C_SendByte(c);//   
	I2C_StopCondition();//   STOP
}
   107c6:	80 93 b8 00 	sts	0x00B8, r24	; 0x8000b8 <__TEXT_REGION_LENGTH__+0x7c00b8>
   107ca:	08 95       	ret

000107cc <I2C_StartCondition>:
   107cc:	84 ea       	ldi	r24, 0xA4	; 164
   107ce:	80 93 bc 00 	sts	0x00BC, r24	; 0x8000bc <__TEXT_REGION_LENGTH__+0x7c00bc>
   107d2:	80 91 bc 00 	lds	r24, 0x00BC	; 0x8000bc <__TEXT_REGION_LENGTH__+0x7c00bc>
   107d6:	88 23       	and	r24, r24
   107d8:	e4 f7       	brge	.-8      	; 0x107d2 <I2C_StartCondition+0x6>
   107da:	08 95       	ret

000107dc <I2C_StopCondition>:
   107dc:	84 e9       	ldi	r24, 0x94	; 148
   107de:	80 93 bc 00 	sts	0x00BC, r24	; 0x8000bc <__TEXT_REGION_LENGTH__+0x7c00bc>
   107e2:	08 95       	ret

000107e4 <I2C_SendByte>:
   107e4:	80 93 bb 00 	sts	0x00BB, r24	; 0x8000bb <__TEXT_REGION_LENGTH__+0x7c00bb>
   107e8:	84 e8       	ldi	r24, 0x84	; 132
   107ea:	80 93 bc 00 	sts	0x00BC, r24	; 0x8000bc <__TEXT_REGION_LENGTH__+0x7c00bc>
   107ee:	80 91 bc 00 	lds	r24, 0x00BC	; 0x8000bc <__TEXT_REGION_LENGTH__+0x7c00bc>
   107f2:	88 23       	and	r24, r24
   107f4:	e4 f7       	brge	.-8      	; 0x107ee <I2C_SendByte+0xa>
   107f6:	08 95       	ret

000107f8 <I2C_ReadByte>:
unsigned char I2C_ReadByte(void)
{
	TWCR = (1<<TWINT)|(1<<TWEN)|(1<<TWEA);
   107f8:	84 ec       	ldi	r24, 0xC4	; 196
   107fa:	80 93 bc 00 	sts	0x00BC, r24	; 0x8000bc <__TEXT_REGION_LENGTH__+0x7c00bc>
	while (!(TWCR & (1<<TWINT)));//   TWIN
   107fe:	80 91 bc 00 	lds	r24, 0x00BC	; 0x8000bc <__TEXT_REGION_LENGTH__+0x7c00bc>
   10802:	88 23       	and	r24, r24
   10804:	e4 f7       	brge	.-8      	; 0x107fe <I2C_ReadByte+0x6>
	return TWDR;//  
   10806:	80 91 bb 00 	lds	r24, 0x00BB	; 0x8000bb <__TEXT_REGION_LENGTH__+0x7c00bb>
}
   1080a:	08 95       	ret

0001080c <I2C_ReadLastByte>:
unsigned char I2C_ReadLastByte(void)
{
	TWCR = (1<<TWINT)|(1<<TWEN);
   1080c:	84 e8       	ldi	r24, 0x84	; 132
   1080e:	80 93 bc 00 	sts	0x00BC, r24	; 0x8000bc <__TEXT_REGION_LENGTH__+0x7c00bc>
	while (!(TWCR & (1<<TWINT)));//   TWIN
   10812:	80 91 bc 00 	lds	r24, 0x00BC	; 0x8000bc <__TEXT_REGION_LENGTH__+0x7c00bc>
   10816:	88 23       	and	r24, r24
   10818:	e4 f7       	brge	.-8      	; 0x10812 <I2C_ReadLastByte+0x6>
	return TWDR;//  
   1081a:	80 91 bb 00 	lds	r24, 0x00BB	; 0x8000bb <__TEXT_REGION_LENGTH__+0x7c00bb>
   1081e:	08 95       	ret

00010820 <USART_Init>:

extern uint8_t rx_flag;

void USART_Init( unsigned int speed)//  USART
{	
  UBRR0H = (unsigned char)(speed>>8);
   10820:	90 93 c5 00 	sts	0x00C5, r25	; 0x8000c5 <__TEXT_REGION_LENGTH__+0x7c00c5>
  UBRR0L = (unsigned char)speed;
   10824:	80 93 c4 00 	sts	0x00C4, r24	; 0x8000c4 <__TEXT_REGION_LENGTH__+0x7c00c4>
  UCSR0B |= (1<<RXEN0)|( 1<<TXEN0); //     USART
   10828:	e1 ec       	ldi	r30, 0xC1	; 193
   1082a:	f0 e0       	ldi	r31, 0x00	; 0
   1082c:	80 81       	ld	r24, Z
   1082e:	88 61       	ori	r24, 0x18	; 24
   10830:	80 83       	st	Z, r24
  //UCSR0B |= (1<<RXCIE0); //   
  UCSR0A |= (1<<U2X0); //  8 ,  
   10832:	e0 ec       	ldi	r30, 0xC0	; 192
   10834:	f0 e0       	ldi	r31, 0x00	; 0
   10836:	80 81       	ld	r24, Z
   10838:	82 60       	ori	r24, 0x02	; 2
   1083a:	80 83       	st	Z, r24
  UCSR0C |= (1<<USBS0)|(1<<UCSZ01)|(1<<UCSZ00);//     UCSRC (URSEL=1),
   1083c:	e2 ec       	ldi	r30, 0xC2	; 194
   1083e:	f0 e0       	ldi	r31, 0x00	; 0
   10840:	80 81       	ld	r24, Z
   10842:	8e 60       	ori	r24, 0x0E	; 14
   10844:	80 83       	st	Z, r24
   10846:	08 95       	ret

00010848 <Print_Hello_World>:
		n = 0;
	}
	speed = 2*314*RADIUS*n/4; // 2 +2 
	
	return speed;
}
   10848:	80 e0       	ldi	r24, 0x00	; 0
   1084a:	90 e0       	ldi	r25, 0x00	; 0
   1084c:	0e 94 b8 6b 	call	0xd770	; 0xd770 <ILI9486_FillScreen>
   10850:	81 e0       	ldi	r24, 0x01	; 1
   10852:	0e 94 67 69 	call	0xd2ce	; 0xd2ce <ILI9486_SetRotation>
   10856:	60 e0       	ldi	r22, 0x00	; 0
   10858:	70 e0       	ldi	r23, 0x00	; 0
   1085a:	8f ef       	ldi	r24, 0xFF	; 255
   1085c:	9f ef       	ldi	r25, 0xFF	; 255
   1085e:	0e 94 00 71 	call	0xe200	; 0xe200 <ILI9486_SetTextColor>
   10862:	60 e5       	ldi	r22, 0x50	; 80
   10864:	70 e0       	ldi	r23, 0x00	; 0
   10866:	88 e2       	ldi	r24, 0x28	; 40
   10868:	90 e0       	ldi	r25, 0x00	; 0
   1086a:	0e 94 52 75 	call	0xeaa4	; 0xeaa4 <ILI9486_SetCursor>
   1086e:	61 e0       	ldi	r22, 0x01	; 1
   10870:	8e e4       	ldi	r24, 0x4E	; 78
   10872:	92 e0       	ldi	r25, 0x02	; 2
   10874:	0e 94 3d 76 	call	0xec7a	; 0xec7a <ILI9486_Print_String32x32>
   10878:	a8 95       	wdr
   1087a:	66 e9       	ldi	r22, 0x96	; 150
   1087c:	70 e0       	ldi	r23, 0x00	; 0
   1087e:	84 e1       	ldi	r24, 0x14	; 20
   10880:	90 e0       	ldi	r25, 0x00	; 0
   10882:	0e 94 52 75 	call	0xeaa4	; 0xeaa4 <ILI9486_SetCursor>
   10886:	61 e0       	ldi	r22, 0x01	; 1
   10888:	8f e5       	ldi	r24, 0x5F	; 95
   1088a:	92 e0       	ldi	r25, 0x02	; 2
   1088c:	0e 94 3d 76 	call	0xec7a	; 0xec7a <ILI9486_Print_String32x32>
   10890:	a8 95       	wdr
   10892:	a8 95       	wdr
   10894:	08 95       	ret

00010896 <Print_Boards_Main>:
   10896:	2f 92       	push	r2
   10898:	3f 92       	push	r3
   1089a:	4f 92       	push	r4
   1089c:	5f 92       	push	r5
   1089e:	6f 92       	push	r6
   108a0:	7f 92       	push	r7
   108a2:	8f 92       	push	r8
   108a4:	9f 92       	push	r9
   108a6:	af 92       	push	r10
   108a8:	bf 92       	push	r11
   108aa:	cf 92       	push	r12
   108ac:	df 92       	push	r13
   108ae:	ef 92       	push	r14
   108b0:	ff 92       	push	r15
   108b2:	0f 93       	push	r16
   108b4:	1f 93       	push	r17
   108b6:	cf 93       	push	r28
   108b8:	df 93       	push	r29
   108ba:	0f ef       	ldi	r16, 0xFF	; 255
   108bc:	1f ef       	ldi	r17, 0xFF	; 255
   108be:	21 e0       	ldi	r18, 0x01	; 1
   108c0:	30 e0       	ldi	r19, 0x00	; 0
   108c2:	40 ed       	ldi	r20, 0xD0	; 208
   108c4:	51 e0       	ldi	r21, 0x01	; 1
   108c6:	61 e0       	ldi	r22, 0x01	; 1
   108c8:	70 e0       	ldi	r23, 0x00	; 0
   108ca:	8f e0       	ldi	r24, 0x0F	; 15
   108cc:	90 e0       	ldi	r25, 0x00	; 0
   108ce:	0e 94 72 6d 	call	0xdae4	; 0xdae4 <ILI9486_Draw_Line>
   108d2:	0f 2e       	mov	r0, r31
   108d4:	fe e0       	ldi	r31, 0x0E	; 14
   108d6:	cf 2e       	mov	r12, r31
   108d8:	d1 2c       	mov	r13, r1
   108da:	f0 2d       	mov	r31, r0
   108dc:	e1 2c       	mov	r14, r1
   108de:	f1 2c       	mov	r15, r1
   108e0:	0f 2e       	mov	r0, r31
   108e2:	f4 ee       	ldi	r31, 0xE4	; 228
   108e4:	8f 2e       	mov	r8, r31
   108e6:	99 24       	eor	r9, r9
   108e8:	9a 94       	dec	r9
   108ea:	f0 2d       	mov	r31, r0
   108ec:	aa 24       	eor	r10, r10
   108ee:	a3 94       	inc	r10
   108f0:	b1 2c       	mov	r11, r1
   108f2:	03 ef       	ldi	r16, 0xF3	; 243
   108f4:	1f ef       	ldi	r17, 0xFF	; 255
   108f6:	25 c0       	rjmp	.+74     	; 0x10942 <Print_Boards_Main+0xac>
   108f8:	11 23       	and	r17, r17
   108fa:	44 f0       	brlt	.+16     	; 0x1090c <Print_Boards_Main+0x76>
   108fc:	21 e0       	ldi	r18, 0x01	; 1
   108fe:	c2 1a       	sub	r12, r18
   10900:	d1 08       	sbc	r13, r1
   10902:	82 e0       	ldi	r24, 0x02	; 2
   10904:	88 0e       	add	r8, r24
   10906:	91 1c       	adc	r9, r1
   10908:	08 0d       	add	r16, r8
   1090a:	19 1d       	adc	r17, r9
   1090c:	2f ef       	ldi	r18, 0xFF	; 255
   1090e:	e2 1a       	sub	r14, r18
   10910:	f2 0a       	sbc	r15, r18
   10912:	82 e0       	ldi	r24, 0x02	; 2
   10914:	a8 0e       	add	r10, r24
   10916:	b1 1c       	adc	r11, r1
   10918:	0a 0d       	add	r16, r10
   1091a:	1b 1d       	adc	r17, r11
   1091c:	cf e0       	ldi	r28, 0x0F	; 15
   1091e:	d0 e0       	ldi	r29, 0x00	; 0
   10920:	3e 01       	movw	r6, r28
   10922:	6c 18       	sub	r6, r12
   10924:	7d 08       	sbc	r7, r13
   10926:	ce 19       	sub	r28, r14
   10928:	df 09       	sbc	r29, r15
   1092a:	4f ef       	ldi	r20, 0xFF	; 255
   1092c:	5f ef       	ldi	r21, 0xFF	; 255
   1092e:	b3 01       	movw	r22, r6
   10930:	ce 01       	movw	r24, r28
   10932:	0e 94 ab 6b 	call	0xd756	; 0xd756 <ILI9486_drawPixel>
   10936:	4f ef       	ldi	r20, 0xFF	; 255
   10938:	5f ef       	ldi	r21, 0xFF	; 255
   1093a:	be 01       	movw	r22, r28
   1093c:	c3 01       	movw	r24, r6
   1093e:	0e 94 ab 6b 	call	0xd756	; 0xd756 <ILI9486_drawPixel>
   10942:	ec 14       	cp	r14, r12
   10944:	fd 04       	cpc	r15, r13
   10946:	c4 f2       	brlt	.-80     	; 0x108f8 <Print_Boards_Main+0x62>
   10948:	0f ef       	ldi	r16, 0xFF	; 255
   1094a:	1f ef       	ldi	r17, 0xFF	; 255
   1094c:	20 e3       	ldi	r18, 0x30	; 48
   1094e:	31 e0       	ldi	r19, 0x01	; 1
   10950:	4e ed       	ldi	r20, 0xDE	; 222
   10952:	51 e0       	ldi	r21, 0x01	; 1
   10954:	6f e0       	ldi	r22, 0x0F	; 15
   10956:	70 e0       	ldi	r23, 0x00	; 0
   10958:	8e ed       	ldi	r24, 0xDE	; 222
   1095a:	91 e0       	ldi	r25, 0x01	; 1
   1095c:	0e 94 72 6d 	call	0xdae4	; 0xdae4 <ILI9486_Draw_Line>
   10960:	0e e0       	ldi	r16, 0x0E	; 14
   10962:	10 e0       	ldi	r17, 0x00	; 0
   10964:	80 e0       	ldi	r24, 0x00	; 0
   10966:	90 e0       	ldi	r25, 0x00	; 0
   10968:	0f 2e       	mov	r0, r31
   1096a:	f4 ee       	ldi	r31, 0xE4	; 228
   1096c:	8f 2e       	mov	r8, r31
   1096e:	99 24       	eor	r9, r9
   10970:	9a 94       	dec	r9
   10972:	f0 2d       	mov	r31, r0
   10974:	cc 24       	eor	r12, r12
   10976:	c3 94       	inc	r12
   10978:	d1 2c       	mov	r13, r1
   1097a:	0f 2e       	mov	r0, r31
   1097c:	f3 ef       	ldi	r31, 0xF3	; 243
   1097e:	ef 2e       	mov	r14, r31
   10980:	ff 24       	eor	r15, r15
   10982:	fa 94       	dec	r15
   10984:	f0 2d       	mov	r31, r0
   10986:	28 c0       	rjmp	.+80     	; 0x109d8 <Print_Boards_Main+0x142>
   10988:	ff 20       	and	r15, r15
   1098a:	3c f0       	brlt	.+14     	; 0x1099a <Print_Boards_Main+0x104>
   1098c:	01 50       	subi	r16, 0x01	; 1
   1098e:	11 09       	sbc	r17, r1
   10990:	22 e0       	ldi	r18, 0x02	; 2
   10992:	82 0e       	add	r8, r18
   10994:	91 1c       	adc	r9, r1
   10996:	e8 0c       	add	r14, r8
   10998:	f9 1c       	adc	r15, r9
   1099a:	5c 01       	movw	r10, r24
   1099c:	2f ef       	ldi	r18, 0xFF	; 255
   1099e:	a2 1a       	sub	r10, r18
   109a0:	b2 0a       	sbc	r11, r18
   109a2:	22 e0       	ldi	r18, 0x02	; 2
   109a4:	c2 0e       	add	r12, r18
   109a6:	d1 1c       	adc	r13, r1
   109a8:	ec 0c       	add	r14, r12
   109aa:	fd 1c       	adc	r15, r13
   109ac:	cf e0       	ldi	r28, 0x0F	; 15
   109ae:	d0 e0       	ldi	r29, 0x00	; 0
   109b0:	be 01       	movw	r22, r28
   109b2:	60 1b       	sub	r22, r16
   109b4:	71 0b       	sbc	r23, r17
   109b6:	4f ef       	ldi	r20, 0xFF	; 255
   109b8:	5f ef       	ldi	r21, 0xFF	; 255
   109ba:	8f 52       	subi	r24, 0x2F	; 47
   109bc:	9e 4f       	sbci	r25, 0xFE	; 254
   109be:	0e 94 ab 6b 	call	0xd756	; 0xd756 <ILI9486_drawPixel>
   109c2:	be 01       	movw	r22, r28
   109c4:	6a 19       	sub	r22, r10
   109c6:	7b 09       	sbc	r23, r11
   109c8:	4f ef       	ldi	r20, 0xFF	; 255
   109ca:	5f ef       	ldi	r21, 0xFF	; 255
   109cc:	c8 01       	movw	r24, r16
   109ce:	80 53       	subi	r24, 0x30	; 48
   109d0:	9e 4f       	sbci	r25, 0xFE	; 254
   109d2:	0e 94 ab 6b 	call	0xd756	; 0xd756 <ILI9486_drawPixel>
   109d6:	c5 01       	movw	r24, r10
   109d8:	80 17       	cp	r24, r16
   109da:	91 07       	cpc	r25, r17
   109dc:	ac f2       	brlt	.-86     	; 0x10988 <Print_Boards_Main+0xf2>
   109de:	0f ef       	ldi	r16, 0xFF	; 255
   109e0:	1f ef       	ldi	r17, 0xFF	; 255
   109e2:	20 e3       	ldi	r18, 0x30	; 48
   109e4:	31 e0       	ldi	r19, 0x01	; 1
   109e6:	41 e0       	ldi	r20, 0x01	; 1
   109e8:	50 e0       	ldi	r21, 0x00	; 0
   109ea:	6f e0       	ldi	r22, 0x0F	; 15
   109ec:	70 e0       	ldi	r23, 0x00	; 0
   109ee:	81 e0       	ldi	r24, 0x01	; 1
   109f0:	90 e0       	ldi	r25, 0x00	; 0
   109f2:	0e 94 72 6d 	call	0xdae4	; 0xdae4 <ILI9486_Draw_Line>
   109f6:	0e e0       	ldi	r16, 0x0E	; 14
   109f8:	10 e0       	ldi	r17, 0x00	; 0
   109fa:	c0 e0       	ldi	r28, 0x00	; 0
   109fc:	d0 e0       	ldi	r29, 0x00	; 0
   109fe:	0f 2e       	mov	r0, r31
   10a00:	f4 ee       	ldi	r31, 0xE4	; 228
   10a02:	8f 2e       	mov	r8, r31
   10a04:	99 24       	eor	r9, r9
   10a06:	9a 94       	dec	r9
   10a08:	f0 2d       	mov	r31, r0
   10a0a:	cc 24       	eor	r12, r12
   10a0c:	c3 94       	inc	r12
   10a0e:	d1 2c       	mov	r13, r1
   10a10:	0f 2e       	mov	r0, r31
   10a12:	f3 ef       	ldi	r31, 0xF3	; 243
   10a14:	ef 2e       	mov	r14, r31
   10a16:	ff 24       	eor	r15, r15
   10a18:	fa 94       	dec	r15
   10a1a:	f0 2d       	mov	r31, r0
   10a1c:	2c c0       	rjmp	.+88     	; 0x10a76 <Print_Boards_Main+0x1e0>
   10a1e:	ff 20       	and	r15, r15
   10a20:	3c f0       	brlt	.+14     	; 0x10a30 <Print_Boards_Main+0x19a>
   10a22:	01 50       	subi	r16, 0x01	; 1
   10a24:	11 09       	sbc	r17, r1
   10a26:	82 e0       	ldi	r24, 0x02	; 2
   10a28:	88 0e       	add	r8, r24
   10a2a:	91 1c       	adc	r9, r1
   10a2c:	e8 0c       	add	r14, r8
   10a2e:	f9 1c       	adc	r15, r9
   10a30:	3e 01       	movw	r6, r28
   10a32:	2f ef       	ldi	r18, 0xFF	; 255
   10a34:	62 1a       	sub	r6, r18
   10a36:	72 0a       	sbc	r7, r18
   10a38:	82 e0       	ldi	r24, 0x02	; 2
   10a3a:	c8 0e       	add	r12, r24
   10a3c:	d1 1c       	adc	r13, r1
   10a3e:	ec 0c       	add	r14, r12
   10a40:	fd 1c       	adc	r15, r13
   10a42:	0f 2e       	mov	r0, r31
   10a44:	ff e0       	ldi	r31, 0x0F	; 15
   10a46:	af 2e       	mov	r10, r31
   10a48:	b1 2c       	mov	r11, r1
   10a4a:	f0 2d       	mov	r31, r0
   10a4c:	4f ef       	ldi	r20, 0xFF	; 255
   10a4e:	5f ef       	ldi	r21, 0xFF	; 255
   10a50:	b8 01       	movw	r22, r16
   10a52:	60 5d       	subi	r22, 0xD0	; 208
   10a54:	7e 4f       	sbci	r23, 0xFE	; 254
   10a56:	c5 01       	movw	r24, r10
   10a58:	86 19       	sub	r24, r6
   10a5a:	97 09       	sbc	r25, r7
   10a5c:	0e 94 ab 6b 	call	0xd756	; 0xd756 <ILI9486_drawPixel>
   10a60:	be 01       	movw	r22, r28
   10a62:	6f 5c       	subi	r22, 0xCF	; 207
   10a64:	7e 4f       	sbci	r23, 0xFE	; 254
   10a66:	4f ef       	ldi	r20, 0xFF	; 255
   10a68:	5f ef       	ldi	r21, 0xFF	; 255
   10a6a:	c5 01       	movw	r24, r10
   10a6c:	80 1b       	sub	r24, r16
   10a6e:	91 0b       	sbc	r25, r17
   10a70:	0e 94 ab 6b 	call	0xd756	; 0xd756 <ILI9486_drawPixel>
   10a74:	e3 01       	movw	r28, r6
   10a76:	c0 17       	cp	r28, r16
   10a78:	d1 07       	cpc	r29, r17
   10a7a:	8c f2       	brlt	.-94     	; 0x10a1e <Print_Boards_Main+0x188>
   10a7c:	0f ef       	ldi	r16, 0xFF	; 255
   10a7e:	1f ef       	ldi	r17, 0xFF	; 255
   10a80:	2e e3       	ldi	r18, 0x3E	; 62
   10a82:	31 e0       	ldi	r19, 0x01	; 1
   10a84:	40 ed       	ldi	r20, 0xD0	; 208
   10a86:	51 e0       	ldi	r21, 0x01	; 1
   10a88:	6e e3       	ldi	r22, 0x3E	; 62
   10a8a:	71 e0       	ldi	r23, 0x01	; 1
   10a8c:	8f e0       	ldi	r24, 0x0F	; 15
   10a8e:	90 e0       	ldi	r25, 0x00	; 0
   10a90:	0e 94 72 6d 	call	0xdae4	; 0xdae4 <ILI9486_Draw_Line>
   10a94:	0e e0       	ldi	r16, 0x0E	; 14
   10a96:	10 e0       	ldi	r17, 0x00	; 0
   10a98:	c0 e0       	ldi	r28, 0x00	; 0
   10a9a:	d0 e0       	ldi	r29, 0x00	; 0
   10a9c:	0f 2e       	mov	r0, r31
   10a9e:	f4 ee       	ldi	r31, 0xE4	; 228
   10aa0:	8f 2e       	mov	r8, r31
   10aa2:	99 24       	eor	r9, r9
   10aa4:	9a 94       	dec	r9
   10aa6:	f0 2d       	mov	r31, r0
   10aa8:	cc 24       	eor	r12, r12
   10aaa:	c3 94       	inc	r12
   10aac:	d1 2c       	mov	r13, r1
   10aae:	0f 2e       	mov	r0, r31
   10ab0:	f3 ef       	ldi	r31, 0xF3	; 243
   10ab2:	ef 2e       	mov	r14, r31
   10ab4:	ff 24       	eor	r15, r15
   10ab6:	fa 94       	dec	r15
   10ab8:	f0 2d       	mov	r31, r0
   10aba:	27 c0       	rjmp	.+78     	; 0x10b0a <Print_Boards_Main+0x274>
   10abc:	ff 20       	and	r15, r15
   10abe:	3c f0       	brlt	.+14     	; 0x10ace <Print_Boards_Main+0x238>
   10ac0:	01 50       	subi	r16, 0x01	; 1
   10ac2:	11 09       	sbc	r17, r1
   10ac4:	22 e0       	ldi	r18, 0x02	; 2
   10ac6:	82 0e       	add	r8, r18
   10ac8:	91 1c       	adc	r9, r1
   10aca:	e8 0c       	add	r14, r8
   10acc:	f9 1c       	adc	r15, r9
   10ace:	5e 01       	movw	r10, r28
   10ad0:	8f ef       	ldi	r24, 0xFF	; 255
   10ad2:	a8 1a       	sub	r10, r24
   10ad4:	b8 0a       	sbc	r11, r24
   10ad6:	22 e0       	ldi	r18, 0x02	; 2
   10ad8:	c2 0e       	add	r12, r18
   10ada:	d1 1c       	adc	r13, r1
   10adc:	ec 0c       	add	r14, r12
   10ade:	fd 1c       	adc	r15, r13
   10ae0:	4f ef       	ldi	r20, 0xFF	; 255
   10ae2:	5f ef       	ldi	r21, 0xFF	; 255
   10ae4:	b8 01       	movw	r22, r16
   10ae6:	60 5d       	subi	r22, 0xD0	; 208
   10ae8:	7e 4f       	sbci	r23, 0xFE	; 254
   10aea:	ce 01       	movw	r24, r28
   10aec:	8f 52       	subi	r24, 0x2F	; 47
   10aee:	9e 4f       	sbci	r25, 0xFE	; 254
   10af0:	0e 94 ab 6b 	call	0xd756	; 0xd756 <ILI9486_drawPixel>
   10af4:	be 01       	movw	r22, r28
   10af6:	6f 5c       	subi	r22, 0xCF	; 207
   10af8:	7e 4f       	sbci	r23, 0xFE	; 254
   10afa:	4f ef       	ldi	r20, 0xFF	; 255
   10afc:	5f ef       	ldi	r21, 0xFF	; 255
   10afe:	c8 01       	movw	r24, r16
   10b00:	80 53       	subi	r24, 0x30	; 48
   10b02:	9e 4f       	sbci	r25, 0xFE	; 254
   10b04:	0e 94 ab 6b 	call	0xd756	; 0xd756 <ILI9486_drawPixel>
   10b08:	e5 01       	movw	r28, r10
   10b0a:	c0 17       	cp	r28, r16
   10b0c:	d1 07       	cpc	r29, r17
   10b0e:	b4 f2       	brlt	.-84     	; 0x10abc <Print_Boards_Main+0x226>
   10b10:	0f ef       	ldi	r16, 0xFF	; 255
   10b12:	1f ef       	ldi	r17, 0xFF	; 255
   10b14:	2c ed       	ldi	r18, 0xDC	; 220
   10b16:	30 e0       	ldi	r19, 0x00	; 0
   10b18:	44 ea       	ldi	r20, 0xA4	; 164
   10b1a:	50 e0       	ldi	r21, 0x00	; 0
   10b1c:	6e e3       	ldi	r22, 0x3E	; 62
   10b1e:	71 e0       	ldi	r23, 0x01	; 1
   10b20:	84 ea       	ldi	r24, 0xA4	; 164
   10b22:	90 e0       	ldi	r25, 0x00	; 0
   10b24:	0e 94 72 6d 	call	0xdae4	; 0xdae4 <ILI9486_Draw_Line>
   10b28:	21 ee       	ldi	r18, 0xE1	; 225
   10b2a:	30 e0       	ldi	r19, 0x00	; 0
   10b2c:	48 ea       	ldi	r20, 0xA8	; 168
   10b2e:	50 e0       	ldi	r21, 0x00	; 0
   10b30:	6e e3       	ldi	r22, 0x3E	; 62
   10b32:	71 e0       	ldi	r23, 0x01	; 1
   10b34:	88 ea       	ldi	r24, 0xA8	; 168
   10b36:	90 e0       	ldi	r25, 0x00	; 0
   10b38:	0e 94 72 6d 	call	0xdae4	; 0xdae4 <ILI9486_Draw_Line>
   10b3c:	2c ed       	ldi	r18, 0xDC	; 220
   10b3e:	30 e0       	ldi	r19, 0x00	; 0
   10b40:	45 e5       	ldi	r20, 0x55	; 85
   10b42:	51 e0       	ldi	r21, 0x01	; 1
   10b44:	6c ed       	ldi	r22, 0xDC	; 220
   10b46:	70 e0       	ldi	r23, 0x00	; 0
   10b48:	8b e3       	ldi	r24, 0x3B	; 59
   10b4a:	91 e0       	ldi	r25, 0x01	; 1
   10b4c:	0e 94 72 6d 	call	0xdae4	; 0xdae4 <ILI9486_Draw_Line>
   10b50:	2c ed       	ldi	r18, 0xDC	; 220
   10b52:	30 e0       	ldi	r19, 0x00	; 0
   10b54:	4a e3       	ldi	r20, 0x3A	; 58
   10b56:	51 e0       	ldi	r21, 0x01	; 1
   10b58:	6e e3       	ldi	r22, 0x3E	; 62
   10b5a:	71 e0       	ldi	r23, 0x01	; 1
   10b5c:	8a e3       	ldi	r24, 0x3A	; 58
   10b5e:	91 e0       	ldi	r25, 0x01	; 1
   10b60:	0e 94 72 6d 	call	0xdae4	; 0xdae4 <ILI9486_Draw_Line>
   10b64:	21 ee       	ldi	r18, 0xE1	; 225
   10b66:	30 e0       	ldi	r19, 0x00	; 0
   10b68:	46 e3       	ldi	r20, 0x36	; 54
   10b6a:	51 e0       	ldi	r21, 0x01	; 1
   10b6c:	6e e3       	ldi	r22, 0x3E	; 62
   10b6e:	71 e0       	ldi	r23, 0x01	; 1
   10b70:	86 e3       	ldi	r24, 0x36	; 54
   10b72:	91 e0       	ldi	r25, 0x01	; 1
   10b74:	0e 94 72 6d 	call	0xdae4	; 0xdae4 <ILI9486_Draw_Line>
   10b78:	2c ed       	ldi	r18, 0xDC	; 220
   10b7a:	30 e0       	ldi	r19, 0x00	; 0
   10b7c:	4e ed       	ldi	r20, 0xDE	; 222
   10b7e:	51 e0       	ldi	r21, 0x01	; 1
   10b80:	6c ed       	ldi	r22, 0xDC	; 220
   10b82:	70 e0       	ldi	r23, 0x00	; 0
   10b84:	85 ec       	ldi	r24, 0xC5	; 197
   10b86:	91 e0       	ldi	r25, 0x01	; 1
   10b88:	0e 94 72 6d 	call	0xdae4	; 0xdae4 <ILI9486_Draw_Line>
   10b8c:	26 ee       	ldi	r18, 0xE6	; 230
   10b8e:	30 e0       	ldi	r19, 0x00	; 0
   10b90:	4b eb       	ldi	r20, 0xBB	; 187
   10b92:	51 e0       	ldi	r21, 0x01	; 1
   10b94:	66 ee       	ldi	r22, 0xE6	; 230
   10b96:	70 e0       	ldi	r23, 0x00	; 0
   10b98:	80 e6       	ldi	r24, 0x60	; 96
   10b9a:	91 e0       	ldi	r25, 0x01	; 1
   10b9c:	0e 94 72 6d 	call	0xdae4	; 0xdae4 <ILI9486_Draw_Line>
   10ba0:	2e ec       	ldi	r18, 0xCE	; 206
   10ba2:	30 e0       	ldi	r19, 0x00	; 0
   10ba4:	4b eb       	ldi	r20, 0xBB	; 187
   10ba6:	51 e0       	ldi	r21, 0x01	; 1
   10ba8:	6e ec       	ldi	r22, 0xCE	; 206
   10baa:	70 e0       	ldi	r23, 0x00	; 0
   10bac:	80 e6       	ldi	r24, 0x60	; 96
   10bae:	91 e0       	ldi	r25, 0x01	; 1
   10bb0:	0e 94 72 6d 	call	0xdae4	; 0xdae4 <ILI9486_Draw_Line>
   10bb4:	4f ef       	ldi	r20, 0xFF	; 255
   10bb6:	5f ef       	ldi	r21, 0xFF	; 255
   10bb8:	6a ed       	ldi	r22, 0xDA	; 218
   10bba:	70 e0       	ldi	r23, 0x00	; 0
   10bbc:	86 e5       	ldi	r24, 0x56	; 86
   10bbe:	91 e0       	ldi	r25, 0x01	; 1
   10bc0:	0e 94 ab 6b 	call	0xd756	; 0xd756 <ILI9486_drawPixel>
   10bc4:	0c e0       	ldi	r16, 0x0C	; 12
   10bc6:	10 e0       	ldi	r17, 0x00	; 0
   10bc8:	c0 e0       	ldi	r28, 0x00	; 0
   10bca:	d0 e0       	ldi	r29, 0x00	; 0
   10bcc:	0f 2e       	mov	r0, r31
   10bce:	f8 ee       	ldi	r31, 0xE8	; 232
   10bd0:	8f 2e       	mov	r8, r31
   10bd2:	99 24       	eor	r9, r9
   10bd4:	9a 94       	dec	r9
   10bd6:	f0 2d       	mov	r31, r0
   10bd8:	aa 24       	eor	r10, r10
   10bda:	a3 94       	inc	r10
   10bdc:	b1 2c       	mov	r11, r1
   10bde:	0f 2e       	mov	r0, r31
   10be0:	f5 ef       	ldi	r31, 0xF5	; 245
   10be2:	ef 2e       	mov	r14, r31
   10be4:	ff 24       	eor	r15, r15
   10be6:	fa 94       	dec	r15
   10be8:	f0 2d       	mov	r31, r0
   10bea:	43 c0       	rjmp	.+134    	; 0x10c72 <Print_Boards_Main+0x3dc>
   10bec:	ff 20       	and	r15, r15
   10bee:	3c f0       	brlt	.+14     	; 0x10bfe <Print_Boards_Main+0x368>
   10bf0:	01 50       	subi	r16, 0x01	; 1
   10bf2:	11 09       	sbc	r17, r1
   10bf4:	82 e0       	ldi	r24, 0x02	; 2
   10bf6:	88 0e       	add	r8, r24
   10bf8:	91 1c       	adc	r9, r1
   10bfa:	e8 0c       	add	r14, r8
   10bfc:	f9 1c       	adc	r15, r9
   10bfe:	6e 01       	movw	r12, r28
   10c00:	2f ef       	ldi	r18, 0xFF	; 255
   10c02:	c2 1a       	sub	r12, r18
   10c04:	d2 0a       	sbc	r13, r18
   10c06:	82 e0       	ldi	r24, 0x02	; 2
   10c08:	a8 0e       	add	r10, r24
   10c0a:	b1 1c       	adc	r11, r1
   10c0c:	ea 0c       	add	r14, r10
   10c0e:	fb 1c       	adc	r15, r11
   10c10:	0f 2e       	mov	r0, r31
   10c12:	f2 e6       	ldi	r31, 0x62	; 98
   10c14:	4f 2e       	mov	r4, r31
   10c16:	55 24       	eor	r5, r5
   10c18:	53 94       	inc	r5
   10c1a:	f0 2d       	mov	r31, r0
   10c1c:	32 01       	movw	r6, r4
   10c1e:	6c 18       	sub	r6, r12
   10c20:	7d 08       	sbc	r7, r13
   10c22:	4f ef       	ldi	r20, 0xFF	; 255
   10c24:	5f ef       	ldi	r21, 0xFF	; 255
   10c26:	b8 01       	movw	r22, r16
   10c28:	66 52       	subi	r22, 0x26	; 38
   10c2a:	7f 4f       	sbci	r23, 0xFF	; 255
   10c2c:	c3 01       	movw	r24, r6
   10c2e:	0e 94 ab 6b 	call	0xd756	; 0xd756 <ILI9486_drawPixel>
   10c32:	0f 2e       	mov	r0, r31
   10c34:	fa ed       	ldi	r31, 0xDA	; 218
   10c36:	2f 2e       	mov	r2, r31
   10c38:	31 2c       	mov	r3, r1
   10c3a:	f0 2d       	mov	r31, r0
   10c3c:	b1 01       	movw	r22, r2
   10c3e:	60 1b       	sub	r22, r16
   10c40:	71 0b       	sbc	r23, r17
   10c42:	4f ef       	ldi	r20, 0xFF	; 255
   10c44:	5f ef       	ldi	r21, 0xFF	; 255
   10c46:	c3 01       	movw	r24, r6
   10c48:	0e 94 ab 6b 	call	0xd756	; 0xd756 <ILI9486_drawPixel>
   10c4c:	be 01       	movw	r22, r28
   10c4e:	65 52       	subi	r22, 0x25	; 37
   10c50:	7f 4f       	sbci	r23, 0xFF	; 255
   10c52:	40 1a       	sub	r4, r16
   10c54:	51 0a       	sbc	r5, r17
   10c56:	4f ef       	ldi	r20, 0xFF	; 255
   10c58:	5f ef       	ldi	r21, 0xFF	; 255
   10c5a:	c2 01       	movw	r24, r4
   10c5c:	0e 94 ab 6b 	call	0xd756	; 0xd756 <ILI9486_drawPixel>
   10c60:	b1 01       	movw	r22, r2
   10c62:	6c 19       	sub	r22, r12
   10c64:	7d 09       	sbc	r23, r13
   10c66:	4f ef       	ldi	r20, 0xFF	; 255
   10c68:	5f ef       	ldi	r21, 0xFF	; 255
   10c6a:	c2 01       	movw	r24, r4
   10c6c:	0e 94 ab 6b 	call	0xd756	; 0xd756 <ILI9486_drawPixel>
   10c70:	e6 01       	movw	r28, r12
   10c72:	c0 17       	cp	r28, r16
   10c74:	d1 07       	cpc	r29, r17
   10c76:	0c f4       	brge	.+2      	; 0x10c7a <Print_Boards_Main+0x3e4>
   10c78:	b9 cf       	rjmp	.-142    	; 0x10bec <Print_Boards_Main+0x356>
   10c7a:	4f ef       	ldi	r20, 0xFF	; 255
   10c7c:	5f ef       	ldi	r21, 0xFF	; 255
   10c7e:	6a ed       	ldi	r22, 0xDA	; 218
   10c80:	70 e0       	ldi	r23, 0x00	; 0
   10c82:	85 ec       	ldi	r24, 0xC5	; 197
   10c84:	91 e0       	ldi	r25, 0x01	; 1
   10c86:	0e 94 ab 6b 	call	0xd756	; 0xd756 <ILI9486_drawPixel>
   10c8a:	0c e0       	ldi	r16, 0x0C	; 12
   10c8c:	10 e0       	ldi	r17, 0x00	; 0
   10c8e:	c0 e0       	ldi	r28, 0x00	; 0
   10c90:	d0 e0       	ldi	r29, 0x00	; 0
   10c92:	0f 2e       	mov	r0, r31
   10c94:	f8 ee       	ldi	r31, 0xE8	; 232
   10c96:	8f 2e       	mov	r8, r31
   10c98:	99 24       	eor	r9, r9
   10c9a:	9a 94       	dec	r9
   10c9c:	f0 2d       	mov	r31, r0
   10c9e:	cc 24       	eor	r12, r12
   10ca0:	c3 94       	inc	r12
   10ca2:	d1 2c       	mov	r13, r1
   10ca4:	0f 2e       	mov	r0, r31
   10ca6:	f5 ef       	ldi	r31, 0xF5	; 245
   10ca8:	ef 2e       	mov	r14, r31
   10caa:	ff 24       	eor	r15, r15
   10cac:	fa 94       	dec	r15
   10cae:	f0 2d       	mov	r31, r0
   10cb0:	40 c0       	rjmp	.+128    	; 0x10d32 <Print_Boards_Main+0x49c>
   10cb2:	ff 20       	and	r15, r15
   10cb4:	3c f0       	brlt	.+14     	; 0x10cc4 <Print_Boards_Main+0x42e>
   10cb6:	01 50       	subi	r16, 0x01	; 1
   10cb8:	11 09       	sbc	r17, r1
   10cba:	22 e0       	ldi	r18, 0x02	; 2
   10cbc:	82 0e       	add	r8, r18
   10cbe:	91 1c       	adc	r9, r1
   10cc0:	e8 0c       	add	r14, r8
   10cc2:	f9 1c       	adc	r15, r9
   10cc4:	2e 01       	movw	r4, r28
   10cc6:	8f ef       	ldi	r24, 0xFF	; 255
   10cc8:	48 1a       	sub	r4, r24
   10cca:	58 0a       	sbc	r5, r24
   10ccc:	22 e0       	ldi	r18, 0x02	; 2
   10cce:	c2 0e       	add	r12, r18
   10cd0:	d1 1c       	adc	r13, r1
   10cd2:	ec 0c       	add	r14, r12
   10cd4:	fd 1c       	adc	r15, r13
   10cd6:	5e 01       	movw	r10, r28
   10cd8:	86 e4       	ldi	r24, 0x46	; 70
   10cda:	a8 1a       	sub	r10, r24
   10cdc:	8e ef       	ldi	r24, 0xFE	; 254
   10cde:	b8 0a       	sbc	r11, r24
   10ce0:	4f ef       	ldi	r20, 0xFF	; 255
   10ce2:	5f ef       	ldi	r21, 0xFF	; 255
   10ce4:	b8 01       	movw	r22, r16
   10ce6:	66 52       	subi	r22, 0x26	; 38
   10ce8:	7f 4f       	sbci	r23, 0xFF	; 255
   10cea:	c5 01       	movw	r24, r10
   10cec:	0e 94 ab 6b 	call	0xd756	; 0xd756 <ILI9486_drawPixel>
   10cf0:	0f 2e       	mov	r0, r31
   10cf2:	fa ed       	ldi	r31, 0xDA	; 218
   10cf4:	6f 2e       	mov	r6, r31
   10cf6:	71 2c       	mov	r7, r1
   10cf8:	f0 2d       	mov	r31, r0
   10cfa:	b3 01       	movw	r22, r6
   10cfc:	60 1b       	sub	r22, r16
   10cfe:	71 0b       	sbc	r23, r17
   10d00:	4f ef       	ldi	r20, 0xFF	; 255
   10d02:	5f ef       	ldi	r21, 0xFF	; 255
   10d04:	c5 01       	movw	r24, r10
   10d06:	0e 94 ab 6b 	call	0xd756	; 0xd756 <ILI9486_drawPixel>
   10d0a:	be 01       	movw	r22, r28
   10d0c:	65 52       	subi	r22, 0x25	; 37
   10d0e:	7f 4f       	sbci	r23, 0xFF	; 255
   10d10:	4f ef       	ldi	r20, 0xFF	; 255
   10d12:	5f ef       	ldi	r21, 0xFF	; 255
   10d14:	e8 01       	movw	r28, r16
   10d16:	c7 54       	subi	r28, 0x47	; 71
   10d18:	de 4f       	sbci	r29, 0xFE	; 254
   10d1a:	ce 01       	movw	r24, r28
   10d1c:	0e 94 ab 6b 	call	0xd756	; 0xd756 <ILI9486_drawPixel>
   10d20:	b3 01       	movw	r22, r6
   10d22:	64 19       	sub	r22, r4
   10d24:	75 09       	sbc	r23, r5
   10d26:	4f ef       	ldi	r20, 0xFF	; 255
   10d28:	5f ef       	ldi	r21, 0xFF	; 255
   10d2a:	ce 01       	movw	r24, r28
   10d2c:	0e 94 ab 6b 	call	0xd756	; 0xd756 <ILI9486_drawPixel>
   10d30:	e2 01       	movw	r28, r4
   10d32:	c0 17       	cp	r28, r16
   10d34:	d1 07       	cpc	r29, r17
   10d36:	0c f4       	brge	.+2      	; 0x10d3a <Print_Boards_Main+0x4a4>
   10d38:	bc cf       	rjmp	.-136    	; 0x10cb2 <Print_Boards_Main+0x41c>
   10d3a:	0f ef       	ldi	r16, 0xFF	; 255
   10d3c:	1f ef       	ldi	r17, 0xFF	; 255
   10d3e:	26 ee       	ldi	r18, 0xE6	; 230
   10d40:	30 e0       	ldi	r19, 0x00	; 0
   10d42:	4f e7       	ldi	r20, 0x7F	; 127
   10d44:	50 e0       	ldi	r21, 0x00	; 0
   10d46:	66 ee       	ldi	r22, 0xE6	; 230
   10d48:	70 e0       	ldi	r23, 0x00	; 0
   10d4a:	84 e2       	ldi	r24, 0x24	; 36
   10d4c:	90 e0       	ldi	r25, 0x00	; 0
   10d4e:	0e 94 72 6d 	call	0xdae4	; 0xdae4 <ILI9486_Draw_Line>
   10d52:	2e ec       	ldi	r18, 0xCE	; 206
   10d54:	30 e0       	ldi	r19, 0x00	; 0
   10d56:	4f e7       	ldi	r20, 0x7F	; 127
   10d58:	50 e0       	ldi	r21, 0x00	; 0
   10d5a:	6e ec       	ldi	r22, 0xCE	; 206
   10d5c:	70 e0       	ldi	r23, 0x00	; 0
   10d5e:	84 e2       	ldi	r24, 0x24	; 36
   10d60:	90 e0       	ldi	r25, 0x00	; 0
   10d62:	0e 94 72 6d 	call	0xdae4	; 0xdae4 <ILI9486_Draw_Line>
   10d66:	4f ef       	ldi	r20, 0xFF	; 255
   10d68:	5f ef       	ldi	r21, 0xFF	; 255
   10d6a:	6a ed       	ldi	r22, 0xDA	; 218
   10d6c:	70 e0       	ldi	r23, 0x00	; 0
   10d6e:	8a e1       	ldi	r24, 0x1A	; 26
   10d70:	90 e0       	ldi	r25, 0x00	; 0
   10d72:	0e 94 ab 6b 	call	0xd756	; 0xd756 <ILI9486_drawPixel>
   10d76:	0c e0       	ldi	r16, 0x0C	; 12
   10d78:	10 e0       	ldi	r17, 0x00	; 0
   10d7a:	c0 e0       	ldi	r28, 0x00	; 0
   10d7c:	d0 e0       	ldi	r29, 0x00	; 0
   10d7e:	0f 2e       	mov	r0, r31
   10d80:	f8 ee       	ldi	r31, 0xE8	; 232
   10d82:	8f 2e       	mov	r8, r31
   10d84:	99 24       	eor	r9, r9
   10d86:	9a 94       	dec	r9
   10d88:	f0 2d       	mov	r31, r0
   10d8a:	aa 24       	eor	r10, r10
   10d8c:	a3 94       	inc	r10
   10d8e:	b1 2c       	mov	r11, r1
   10d90:	0f 2e       	mov	r0, r31
   10d92:	f5 ef       	ldi	r31, 0xF5	; 245
   10d94:	ef 2e       	mov	r14, r31
   10d96:	ff 24       	eor	r15, r15
   10d98:	fa 94       	dec	r15
   10d9a:	f0 2d       	mov	r31, r0
   10d9c:	42 c0       	rjmp	.+132    	; 0x10e22 <Print_Boards_Main+0x58c>
   10d9e:	ff 20       	and	r15, r15
   10da0:	3c f0       	brlt	.+14     	; 0x10db0 <Print_Boards_Main+0x51a>
   10da2:	01 50       	subi	r16, 0x01	; 1
   10da4:	11 09       	sbc	r17, r1
   10da6:	22 e0       	ldi	r18, 0x02	; 2
   10da8:	82 0e       	add	r8, r18
   10daa:	91 1c       	adc	r9, r1
   10dac:	e8 0c       	add	r14, r8
   10dae:	f9 1c       	adc	r15, r9
   10db0:	6e 01       	movw	r12, r28
   10db2:	8f ef       	ldi	r24, 0xFF	; 255
   10db4:	c8 1a       	sub	r12, r24
   10db6:	d8 0a       	sbc	r13, r24
   10db8:	22 e0       	ldi	r18, 0x02	; 2
   10dba:	a2 0e       	add	r10, r18
   10dbc:	b1 1c       	adc	r11, r1
   10dbe:	ea 0c       	add	r14, r10
   10dc0:	fb 1c       	adc	r15, r11
   10dc2:	0f 2e       	mov	r0, r31
   10dc4:	f6 e2       	ldi	r31, 0x26	; 38
   10dc6:	4f 2e       	mov	r4, r31
   10dc8:	51 2c       	mov	r5, r1
   10dca:	f0 2d       	mov	r31, r0
   10dcc:	32 01       	movw	r6, r4
   10dce:	6c 18       	sub	r6, r12
   10dd0:	7d 08       	sbc	r7, r13
   10dd2:	4f ef       	ldi	r20, 0xFF	; 255
   10dd4:	5f ef       	ldi	r21, 0xFF	; 255
   10dd6:	b8 01       	movw	r22, r16
   10dd8:	66 52       	subi	r22, 0x26	; 38
   10dda:	7f 4f       	sbci	r23, 0xFF	; 255
   10ddc:	c3 01       	movw	r24, r6
   10dde:	0e 94 ab 6b 	call	0xd756	; 0xd756 <ILI9486_drawPixel>
   10de2:	0f 2e       	mov	r0, r31
   10de4:	fa ed       	ldi	r31, 0xDA	; 218
   10de6:	2f 2e       	mov	r2, r31
   10de8:	31 2c       	mov	r3, r1
   10dea:	f0 2d       	mov	r31, r0
   10dec:	b1 01       	movw	r22, r2
   10dee:	60 1b       	sub	r22, r16
   10df0:	71 0b       	sbc	r23, r17
   10df2:	4f ef       	ldi	r20, 0xFF	; 255
   10df4:	5f ef       	ldi	r21, 0xFF	; 255
   10df6:	c3 01       	movw	r24, r6
   10df8:	0e 94 ab 6b 	call	0xd756	; 0xd756 <ILI9486_drawPixel>
   10dfc:	be 01       	movw	r22, r28
   10dfe:	65 52       	subi	r22, 0x25	; 37
   10e00:	7f 4f       	sbci	r23, 0xFF	; 255
   10e02:	40 1a       	sub	r4, r16
   10e04:	51 0a       	sbc	r5, r17
   10e06:	4f ef       	ldi	r20, 0xFF	; 255
   10e08:	5f ef       	ldi	r21, 0xFF	; 255
   10e0a:	c2 01       	movw	r24, r4
   10e0c:	0e 94 ab 6b 	call	0xd756	; 0xd756 <ILI9486_drawPixel>
   10e10:	b1 01       	movw	r22, r2
   10e12:	6c 19       	sub	r22, r12
   10e14:	7d 09       	sbc	r23, r13
   10e16:	4f ef       	ldi	r20, 0xFF	; 255
   10e18:	5f ef       	ldi	r21, 0xFF	; 255
   10e1a:	c2 01       	movw	r24, r4
   10e1c:	0e 94 ab 6b 	call	0xd756	; 0xd756 <ILI9486_drawPixel>
   10e20:	e6 01       	movw	r28, r12
   10e22:	c0 17       	cp	r28, r16
   10e24:	d1 07       	cpc	r29, r17
   10e26:	0c f4       	brge	.+2      	; 0x10e2a <Print_Boards_Main+0x594>
   10e28:	ba cf       	rjmp	.-140    	; 0x10d9e <Print_Boards_Main+0x508>
   10e2a:	4f ef       	ldi	r20, 0xFF	; 255
   10e2c:	5f ef       	ldi	r21, 0xFF	; 255
   10e2e:	6a ed       	ldi	r22, 0xDA	; 218
   10e30:	70 e0       	ldi	r23, 0x00	; 0
   10e32:	89 e8       	ldi	r24, 0x89	; 137
   10e34:	90 e0       	ldi	r25, 0x00	; 0
   10e36:	0e 94 ab 6b 	call	0xd756	; 0xd756 <ILI9486_drawPixel>
   10e3a:	0c e0       	ldi	r16, 0x0C	; 12
   10e3c:	10 e0       	ldi	r17, 0x00	; 0
   10e3e:	c0 e0       	ldi	r28, 0x00	; 0
   10e40:	d0 e0       	ldi	r29, 0x00	; 0
   10e42:	0f 2e       	mov	r0, r31
   10e44:	f8 ee       	ldi	r31, 0xE8	; 232
   10e46:	8f 2e       	mov	r8, r31
   10e48:	99 24       	eor	r9, r9
   10e4a:	9a 94       	dec	r9
   10e4c:	f0 2d       	mov	r31, r0
   10e4e:	cc 24       	eor	r12, r12
   10e50:	c3 94       	inc	r12
   10e52:	d1 2c       	mov	r13, r1
   10e54:	0f 2e       	mov	r0, r31
   10e56:	f5 ef       	ldi	r31, 0xF5	; 245
   10e58:	ef 2e       	mov	r14, r31
   10e5a:	ff 24       	eor	r15, r15
   10e5c:	fa 94       	dec	r15
   10e5e:	f0 2d       	mov	r31, r0
   10e60:	3f c0       	rjmp	.+126    	; 0x10ee0 <Print_Boards_Main+0x64a>
   10e62:	ff 20       	and	r15, r15
   10e64:	3c f0       	brlt	.+14     	; 0x10e74 <Print_Boards_Main+0x5de>
   10e66:	01 50       	subi	r16, 0x01	; 1
   10e68:	11 09       	sbc	r17, r1
   10e6a:	82 e0       	ldi	r24, 0x02	; 2
   10e6c:	88 0e       	add	r8, r24
   10e6e:	91 1c       	adc	r9, r1
   10e70:	e8 0c       	add	r14, r8
   10e72:	f9 1c       	adc	r15, r9
   10e74:	2e 01       	movw	r4, r28
   10e76:	2f ef       	ldi	r18, 0xFF	; 255
   10e78:	42 1a       	sub	r4, r18
   10e7a:	52 0a       	sbc	r5, r18
   10e7c:	82 e0       	ldi	r24, 0x02	; 2
   10e7e:	c8 0e       	add	r12, r24
   10e80:	d1 1c       	adc	r13, r1
   10e82:	ec 0c       	add	r14, r12
   10e84:	fd 1c       	adc	r15, r13
   10e86:	5e 01       	movw	r10, r28
   10e88:	2e e7       	ldi	r18, 0x7E	; 126
   10e8a:	a2 0e       	add	r10, r18
   10e8c:	b1 1c       	adc	r11, r1
   10e8e:	4f ef       	ldi	r20, 0xFF	; 255
   10e90:	5f ef       	ldi	r21, 0xFF	; 255
   10e92:	b8 01       	movw	r22, r16
   10e94:	66 52       	subi	r22, 0x26	; 38
   10e96:	7f 4f       	sbci	r23, 0xFF	; 255
   10e98:	c5 01       	movw	r24, r10
   10e9a:	0e 94 ab 6b 	call	0xd756	; 0xd756 <ILI9486_drawPixel>
   10e9e:	0f 2e       	mov	r0, r31
   10ea0:	fa ed       	ldi	r31, 0xDA	; 218
   10ea2:	6f 2e       	mov	r6, r31
   10ea4:	71 2c       	mov	r7, r1
   10ea6:	f0 2d       	mov	r31, r0
   10ea8:	b3 01       	movw	r22, r6
   10eaa:	60 1b       	sub	r22, r16
   10eac:	71 0b       	sbc	r23, r17
   10eae:	4f ef       	ldi	r20, 0xFF	; 255
   10eb0:	5f ef       	ldi	r21, 0xFF	; 255
   10eb2:	c5 01       	movw	r24, r10
   10eb4:	0e 94 ab 6b 	call	0xd756	; 0xd756 <ILI9486_drawPixel>
   10eb8:	be 01       	movw	r22, r28
   10eba:	65 52       	subi	r22, 0x25	; 37
   10ebc:	7f 4f       	sbci	r23, 0xFF	; 255
   10ebe:	4f ef       	ldi	r20, 0xFF	; 255
   10ec0:	5f ef       	ldi	r21, 0xFF	; 255
   10ec2:	e8 01       	movw	r28, r16
   10ec4:	c3 58       	subi	r28, 0x83	; 131
   10ec6:	df 4f       	sbci	r29, 0xFF	; 255
   10ec8:	ce 01       	movw	r24, r28
   10eca:	0e 94 ab 6b 	call	0xd756	; 0xd756 <ILI9486_drawPixel>
   10ece:	b3 01       	movw	r22, r6
   10ed0:	64 19       	sub	r22, r4
   10ed2:	75 09       	sbc	r23, r5
   10ed4:	4f ef       	ldi	r20, 0xFF	; 255
   10ed6:	5f ef       	ldi	r21, 0xFF	; 255
   10ed8:	ce 01       	movw	r24, r28
   10eda:	0e 94 ab 6b 	call	0xd756	; 0xd756 <ILI9486_drawPixel>
   10ede:	e2 01       	movw	r28, r4
   10ee0:	c0 17       	cp	r28, r16
   10ee2:	d1 07       	cpc	r29, r17
   10ee4:	0c f4       	brge	.+2      	; 0x10ee8 <Print_Boards_Main+0x652>
   10ee6:	bd cf       	rjmp	.-134    	; 0x10e62 <Print_Boards_Main+0x5cc>
   10ee8:	0f ef       	ldi	r16, 0xFF	; 255
   10eea:	1f ef       	ldi	r17, 0xFF	; 255
   10eec:	2c ed       	ldi	r18, 0xDC	; 220
   10eee:	30 e0       	ldi	r19, 0x00	; 0
   10ef0:	49 e1       	ldi	r20, 0x19	; 25
   10ef2:	50 e0       	ldi	r21, 0x00	; 0
   10ef4:	6c ed       	ldi	r22, 0xDC	; 220
   10ef6:	70 e0       	ldi	r23, 0x00	; 0
   10ef8:	81 e0       	ldi	r24, 0x01	; 1
   10efa:	90 e0       	ldi	r25, 0x00	; 0
   10efc:	0e 94 72 6d 	call	0xdae4	; 0xdae4 <ILI9486_Draw_Line>
   10f00:	2c ed       	ldi	r18, 0xDC	; 220
   10f02:	30 e0       	ldi	r19, 0x00	; 0
   10f04:	43 ea       	ldi	r20, 0xA3	; 163
   10f06:	50 e0       	ldi	r21, 0x00	; 0
   10f08:	6c ed       	ldi	r22, 0xDC	; 220
   10f0a:	70 e0       	ldi	r23, 0x00	; 0
   10f0c:	89 e8       	ldi	r24, 0x89	; 137
   10f0e:	90 e0       	ldi	r25, 0x00	; 0
   10f10:	0e 94 72 6d 	call	0xdae4	; 0xdae4 <ILI9486_Draw_Line>
   10f14:	28 ed       	ldi	r18, 0xD8	; 216
   10f16:	30 e0       	ldi	r19, 0x00	; 0
   10f18:	45 e5       	ldi	r20, 0x55	; 85
   10f1a:	51 e0       	ldi	r21, 0x01	; 1
   10f1c:	68 ed       	ldi	r22, 0xD8	; 216
   10f1e:	70 e0       	ldi	r23, 0x00	; 0
   10f20:	89 e8       	ldi	r24, 0x89	; 137
   10f22:	90 e0       	ldi	r25, 0x00	; 0
   10f24:	0e 94 72 6d 	call	0xdae4	; 0xdae4 <ILI9486_Draw_Line>
   10f28:	28 ed       	ldi	r18, 0xD8	; 216
   10f2a:	30 e0       	ldi	r19, 0x00	; 0
   10f2c:	4a e1       	ldi	r20, 0x1A	; 26
   10f2e:	50 e0       	ldi	r21, 0x00	; 0
   10f30:	68 ed       	ldi	r22, 0xD8	; 216
   10f32:	70 e0       	ldi	r23, 0x00	; 0
   10f34:	81 e0       	ldi	r24, 0x01	; 1
   10f36:	90 e0       	ldi	r25, 0x00	; 0
   10f38:	0e 94 72 6d 	call	0xdae4	; 0xdae4 <ILI9486_Draw_Line>
   10f3c:	28 ed       	ldi	r18, 0xD8	; 216
   10f3e:	30 e0       	ldi	r19, 0x00	; 0
   10f40:	4e ed       	ldi	r20, 0xDE	; 222
   10f42:	51 e0       	ldi	r21, 0x01	; 1
   10f44:	68 ed       	ldi	r22, 0xD8	; 216
   10f46:	70 e0       	ldi	r23, 0x00	; 0
   10f48:	85 ec       	ldi	r24, 0xC5	; 197
   10f4a:	91 e0       	ldi	r25, 0x01	; 1
   10f4c:	0e 94 72 6d 	call	0xdae4	; 0xdae4 <ILI9486_Draw_Line>
   10f50:	28 e7       	ldi	r18, 0x78	; 120
   10f52:	30 e0       	ldi	r19, 0x00	; 0
   10f54:	4e ed       	ldi	r20, 0xDE	; 222
   10f56:	51 e0       	ldi	r21, 0x01	; 1
   10f58:	68 e7       	ldi	r22, 0x78	; 120
   10f5a:	70 e0       	ldi	r23, 0x00	; 0
   10f5c:	81 e0       	ldi	r24, 0x01	; 1
   10f5e:	90 e0       	ldi	r25, 0x00	; 0
   10f60:	0e 94 72 6d 	call	0xdae4	; 0xdae4 <ILI9486_Draw_Line>
   10f64:	2c e7       	ldi	r18, 0x7C	; 124
   10f66:	30 e0       	ldi	r19, 0x00	; 0
   10f68:	45 e9       	ldi	r20, 0x95	; 149
   10f6a:	50 e0       	ldi	r21, 0x00	; 0
   10f6c:	6c e7       	ldi	r22, 0x7C	; 124
   10f6e:	70 e0       	ldi	r23, 0x00	; 0
   10f70:	81 e0       	ldi	r24, 0x01	; 1
   10f72:	90 e0       	ldi	r25, 0x00	; 0
   10f74:	0e 94 72 6d 	call	0xdae4	; 0xdae4 <ILI9486_Draw_Line>
   10f78:	2c e7       	ldi	r18, 0x7C	; 124
   10f7a:	30 e0       	ldi	r19, 0x00	; 0
   10f7c:	4e ed       	ldi	r20, 0xDE	; 222
   10f7e:	51 e0       	ldi	r21, 0x01	; 1
   10f80:	6c e7       	ldi	r22, 0x7C	; 124
   10f82:	70 e0       	ldi	r23, 0x00	; 0
   10f84:	8a e4       	ldi	r24, 0x4A	; 74
   10f86:	91 e0       	ldi	r25, 0x01	; 1
   10f88:	0e 94 72 6d 	call	0xdae4	; 0xdae4 <ILI9486_Draw_Line>
   10f8c:	24 e6       	ldi	r18, 0x64	; 100
   10f8e:	30 e0       	ldi	r19, 0x00	; 0
   10f90:	41 ea       	ldi	r20, 0xA1	; 161
   10f92:	50 e0       	ldi	r21, 0x00	; 0
   10f94:	61 e0       	ldi	r22, 0x01	; 1
   10f96:	70 e0       	ldi	r23, 0x00	; 0
   10f98:	81 e9       	ldi	r24, 0x91	; 145
   10f9a:	90 e0       	ldi	r25, 0x00	; 0
   10f9c:	0e 94 72 6d 	call	0xdae4	; 0xdae4 <ILI9486_Draw_Line>
   10fa0:	24 e6       	ldi	r18, 0x64	; 100
   10fa2:	30 e0       	ldi	r19, 0x00	; 0
   10fa4:	4c e3       	ldi	r20, 0x3C	; 60
   10fa6:	51 e0       	ldi	r21, 0x01	; 1
   10fa8:	61 e0       	ldi	r22, 0x01	; 1
   10faa:	70 e0       	ldi	r23, 0x00	; 0
   10fac:	8c e4       	ldi	r24, 0x4C	; 76
   10fae:	91 e0       	ldi	r25, 0x01	; 1
   10fb0:	0e 94 72 6d 	call	0xdae4	; 0xdae4 <ILI9486_Draw_Line>
   10fb4:	20 e6       	ldi	r18, 0x60	; 96
   10fb6:	30 e0       	ldi	r19, 0x00	; 0
   10fb8:	45 ea       	ldi	r20, 0xA5	; 165
   10fba:	50 e0       	ldi	r21, 0x00	; 0
   10fbc:	61 e0       	ldi	r22, 0x01	; 1
   10fbe:	70 e0       	ldi	r23, 0x00	; 0
   10fc0:	85 e9       	ldi	r24, 0x95	; 149
   10fc2:	90 e0       	ldi	r25, 0x00	; 0
   10fc4:	0e 94 72 6d 	call	0xdae4	; 0xdae4 <ILI9486_Draw_Line>
   10fc8:	20 e6       	ldi	r18, 0x60	; 96
   10fca:	30 e0       	ldi	r19, 0x00	; 0
   10fcc:	48 e3       	ldi	r20, 0x38	; 56
   10fce:	51 e0       	ldi	r21, 0x01	; 1
   10fd0:	61 e0       	ldi	r22, 0x01	; 1
   10fd2:	70 e0       	ldi	r23, 0x00	; 0
   10fd4:	88 e4       	ldi	r24, 0x48	; 72
   10fd6:	91 e0       	ldi	r25, 0x01	; 1
   10fd8:	0e 94 72 6d 	call	0xdae4	; 0xdae4 <ILI9486_Draw_Line>
   10fdc:	2f ef       	ldi	r18, 0xFF	; 255
   10fde:	3f ef       	ldi	r19, 0xFF	; 255
   10fe0:	41 e6       	ldi	r20, 0x61	; 97
   10fe2:	50 e0       	ldi	r21, 0x00	; 0
   10fe4:	6f e9       	ldi	r22, 0x9F	; 159
   10fe6:	70 e0       	ldi	r23, 0x00	; 0
   10fe8:	8f ee       	ldi	r24, 0xEF	; 239
   10fea:	90 e0       	ldi	r25, 0x00	; 0
   10fec:	0e 94 9d 6d 	call	0xdb3a	; 0xdb3a <ILI9486_Draw_Circle>
   10ff0:	00 e0       	ldi	r16, 0x00	; 0
   10ff2:	10 e0       	ldi	r17, 0x00	; 0
   10ff4:	28 e7       	ldi	r18, 0x78	; 120
   10ff6:	30 e0       	ldi	r19, 0x00	; 0
   10ff8:	47 e4       	ldi	r20, 0x47	; 71
   10ffa:	51 e0       	ldi	r21, 0x01	; 1
   10ffc:	68 e7       	ldi	r22, 0x78	; 120
   10ffe:	70 e0       	ldi	r23, 0x00	; 0
   11000:	88 e9       	ldi	r24, 0x98	; 152
   11002:	90 e0       	ldi	r25, 0x00	; 0
   11004:	0e 94 72 6d 	call	0xdae4	; 0xdae4 <ILI9486_Draw_Line>
   11008:	28 ed       	ldi	r18, 0xD8	; 216
   1100a:	30 e0       	ldi	r19, 0x00	; 0
   1100c:	4d e3       	ldi	r20, 0x3D	; 61
   1100e:	51 e0       	ldi	r21, 0x01	; 1
   11010:	68 ed       	ldi	r22, 0xD8	; 216
   11012:	70 e0       	ldi	r23, 0x00	; 0
   11014:	81 ea       	ldi	r24, 0xA1	; 161
   11016:	90 e0       	ldi	r25, 0x00	; 0
   11018:	0e 94 72 6d 	call	0xdae4	; 0xdae4 <ILI9486_Draw_Line>
   1101c:	29 ed       	ldi	r18, 0xD9	; 217
   1101e:	30 e0       	ldi	r19, 0x00	; 0
   11020:	41 e0       	ldi	r20, 0x01	; 1
   11022:	50 e0       	ldi	r21, 0x00	; 0
   11024:	6b ed       	ldi	r22, 0xDB	; 219
   11026:	70 e0       	ldi	r23, 0x00	; 0
   11028:	81 e0       	ldi	r24, 0x01	; 1
   1102a:	90 e0       	ldi	r25, 0x00	; 0
   1102c:	0e 94 72 6d 	call	0xdae4	; 0xdae4 <ILI9486_Draw_Line>
   11030:	29 ed       	ldi	r18, 0xD9	; 217
   11032:	30 e0       	ldi	r19, 0x00	; 0
   11034:	4e ed       	ldi	r20, 0xDE	; 222
   11036:	51 e0       	ldi	r21, 0x01	; 1
   11038:	6b ed       	ldi	r22, 0xDB	; 219
   1103a:	70 e0       	ldi	r23, 0x00	; 0
   1103c:	8e ed       	ldi	r24, 0xDE	; 222
   1103e:	91 e0       	ldi	r25, 0x01	; 1
   11040:	0e 94 72 6d 	call	0xdae4	; 0xdae4 <ILI9486_Draw_Line>
   11044:	2b e7       	ldi	r18, 0x7B	; 123
   11046:	30 e0       	ldi	r19, 0x00	; 0
   11048:	41 e0       	ldi	r20, 0x01	; 1
   1104a:	50 e0       	ldi	r21, 0x00	; 0
   1104c:	69 e7       	ldi	r22, 0x79	; 121
   1104e:	70 e0       	ldi	r23, 0x00	; 0
   11050:	81 e0       	ldi	r24, 0x01	; 1
   11052:	90 e0       	ldi	r25, 0x00	; 0
   11054:	0e 94 72 6d 	call	0xdae4	; 0xdae4 <ILI9486_Draw_Line>
   11058:	2b e7       	ldi	r18, 0x7B	; 123
   1105a:	30 e0       	ldi	r19, 0x00	; 0
   1105c:	4e ed       	ldi	r20, 0xDE	; 222
   1105e:	51 e0       	ldi	r21, 0x01	; 1
   11060:	69 e7       	ldi	r22, 0x79	; 121
   11062:	70 e0       	ldi	r23, 0x00	; 0
   11064:	8e ed       	ldi	r24, 0xDE	; 222
   11066:	91 e0       	ldi	r25, 0x01	; 1
   11068:	0e 94 72 6d 	call	0xdae4	; 0xdae4 <ILI9486_Draw_Line>
   1106c:	21 e0       	ldi	r18, 0x01	; 1
   1106e:	30 e0       	ldi	r19, 0x00	; 0
   11070:	44 e9       	ldi	r20, 0x94	; 148
   11072:	50 e0       	ldi	r21, 0x00	; 0
   11074:	61 e0       	ldi	r22, 0x01	; 1
   11076:	70 e0       	ldi	r23, 0x00	; 0
   11078:	82 e9       	ldi	r24, 0x92	; 146
   1107a:	90 e0       	ldi	r25, 0x00	; 0
   1107c:	0e 94 72 6d 	call	0xdae4	; 0xdae4 <ILI9486_Draw_Line>
   11080:	21 e0       	ldi	r18, 0x01	; 1
   11082:	30 e0       	ldi	r19, 0x00	; 0
   11084:	4b e4       	ldi	r20, 0x4B	; 75
   11086:	51 e0       	ldi	r21, 0x01	; 1
   11088:	61 e0       	ldi	r22, 0x01	; 1
   1108a:	70 e0       	ldi	r23, 0x00	; 0
   1108c:	89 e4       	ldi	r24, 0x49	; 73
   1108e:	91 e0       	ldi	r25, 0x01	; 1
   11090:	0e 94 72 6d 	call	0xdae4	; 0xdae4 <ILI9486_Draw_Line>
   11094:	2e e3       	ldi	r18, 0x3E	; 62
   11096:	31 e0       	ldi	r19, 0x01	; 1
   11098:	47 ea       	ldi	r20, 0xA7	; 167
   1109a:	50 e0       	ldi	r21, 0x00	; 0
   1109c:	6e e3       	ldi	r22, 0x3E	; 62
   1109e:	71 e0       	ldi	r23, 0x01	; 1
   110a0:	85 ea       	ldi	r24, 0xA5	; 165
   110a2:	90 e0       	ldi	r25, 0x00	; 0
   110a4:	0e 94 72 6d 	call	0xdae4	; 0xdae4 <ILI9486_Draw_Line>
   110a8:	2e e3       	ldi	r18, 0x3E	; 62
   110aa:	31 e0       	ldi	r19, 0x01	; 1
   110ac:	49 e3       	ldi	r20, 0x39	; 57
   110ae:	51 e0       	ldi	r21, 0x01	; 1
   110b0:	6e e3       	ldi	r22, 0x3E	; 62
   110b2:	71 e0       	ldi	r23, 0x01	; 1
   110b4:	87 e3       	ldi	r24, 0x37	; 55
   110b6:	91 e0       	ldi	r25, 0x01	; 1
   110b8:	0e 94 72 6d 	call	0xdae4	; 0xdae4 <ILI9486_Draw_Line>
   110bc:	c5 ea       	ldi	r28, 0xA5	; 165
   110be:	d0 e0       	ldi	r29, 0x00	; 0
   110c0:	0b c0       	rjmp	.+22     	; 0x110d8 <Print_Boards_Main+0x842>
   110c2:	00 e0       	ldi	r16, 0x00	; 0
   110c4:	10 e0       	ldi	r17, 0x00	; 0
   110c6:	26 ee       	ldi	r18, 0xE6	; 230
   110c8:	30 e0       	ldi	r19, 0x00	; 0
   110ca:	ae 01       	movw	r20, r28
   110cc:	6c ed       	ldi	r22, 0xDC	; 220
   110ce:	70 e0       	ldi	r23, 0x00	; 0
   110d0:	ce 01       	movw	r24, r28
   110d2:	0e 94 72 6d 	call	0xdae4	; 0xdae4 <ILI9486_Draw_Line>
   110d6:	21 96       	adiw	r28, 0x01	; 1
   110d8:	c8 3a       	cpi	r28, 0xA8	; 168
   110da:	d1 05       	cpc	r29, r1
   110dc:	90 f3       	brcs	.-28     	; 0x110c2 <Print_Boards_Main+0x82c>
   110de:	c7 e3       	ldi	r28, 0x37	; 55
   110e0:	d1 e0       	ldi	r29, 0x01	; 1
   110e2:	0b c0       	rjmp	.+22     	; 0x110fa <Print_Boards_Main+0x864>
   110e4:	00 e0       	ldi	r16, 0x00	; 0
   110e6:	10 e0       	ldi	r17, 0x00	; 0
   110e8:	26 ee       	ldi	r18, 0xE6	; 230
   110ea:	30 e0       	ldi	r19, 0x00	; 0
   110ec:	ae 01       	movw	r20, r28
   110ee:	6c ed       	ldi	r22, 0xDC	; 220
   110f0:	70 e0       	ldi	r23, 0x00	; 0
   110f2:	ce 01       	movw	r24, r28
   110f4:	0e 94 72 6d 	call	0xdae4	; 0xdae4 <ILI9486_Draw_Line>
   110f8:	21 96       	adiw	r28, 0x01	; 1
   110fa:	ca 33       	cpi	r28, 0x3A	; 58
   110fc:	81 e0       	ldi	r24, 0x01	; 1
   110fe:	d8 07       	cpc	r29, r24
   11100:	88 f3       	brcs	.-30     	; 0x110e4 <Print_Boards_Main+0x84e>
   11102:	c9 ed       	ldi	r28, 0xD9	; 217
   11104:	d0 e0       	ldi	r29, 0x00	; 0
   11106:	0b c0       	rjmp	.+22     	; 0x1111e <Print_Boards_Main+0x888>
   11108:	00 e0       	ldi	r16, 0x00	; 0
   1110a:	10 e0       	ldi	r17, 0x00	; 0
   1110c:	9e 01       	movw	r18, r28
   1110e:	4a ea       	ldi	r20, 0xAA	; 170
   11110:	50 e0       	ldi	r21, 0x00	; 0
   11112:	be 01       	movw	r22, r28
   11114:	80 ea       	ldi	r24, 0xA0	; 160
   11116:	90 e0       	ldi	r25, 0x00	; 0
   11118:	0e 94 72 6d 	call	0xdae4	; 0xdae4 <ILI9486_Draw_Line>
   1111c:	21 96       	adiw	r28, 0x01	; 1
   1111e:	cc 3d       	cpi	r28, 0xDC	; 220
   11120:	d1 05       	cpc	r29, r1
   11122:	90 f3       	brcs	.-28     	; 0x11108 <Print_Boards_Main+0x872>
   11124:	c9 ed       	ldi	r28, 0xD9	; 217
   11126:	d0 e0       	ldi	r29, 0x00	; 0
   11128:	0b c0       	rjmp	.+22     	; 0x11140 <Print_Boards_Main+0x8aa>
   1112a:	00 e0       	ldi	r16, 0x00	; 0
   1112c:	10 e0       	ldi	r17, 0x00	; 0
   1112e:	9e 01       	movw	r18, r28
   11130:	40 e4       	ldi	r20, 0x40	; 64
   11132:	51 e0       	ldi	r21, 0x01	; 1
   11134:	be 01       	movw	r22, r28
   11136:	86 e3       	ldi	r24, 0x36	; 54
   11138:	91 e0       	ldi	r25, 0x01	; 1
   1113a:	0e 94 72 6d 	call	0xdae4	; 0xdae4 <ILI9486_Draw_Line>
   1113e:	21 96       	adiw	r28, 0x01	; 1
   11140:	cc 3d       	cpi	r28, 0xDC	; 220
   11142:	d1 05       	cpc	r29, r1
   11144:	90 f3       	brcs	.-28     	; 0x1112a <Print_Boards_Main+0x894>
   11146:	c9 e7       	ldi	r28, 0x79	; 121
   11148:	d0 e0       	ldi	r29, 0x00	; 0
   1114a:	0b c0       	rjmp	.+22     	; 0x11162 <Print_Boards_Main+0x8cc>
   1114c:	00 e0       	ldi	r16, 0x00	; 0
   1114e:	10 e0       	ldi	r17, 0x00	; 0
   11150:	9e 01       	movw	r18, r28
   11152:	40 ea       	ldi	r20, 0xA0	; 160
   11154:	50 e0       	ldi	r21, 0x00	; 0
   11156:	be 01       	movw	r22, r28
   11158:	8c e8       	ldi	r24, 0x8C	; 140
   1115a:	90 e0       	ldi	r25, 0x00	; 0
   1115c:	0e 94 72 6d 	call	0xdae4	; 0xdae4 <ILI9486_Draw_Line>
   11160:	21 96       	adiw	r28, 0x01	; 1
   11162:	cc 37       	cpi	r28, 0x7C	; 124
   11164:	d1 05       	cpc	r29, r1
   11166:	90 f3       	brcs	.-28     	; 0x1114c <Print_Boards_Main+0x8b6>
   11168:	c9 e7       	ldi	r28, 0x79	; 121
   1116a:	d0 e0       	ldi	r29, 0x00	; 0
   1116c:	0b c0       	rjmp	.+22     	; 0x11184 <Print_Boards_Main+0x8ee>
   1116e:	00 e0       	ldi	r16, 0x00	; 0
   11170:	10 e0       	ldi	r17, 0x00	; 0
   11172:	9e 01       	movw	r18, r28
   11174:	44 e5       	ldi	r20, 0x54	; 84
   11176:	51 e0       	ldi	r21, 0x01	; 1
   11178:	be 01       	movw	r22, r28
   1117a:	80 e4       	ldi	r24, 0x40	; 64
   1117c:	91 e0       	ldi	r25, 0x01	; 1
   1117e:	0e 94 72 6d 	call	0xdae4	; 0xdae4 <ILI9486_Draw_Line>
   11182:	21 96       	adiw	r28, 0x01	; 1
   11184:	cc 37       	cpi	r28, 0x7C	; 124
   11186:	d1 05       	cpc	r29, r1
   11188:	90 f3       	brcs	.-28     	; 0x1116e <Print_Boards_Main+0x8d8>
   1118a:	c2 ea       	ldi	r28, 0xA2	; 162
   1118c:	d0 e0       	ldi	r29, 0x00	; 0
   1118e:	0b c0       	rjmp	.+22     	; 0x111a6 <Print_Boards_Main+0x910>
   11190:	00 e0       	ldi	r16, 0x00	; 0
   11192:	10 e0       	ldi	r17, 0x00	; 0
   11194:	24 e6       	ldi	r18, 0x64	; 100
   11196:	30 e0       	ldi	r19, 0x00	; 0
   11198:	ae 01       	movw	r20, r28
   1119a:	60 e6       	ldi	r22, 0x60	; 96
   1119c:	70 e0       	ldi	r23, 0x00	; 0
   1119e:	ce 01       	movw	r24, r28
   111a0:	0e 94 72 6d 	call	0xdae4	; 0xdae4 <ILI9486_Draw_Line>
   111a4:	21 96       	adiw	r28, 0x01	; 1
   111a6:	c5 3a       	cpi	r28, 0xA5	; 165
   111a8:	d1 05       	cpc	r29, r1
   111aa:	90 f3       	brcs	.-28     	; 0x11190 <Print_Boards_Main+0x8fa>
   111ac:	c9 e3       	ldi	r28, 0x39	; 57
   111ae:	d1 e0       	ldi	r29, 0x01	; 1
   111b0:	0b c0       	rjmp	.+22     	; 0x111c8 <Print_Boards_Main+0x932>
   111b2:	00 e0       	ldi	r16, 0x00	; 0
   111b4:	10 e0       	ldi	r17, 0x00	; 0
   111b6:	24 e6       	ldi	r18, 0x64	; 100
   111b8:	30 e0       	ldi	r19, 0x00	; 0
   111ba:	ae 01       	movw	r20, r28
   111bc:	60 e6       	ldi	r22, 0x60	; 96
   111be:	70 e0       	ldi	r23, 0x00	; 0
   111c0:	ce 01       	movw	r24, r28
   111c2:	0e 94 72 6d 	call	0xdae4	; 0xdae4 <ILI9486_Draw_Line>
   111c6:	21 96       	adiw	r28, 0x01	; 1
   111c8:	cc 33       	cpi	r28, 0x3C	; 60
   111ca:	21 e0       	ldi	r18, 0x01	; 1
   111cc:	d2 07       	cpc	r29, r18
   111ce:	88 f3       	brcs	.-30     	; 0x111b2 <Print_Boards_Main+0x91c>
   111d0:	60 e0       	ldi	r22, 0x00	; 0
   111d2:	70 e0       	ldi	r23, 0x00	; 0
   111d4:	80 ee       	ldi	r24, 0xE0	; 224
   111d6:	9f ef       	ldi	r25, 0xFF	; 255
   111d8:	0e 94 00 71 	call	0xe200	; 0xe200 <ILI9486_SetTextColor>
   111dc:	60 ed       	ldi	r22, 0xD0	; 208
   111de:	70 e0       	ldi	r23, 0x00	; 0
   111e0:	8d e5       	ldi	r24, 0x5D	; 93
   111e2:	91 e0       	ldi	r25, 0x01	; 1
   111e4:	0e 94 52 75 	call	0xeaa4	; 0xeaa4 <ILI9486_SetCursor>
   111e8:	61 e0       	ldi	r22, 0x01	; 1
   111ea:	89 e9       	ldi	r24, 0x99	; 153
   111ec:	92 e0       	ldi	r25, 0x02	; 2
   111ee:	0e 94 90 77 	call	0xef20	; 0xef20 <ILI9486_Print_String14x24>
   111f2:	60 e0       	ldi	r22, 0x00	; 0
   111f4:	70 e0       	ldi	r23, 0x00	; 0
   111f6:	82 ea       	ldi	r24, 0xA2	; 162
   111f8:	9b ef       	ldi	r25, 0xFB	; 251
   111fa:	0e 94 00 71 	call	0xe200	; 0xe200 <ILI9486_SetTextColor>
   111fe:	60 ed       	ldi	r22, 0xD0	; 208
   11200:	70 e0       	ldi	r23, 0x00	; 0
   11202:	88 e2       	ldi	r24, 0x28	; 40
   11204:	90 e0       	ldi	r25, 0x00	; 0
   11206:	0e 94 52 75 	call	0xeaa4	; 0xeaa4 <ILI9486_SetCursor>
   1120a:	61 e0       	ldi	r22, 0x01	; 1
   1120c:	81 ea       	ldi	r24, 0xA1	; 161
   1120e:	92 e0       	ldi	r25, 0x02	; 2
   11210:	0e 94 90 77 	call	0xef20	; 0xef20 <ILI9486_Print_String14x24>
   11214:	df 91       	pop	r29
   11216:	cf 91       	pop	r28
   11218:	1f 91       	pop	r17
   1121a:	0f 91       	pop	r16
   1121c:	ff 90       	pop	r15
   1121e:	ef 90       	pop	r14
   11220:	df 90       	pop	r13
   11222:	cf 90       	pop	r12
   11224:	bf 90       	pop	r11
   11226:	af 90       	pop	r10
   11228:	9f 90       	pop	r9
   1122a:	8f 90       	pop	r8
   1122c:	7f 90       	pop	r7
   1122e:	6f 90       	pop	r6
   11230:	5f 90       	pop	r5
   11232:	4f 90       	pop	r4
   11234:	3f 90       	pop	r3
   11236:	2f 90       	pop	r2
   11238:	08 95       	ret

0001123a <Print_Menu_Page_Static>:
   1123a:	80 e0       	ldi	r24, 0x00	; 0
   1123c:	90 e0       	ldi	r25, 0x00	; 0
   1123e:	0e 94 b8 6b 	call	0xd770	; 0xd770 <ILI9486_FillScreen>
   11242:	81 e0       	ldi	r24, 0x01	; 1
   11244:	0e 94 67 69 	call	0xd2ce	; 0xd2ce <ILI9486_SetRotation>
   11248:	64 e1       	ldi	r22, 0x14	; 20
   1124a:	70 e0       	ldi	r23, 0x00	; 0
   1124c:	88 e2       	ldi	r24, 0x28	; 40
   1124e:	90 e0       	ldi	r25, 0x00	; 0
   11250:	0e 94 52 75 	call	0xeaa4	; 0xeaa4 <ILI9486_SetCursor>
   11254:	6f ef       	ldi	r22, 0xFF	; 255
   11256:	7f ef       	ldi	r23, 0xFF	; 255
   11258:	80 e0       	ldi	r24, 0x00	; 0
   1125a:	90 e0       	ldi	r25, 0x00	; 0
   1125c:	0e 94 00 71 	call	0xe200	; 0xe200 <ILI9486_SetTextColor>
   11260:	60 e0       	ldi	r22, 0x00	; 0
   11262:	88 ea       	ldi	r24, 0xA8	; 168
   11264:	92 e0       	ldi	r25, 0x02	; 2
   11266:	0e 94 5b 75 	call	0xeab6	; 0xeab6 <ILI9486_Print_String40x40>
   1126a:	66 e4       	ldi	r22, 0x46	; 70
   1126c:	70 e0       	ldi	r23, 0x00	; 0
   1126e:	88 e2       	ldi	r24, 0x28	; 40
   11270:	90 e0       	ldi	r25, 0x00	; 0
   11272:	0e 94 52 75 	call	0xeaa4	; 0xeaa4 <ILI9486_SetCursor>
   11276:	60 e0       	ldi	r22, 0x00	; 0
   11278:	70 e0       	ldi	r23, 0x00	; 0
   1127a:	8f ef       	ldi	r24, 0xFF	; 255
   1127c:	9f ef       	ldi	r25, 0xFF	; 255
   1127e:	0e 94 00 71 	call	0xe200	; 0xe200 <ILI9486_SetTextColor>
   11282:	60 e0       	ldi	r22, 0x00	; 0
   11284:	85 eb       	ldi	r24, 0xB5	; 181
   11286:	92 e0       	ldi	r25, 0x02	; 2
   11288:	0e 94 5b 75 	call	0xeab6	; 0xeab6 <ILI9486_Print_String40x40>
   1128c:	6e e6       	ldi	r22, 0x6E	; 110
   1128e:	70 e0       	ldi	r23, 0x00	; 0
   11290:	88 e2       	ldi	r24, 0x28	; 40
   11292:	90 e0       	ldi	r25, 0x00	; 0
   11294:	0e 94 52 75 	call	0xeaa4	; 0xeaa4 <ILI9486_SetCursor>
   11298:	60 e0       	ldi	r22, 0x00	; 0
   1129a:	82 ec       	ldi	r24, 0xC2	; 194
   1129c:	92 e0       	ldi	r25, 0x02	; 2
   1129e:	0e 94 5b 75 	call	0xeab6	; 0xeab6 <ILI9486_Print_String40x40>
   112a2:	66 e9       	ldi	r22, 0x96	; 150
   112a4:	70 e0       	ldi	r23, 0x00	; 0
   112a6:	88 e2       	ldi	r24, 0x28	; 40
   112a8:	90 e0       	ldi	r25, 0x00	; 0
   112aa:	0e 94 52 75 	call	0xeaa4	; 0xeaa4 <ILI9486_SetCursor>
   112ae:	60 e0       	ldi	r22, 0x00	; 0
   112b0:	8f ec       	ldi	r24, 0xCF	; 207
   112b2:	92 e0       	ldi	r25, 0x02	; 2
   112b4:	0e 94 5b 75 	call	0xeab6	; 0xeab6 <ILI9486_Print_String40x40>
   112b8:	6e eb       	ldi	r22, 0xBE	; 190
   112ba:	70 e0       	ldi	r23, 0x00	; 0
   112bc:	88 e2       	ldi	r24, 0x28	; 40
   112be:	90 e0       	ldi	r25, 0x00	; 0
   112c0:	0e 94 52 75 	call	0xeaa4	; 0xeaa4 <ILI9486_SetCursor>
   112c4:	60 e0       	ldi	r22, 0x00	; 0
   112c6:	8a ed       	ldi	r24, 0xDA	; 218
   112c8:	92 e0       	ldi	r25, 0x02	; 2
   112ca:	0c 94 5b 75 	jmp	0xeab6	; 0xeab6 <ILI9486_Print_String40x40>
   112ce:	08 95       	ret

000112d0 <Print_Menu_Page>:
   112d0:	cf 92       	push	r12
   112d2:	df 92       	push	r13
   112d4:	ef 92       	push	r14
   112d6:	ff 92       	push	r15
   112d8:	0f 93       	push	r16
   112da:	1f 93       	push	r17
   112dc:	80 91 e6 03 	lds	r24, 0x03E6	; 0x8003e6 <up_down_count>
   112e0:	83 78       	andi	r24, 0x83	; 131
   112e2:	1c f4       	brge	.+6      	; 0x112ea <Print_Menu_Page+0x1a>
   112e4:	81 50       	subi	r24, 0x01	; 1
   112e6:	8c 6f       	ori	r24, 0xFC	; 252
   112e8:	8f 5f       	subi	r24, 0xFF	; 255
   112ea:	81 30       	cpi	r24, 0x01	; 1
   112ec:	09 f4       	brne	.+2      	; 0x112f0 <Print_Menu_Page+0x20>
   112ee:	92 c0       	rjmp	.+292    	; 0x11414 <Print_Menu_Page+0x144>
   112f0:	1c f4       	brge	.+6      	; 0x112f8 <Print_Menu_Page+0x28>
   112f2:	88 23       	and	r24, r24
   112f4:	41 f0       	breq	.+16     	; 0x11306 <Print_Menu_Page+0x36>
   112f6:	26 c2       	rjmp	.+1100   	; 0x11744 <Print_Menu_Page+0x474>
   112f8:	82 30       	cpi	r24, 0x02	; 2
   112fa:	09 f4       	brne	.+2      	; 0x112fe <Print_Menu_Page+0x2e>
   112fc:	14 c1       	rjmp	.+552    	; 0x11526 <Print_Menu_Page+0x256>
   112fe:	83 30       	cpi	r24, 0x03	; 3
   11300:	09 f4       	brne	.+2      	; 0x11304 <Print_Menu_Page+0x34>
   11302:	9a c1       	rjmp	.+820    	; 0x11638 <Print_Menu_Page+0x368>
   11304:	1f c2       	rjmp	.+1086   	; 0x11744 <Print_Menu_Page+0x474>
   11306:	cc 24       	eor	r12, r12
   11308:	ca 94       	dec	r12
   1130a:	dc 2c       	mov	r13, r12
   1130c:	0f 2e       	mov	r0, r31
   1130e:	f8 e6       	ldi	r31, 0x68	; 104
   11310:	ef 2e       	mov	r14, r31
   11312:	f1 2c       	mov	r15, r1
   11314:	f0 2d       	mov	r31, r0
   11316:	06 e1       	ldi	r16, 0x16	; 22
   11318:	10 e0       	ldi	r17, 0x00	; 0
   1131a:	28 e5       	ldi	r18, 0x58	; 88
   1131c:	30 e0       	ldi	r19, 0x00	; 0
   1131e:	45 e2       	ldi	r20, 0x25	; 37
   11320:	50 e0       	ldi	r21, 0x00	; 0
   11322:	68 e4       	ldi	r22, 0x48	; 72
   11324:	70 e0       	ldi	r23, 0x00	; 0
   11326:	86 e1       	ldi	r24, 0x16	; 22
   11328:	90 e0       	ldi	r25, 0x00	; 0
   1132a:	0e 94 6b 6f 	call	0xded6	; 0xded6 <ILI9486_fillTriangle>
   1132e:	c1 2c       	mov	r12, r1
   11330:	d1 2c       	mov	r13, r1
   11332:	0f 2e       	mov	r0, r31
   11334:	f0 e9       	ldi	r31, 0x90	; 144
   11336:	ef 2e       	mov	r14, r31
   11338:	f1 2c       	mov	r15, r1
   1133a:	f0 2d       	mov	r31, r0
   1133c:	20 e8       	ldi	r18, 0x80	; 128
   1133e:	30 e0       	ldi	r19, 0x00	; 0
   11340:	45 e2       	ldi	r20, 0x25	; 37
   11342:	50 e0       	ldi	r21, 0x00	; 0
   11344:	60 e7       	ldi	r22, 0x70	; 112
   11346:	70 e0       	ldi	r23, 0x00	; 0
   11348:	86 e1       	ldi	r24, 0x16	; 22
   1134a:	90 e0       	ldi	r25, 0x00	; 0
   1134c:	0e 94 6b 6f 	call	0xded6	; 0xded6 <ILI9486_fillTriangle>
   11350:	0f 2e       	mov	r0, r31
   11352:	f8 eb       	ldi	r31, 0xB8	; 184
   11354:	ef 2e       	mov	r14, r31
   11356:	f1 2c       	mov	r15, r1
   11358:	f0 2d       	mov	r31, r0
   1135a:	28 ea       	ldi	r18, 0xA8	; 168
   1135c:	30 e0       	ldi	r19, 0x00	; 0
   1135e:	45 e2       	ldi	r20, 0x25	; 37
   11360:	50 e0       	ldi	r21, 0x00	; 0
   11362:	68 e9       	ldi	r22, 0x98	; 152
   11364:	70 e0       	ldi	r23, 0x00	; 0
   11366:	86 e1       	ldi	r24, 0x16	; 22
   11368:	90 e0       	ldi	r25, 0x00	; 0
   1136a:	0e 94 6b 6f 	call	0xded6	; 0xded6 <ILI9486_fillTriangle>
   1136e:	0f 2e       	mov	r0, r31
   11370:	f0 ee       	ldi	r31, 0xE0	; 224
   11372:	ef 2e       	mov	r14, r31
   11374:	f1 2c       	mov	r15, r1
   11376:	f0 2d       	mov	r31, r0
   11378:	20 ed       	ldi	r18, 0xD0	; 208
   1137a:	30 e0       	ldi	r19, 0x00	; 0
   1137c:	45 e2       	ldi	r20, 0x25	; 37
   1137e:	50 e0       	ldi	r21, 0x00	; 0
   11380:	60 ec       	ldi	r22, 0xC0	; 192
   11382:	70 e0       	ldi	r23, 0x00	; 0
   11384:	86 e1       	ldi	r24, 0x16	; 22
   11386:	90 e0       	ldi	r25, 0x00	; 0
   11388:	0e 94 6b 6f 	call	0xded6	; 0xded6 <ILI9486_fillTriangle>
   1138c:	cc 24       	eor	r12, r12
   1138e:	ca 94       	dec	r12
   11390:	dc 2c       	mov	r13, r12
   11392:	0f 2e       	mov	r0, r31
   11394:	f8 e6       	ldi	r31, 0x68	; 104
   11396:	ef 2e       	mov	r14, r31
   11398:	f1 2c       	mov	r15, r1
   1139a:	f0 2d       	mov	r31, r0
   1139c:	08 ec       	ldi	r16, 0xC8	; 200
   1139e:	11 e0       	ldi	r17, 0x01	; 1
   113a0:	28 e5       	ldi	r18, 0x58	; 88
   113a2:	30 e0       	ldi	r19, 0x00	; 0
   113a4:	49 eb       	ldi	r20, 0xB9	; 185
   113a6:	51 e0       	ldi	r21, 0x01	; 1
   113a8:	68 e4       	ldi	r22, 0x48	; 72
   113aa:	70 e0       	ldi	r23, 0x00	; 0
   113ac:	88 ec       	ldi	r24, 0xC8	; 200
   113ae:	91 e0       	ldi	r25, 0x01	; 1
   113b0:	0e 94 6b 6f 	call	0xded6	; 0xded6 <ILI9486_fillTriangle>
   113b4:	c1 2c       	mov	r12, r1
   113b6:	d1 2c       	mov	r13, r1
   113b8:	0f 2e       	mov	r0, r31
   113ba:	f0 e9       	ldi	r31, 0x90	; 144
   113bc:	ef 2e       	mov	r14, r31
   113be:	f1 2c       	mov	r15, r1
   113c0:	f0 2d       	mov	r31, r0
   113c2:	20 e8       	ldi	r18, 0x80	; 128
   113c4:	30 e0       	ldi	r19, 0x00	; 0
   113c6:	49 eb       	ldi	r20, 0xB9	; 185
   113c8:	51 e0       	ldi	r21, 0x01	; 1
   113ca:	60 e7       	ldi	r22, 0x70	; 112
   113cc:	70 e0       	ldi	r23, 0x00	; 0
   113ce:	88 ec       	ldi	r24, 0xC8	; 200
   113d0:	91 e0       	ldi	r25, 0x01	; 1
   113d2:	0e 94 6b 6f 	call	0xded6	; 0xded6 <ILI9486_fillTriangle>
   113d6:	0f 2e       	mov	r0, r31
   113d8:	f8 eb       	ldi	r31, 0xB8	; 184
   113da:	ef 2e       	mov	r14, r31
   113dc:	f1 2c       	mov	r15, r1
   113de:	f0 2d       	mov	r31, r0
   113e0:	28 ea       	ldi	r18, 0xA8	; 168
   113e2:	30 e0       	ldi	r19, 0x00	; 0
   113e4:	49 eb       	ldi	r20, 0xB9	; 185
   113e6:	51 e0       	ldi	r21, 0x01	; 1
   113e8:	68 e9       	ldi	r22, 0x98	; 152
   113ea:	70 e0       	ldi	r23, 0x00	; 0
   113ec:	88 ec       	ldi	r24, 0xC8	; 200
   113ee:	91 e0       	ldi	r25, 0x01	; 1
   113f0:	0e 94 6b 6f 	call	0xded6	; 0xded6 <ILI9486_fillTriangle>
   113f4:	0f 2e       	mov	r0, r31
   113f6:	f0 ee       	ldi	r31, 0xE0	; 224
   113f8:	ef 2e       	mov	r14, r31
   113fa:	f1 2c       	mov	r15, r1
   113fc:	f0 2d       	mov	r31, r0
   113fe:	20 ed       	ldi	r18, 0xD0	; 208
   11400:	30 e0       	ldi	r19, 0x00	; 0
   11402:	49 eb       	ldi	r20, 0xB9	; 185
   11404:	51 e0       	ldi	r21, 0x01	; 1
   11406:	60 ec       	ldi	r22, 0xC0	; 192
   11408:	70 e0       	ldi	r23, 0x00	; 0
   1140a:	88 ec       	ldi	r24, 0xC8	; 200
   1140c:	91 e0       	ldi	r25, 0x01	; 1
   1140e:	0e 94 6b 6f 	call	0xded6	; 0xded6 <ILI9486_fillTriangle>
   11412:	98 c1       	rjmp	.+816    	; 0x11744 <Print_Menu_Page+0x474>
   11414:	c1 2c       	mov	r12, r1
   11416:	d1 2c       	mov	r13, r1
   11418:	0f 2e       	mov	r0, r31
   1141a:	f8 e6       	ldi	r31, 0x68	; 104
   1141c:	ef 2e       	mov	r14, r31
   1141e:	f1 2c       	mov	r15, r1
   11420:	f0 2d       	mov	r31, r0
   11422:	06 e1       	ldi	r16, 0x16	; 22
   11424:	10 e0       	ldi	r17, 0x00	; 0
   11426:	28 e5       	ldi	r18, 0x58	; 88
   11428:	30 e0       	ldi	r19, 0x00	; 0
   1142a:	45 e2       	ldi	r20, 0x25	; 37
   1142c:	50 e0       	ldi	r21, 0x00	; 0
   1142e:	68 e4       	ldi	r22, 0x48	; 72
   11430:	70 e0       	ldi	r23, 0x00	; 0
   11432:	86 e1       	ldi	r24, 0x16	; 22
   11434:	90 e0       	ldi	r25, 0x00	; 0
   11436:	0e 94 6b 6f 	call	0xded6	; 0xded6 <ILI9486_fillTriangle>
   1143a:	cc 24       	eor	r12, r12
   1143c:	ca 94       	dec	r12
   1143e:	dc 2c       	mov	r13, r12
   11440:	0f 2e       	mov	r0, r31
   11442:	f0 e9       	ldi	r31, 0x90	; 144
   11444:	ef 2e       	mov	r14, r31
   11446:	f1 2c       	mov	r15, r1
   11448:	f0 2d       	mov	r31, r0
   1144a:	20 e8       	ldi	r18, 0x80	; 128
   1144c:	30 e0       	ldi	r19, 0x00	; 0
   1144e:	45 e2       	ldi	r20, 0x25	; 37
   11450:	50 e0       	ldi	r21, 0x00	; 0
   11452:	60 e7       	ldi	r22, 0x70	; 112
   11454:	70 e0       	ldi	r23, 0x00	; 0
   11456:	86 e1       	ldi	r24, 0x16	; 22
   11458:	90 e0       	ldi	r25, 0x00	; 0
   1145a:	0e 94 6b 6f 	call	0xded6	; 0xded6 <ILI9486_fillTriangle>
   1145e:	c1 2c       	mov	r12, r1
   11460:	d1 2c       	mov	r13, r1
   11462:	0f 2e       	mov	r0, r31
   11464:	f8 eb       	ldi	r31, 0xB8	; 184
   11466:	ef 2e       	mov	r14, r31
   11468:	f1 2c       	mov	r15, r1
   1146a:	f0 2d       	mov	r31, r0
   1146c:	28 ea       	ldi	r18, 0xA8	; 168
   1146e:	30 e0       	ldi	r19, 0x00	; 0
   11470:	45 e2       	ldi	r20, 0x25	; 37
   11472:	50 e0       	ldi	r21, 0x00	; 0
   11474:	68 e9       	ldi	r22, 0x98	; 152
   11476:	70 e0       	ldi	r23, 0x00	; 0
   11478:	86 e1       	ldi	r24, 0x16	; 22
   1147a:	90 e0       	ldi	r25, 0x00	; 0
   1147c:	0e 94 6b 6f 	call	0xded6	; 0xded6 <ILI9486_fillTriangle>
   11480:	0f 2e       	mov	r0, r31
   11482:	f0 ee       	ldi	r31, 0xE0	; 224
   11484:	ef 2e       	mov	r14, r31
   11486:	f1 2c       	mov	r15, r1
   11488:	f0 2d       	mov	r31, r0
   1148a:	20 ed       	ldi	r18, 0xD0	; 208
   1148c:	30 e0       	ldi	r19, 0x00	; 0
   1148e:	45 e2       	ldi	r20, 0x25	; 37
   11490:	50 e0       	ldi	r21, 0x00	; 0
   11492:	60 ec       	ldi	r22, 0xC0	; 192
   11494:	70 e0       	ldi	r23, 0x00	; 0
   11496:	86 e1       	ldi	r24, 0x16	; 22
   11498:	90 e0       	ldi	r25, 0x00	; 0
   1149a:	0e 94 6b 6f 	call	0xded6	; 0xded6 <ILI9486_fillTriangle>
   1149e:	0f 2e       	mov	r0, r31
   114a0:	f8 e6       	ldi	r31, 0x68	; 104
   114a2:	ef 2e       	mov	r14, r31
   114a4:	f1 2c       	mov	r15, r1
   114a6:	f0 2d       	mov	r31, r0
   114a8:	08 ec       	ldi	r16, 0xC8	; 200
   114aa:	11 e0       	ldi	r17, 0x01	; 1
   114ac:	28 e5       	ldi	r18, 0x58	; 88
   114ae:	30 e0       	ldi	r19, 0x00	; 0
   114b0:	49 eb       	ldi	r20, 0xB9	; 185
   114b2:	51 e0       	ldi	r21, 0x01	; 1
   114b4:	68 e4       	ldi	r22, 0x48	; 72
   114b6:	70 e0       	ldi	r23, 0x00	; 0
   114b8:	88 ec       	ldi	r24, 0xC8	; 200
   114ba:	91 e0       	ldi	r25, 0x01	; 1
   114bc:	0e 94 6b 6f 	call	0xded6	; 0xded6 <ILI9486_fillTriangle>
   114c0:	cc 24       	eor	r12, r12
   114c2:	ca 94       	dec	r12
   114c4:	dc 2c       	mov	r13, r12
   114c6:	0f 2e       	mov	r0, r31
   114c8:	f0 e9       	ldi	r31, 0x90	; 144
   114ca:	ef 2e       	mov	r14, r31
   114cc:	f1 2c       	mov	r15, r1
   114ce:	f0 2d       	mov	r31, r0
   114d0:	20 e8       	ldi	r18, 0x80	; 128
   114d2:	30 e0       	ldi	r19, 0x00	; 0
   114d4:	49 eb       	ldi	r20, 0xB9	; 185
   114d6:	51 e0       	ldi	r21, 0x01	; 1
   114d8:	60 e7       	ldi	r22, 0x70	; 112
   114da:	70 e0       	ldi	r23, 0x00	; 0
   114dc:	88 ec       	ldi	r24, 0xC8	; 200
   114de:	91 e0       	ldi	r25, 0x01	; 1
   114e0:	0e 94 6b 6f 	call	0xded6	; 0xded6 <ILI9486_fillTriangle>
   114e4:	c1 2c       	mov	r12, r1
   114e6:	d1 2c       	mov	r13, r1
   114e8:	0f 2e       	mov	r0, r31
   114ea:	f8 eb       	ldi	r31, 0xB8	; 184
   114ec:	ef 2e       	mov	r14, r31
   114ee:	f1 2c       	mov	r15, r1
   114f0:	f0 2d       	mov	r31, r0
   114f2:	28 ea       	ldi	r18, 0xA8	; 168
   114f4:	30 e0       	ldi	r19, 0x00	; 0
   114f6:	49 eb       	ldi	r20, 0xB9	; 185
   114f8:	51 e0       	ldi	r21, 0x01	; 1
   114fa:	68 e9       	ldi	r22, 0x98	; 152
   114fc:	70 e0       	ldi	r23, 0x00	; 0
   114fe:	88 ec       	ldi	r24, 0xC8	; 200
   11500:	91 e0       	ldi	r25, 0x01	; 1
   11502:	0e 94 6b 6f 	call	0xded6	; 0xded6 <ILI9486_fillTriangle>
   11506:	0f 2e       	mov	r0, r31
   11508:	f0 ee       	ldi	r31, 0xE0	; 224
   1150a:	ef 2e       	mov	r14, r31
   1150c:	f1 2c       	mov	r15, r1
   1150e:	f0 2d       	mov	r31, r0
   11510:	20 ed       	ldi	r18, 0xD0	; 208
   11512:	30 e0       	ldi	r19, 0x00	; 0
   11514:	49 eb       	ldi	r20, 0xB9	; 185
   11516:	51 e0       	ldi	r21, 0x01	; 1
   11518:	60 ec       	ldi	r22, 0xC0	; 192
   1151a:	70 e0       	ldi	r23, 0x00	; 0
   1151c:	88 ec       	ldi	r24, 0xC8	; 200
   1151e:	91 e0       	ldi	r25, 0x01	; 1
   11520:	0e 94 6b 6f 	call	0xded6	; 0xded6 <ILI9486_fillTriangle>
   11524:	0f c1       	rjmp	.+542    	; 0x11744 <Print_Menu_Page+0x474>
   11526:	c1 2c       	mov	r12, r1
   11528:	d1 2c       	mov	r13, r1
   1152a:	0f 2e       	mov	r0, r31
   1152c:	f8 e6       	ldi	r31, 0x68	; 104
   1152e:	ef 2e       	mov	r14, r31
   11530:	f1 2c       	mov	r15, r1
   11532:	f0 2d       	mov	r31, r0
   11534:	06 e1       	ldi	r16, 0x16	; 22
   11536:	10 e0       	ldi	r17, 0x00	; 0
   11538:	28 e5       	ldi	r18, 0x58	; 88
   1153a:	30 e0       	ldi	r19, 0x00	; 0
   1153c:	45 e2       	ldi	r20, 0x25	; 37
   1153e:	50 e0       	ldi	r21, 0x00	; 0
   11540:	68 e4       	ldi	r22, 0x48	; 72
   11542:	70 e0       	ldi	r23, 0x00	; 0
   11544:	86 e1       	ldi	r24, 0x16	; 22
   11546:	90 e0       	ldi	r25, 0x00	; 0
   11548:	0e 94 6b 6f 	call	0xded6	; 0xded6 <ILI9486_fillTriangle>
   1154c:	0f 2e       	mov	r0, r31
   1154e:	f0 e9       	ldi	r31, 0x90	; 144
   11550:	ef 2e       	mov	r14, r31
   11552:	f1 2c       	mov	r15, r1
   11554:	f0 2d       	mov	r31, r0
   11556:	20 e8       	ldi	r18, 0x80	; 128
   11558:	30 e0       	ldi	r19, 0x00	; 0
   1155a:	45 e2       	ldi	r20, 0x25	; 37
   1155c:	50 e0       	ldi	r21, 0x00	; 0
   1155e:	60 e7       	ldi	r22, 0x70	; 112
   11560:	70 e0       	ldi	r23, 0x00	; 0
   11562:	86 e1       	ldi	r24, 0x16	; 22
   11564:	90 e0       	ldi	r25, 0x00	; 0
   11566:	0e 94 6b 6f 	call	0xded6	; 0xded6 <ILI9486_fillTriangle>
   1156a:	cc 24       	eor	r12, r12
   1156c:	ca 94       	dec	r12
   1156e:	dc 2c       	mov	r13, r12
   11570:	0f 2e       	mov	r0, r31
   11572:	f8 eb       	ldi	r31, 0xB8	; 184
   11574:	ef 2e       	mov	r14, r31
   11576:	f1 2c       	mov	r15, r1
   11578:	f0 2d       	mov	r31, r0
   1157a:	28 ea       	ldi	r18, 0xA8	; 168
   1157c:	30 e0       	ldi	r19, 0x00	; 0
   1157e:	45 e2       	ldi	r20, 0x25	; 37
   11580:	50 e0       	ldi	r21, 0x00	; 0
   11582:	68 e9       	ldi	r22, 0x98	; 152
   11584:	70 e0       	ldi	r23, 0x00	; 0
   11586:	86 e1       	ldi	r24, 0x16	; 22
   11588:	90 e0       	ldi	r25, 0x00	; 0
   1158a:	0e 94 6b 6f 	call	0xded6	; 0xded6 <ILI9486_fillTriangle>
   1158e:	c1 2c       	mov	r12, r1
   11590:	d1 2c       	mov	r13, r1
   11592:	0f 2e       	mov	r0, r31
   11594:	f0 ee       	ldi	r31, 0xE0	; 224
   11596:	ef 2e       	mov	r14, r31
   11598:	f1 2c       	mov	r15, r1
   1159a:	f0 2d       	mov	r31, r0
   1159c:	20 ed       	ldi	r18, 0xD0	; 208
   1159e:	30 e0       	ldi	r19, 0x00	; 0
   115a0:	45 e2       	ldi	r20, 0x25	; 37
   115a2:	50 e0       	ldi	r21, 0x00	; 0
   115a4:	60 ec       	ldi	r22, 0xC0	; 192
   115a6:	70 e0       	ldi	r23, 0x00	; 0
   115a8:	86 e1       	ldi	r24, 0x16	; 22
   115aa:	90 e0       	ldi	r25, 0x00	; 0
   115ac:	0e 94 6b 6f 	call	0xded6	; 0xded6 <ILI9486_fillTriangle>
   115b0:	0f 2e       	mov	r0, r31
   115b2:	f8 e6       	ldi	r31, 0x68	; 104
   115b4:	ef 2e       	mov	r14, r31
   115b6:	f1 2c       	mov	r15, r1
   115b8:	f0 2d       	mov	r31, r0
   115ba:	08 ec       	ldi	r16, 0xC8	; 200
   115bc:	11 e0       	ldi	r17, 0x01	; 1
   115be:	28 e5       	ldi	r18, 0x58	; 88
   115c0:	30 e0       	ldi	r19, 0x00	; 0
   115c2:	49 eb       	ldi	r20, 0xB9	; 185
   115c4:	51 e0       	ldi	r21, 0x01	; 1
   115c6:	68 e4       	ldi	r22, 0x48	; 72
   115c8:	70 e0       	ldi	r23, 0x00	; 0
   115ca:	88 ec       	ldi	r24, 0xC8	; 200
   115cc:	91 e0       	ldi	r25, 0x01	; 1
   115ce:	0e 94 6b 6f 	call	0xded6	; 0xded6 <ILI9486_fillTriangle>
   115d2:	0f 2e       	mov	r0, r31
   115d4:	f0 e9       	ldi	r31, 0x90	; 144
   115d6:	ef 2e       	mov	r14, r31
   115d8:	f1 2c       	mov	r15, r1
   115da:	f0 2d       	mov	r31, r0
   115dc:	20 e8       	ldi	r18, 0x80	; 128
   115de:	30 e0       	ldi	r19, 0x00	; 0
   115e0:	49 eb       	ldi	r20, 0xB9	; 185
   115e2:	51 e0       	ldi	r21, 0x01	; 1
   115e4:	60 e7       	ldi	r22, 0x70	; 112
   115e6:	70 e0       	ldi	r23, 0x00	; 0
   115e8:	88 ec       	ldi	r24, 0xC8	; 200
   115ea:	91 e0       	ldi	r25, 0x01	; 1
   115ec:	0e 94 6b 6f 	call	0xded6	; 0xded6 <ILI9486_fillTriangle>
   115f0:	cc 24       	eor	r12, r12
   115f2:	ca 94       	dec	r12
   115f4:	dc 2c       	mov	r13, r12
   115f6:	0f 2e       	mov	r0, r31
   115f8:	f8 eb       	ldi	r31, 0xB8	; 184
   115fa:	ef 2e       	mov	r14, r31
   115fc:	f1 2c       	mov	r15, r1
   115fe:	f0 2d       	mov	r31, r0
   11600:	28 ea       	ldi	r18, 0xA8	; 168
   11602:	30 e0       	ldi	r19, 0x00	; 0
   11604:	49 eb       	ldi	r20, 0xB9	; 185
   11606:	51 e0       	ldi	r21, 0x01	; 1
   11608:	68 e9       	ldi	r22, 0x98	; 152
   1160a:	70 e0       	ldi	r23, 0x00	; 0
   1160c:	88 ec       	ldi	r24, 0xC8	; 200
   1160e:	91 e0       	ldi	r25, 0x01	; 1
   11610:	0e 94 6b 6f 	call	0xded6	; 0xded6 <ILI9486_fillTriangle>
   11614:	c1 2c       	mov	r12, r1
   11616:	d1 2c       	mov	r13, r1
   11618:	0f 2e       	mov	r0, r31
   1161a:	f0 ee       	ldi	r31, 0xE0	; 224
   1161c:	ef 2e       	mov	r14, r31
   1161e:	f1 2c       	mov	r15, r1
   11620:	f0 2d       	mov	r31, r0
   11622:	20 ed       	ldi	r18, 0xD0	; 208
   11624:	30 e0       	ldi	r19, 0x00	; 0
   11626:	49 eb       	ldi	r20, 0xB9	; 185
   11628:	51 e0       	ldi	r21, 0x01	; 1
   1162a:	60 ec       	ldi	r22, 0xC0	; 192
   1162c:	70 e0       	ldi	r23, 0x00	; 0
   1162e:	88 ec       	ldi	r24, 0xC8	; 200
   11630:	91 e0       	ldi	r25, 0x01	; 1
   11632:	0e 94 6b 6f 	call	0xded6	; 0xded6 <ILI9486_fillTriangle>
   11636:	86 c0       	rjmp	.+268    	; 0x11744 <Print_Menu_Page+0x474>
   11638:	c1 2c       	mov	r12, r1
   1163a:	d1 2c       	mov	r13, r1
   1163c:	0f 2e       	mov	r0, r31
   1163e:	f8 e6       	ldi	r31, 0x68	; 104
   11640:	ef 2e       	mov	r14, r31
   11642:	f1 2c       	mov	r15, r1
   11644:	f0 2d       	mov	r31, r0
   11646:	06 e1       	ldi	r16, 0x16	; 22
   11648:	10 e0       	ldi	r17, 0x00	; 0
   1164a:	28 e5       	ldi	r18, 0x58	; 88
   1164c:	30 e0       	ldi	r19, 0x00	; 0
   1164e:	45 e2       	ldi	r20, 0x25	; 37
   11650:	50 e0       	ldi	r21, 0x00	; 0
   11652:	68 e4       	ldi	r22, 0x48	; 72
   11654:	70 e0       	ldi	r23, 0x00	; 0
   11656:	86 e1       	ldi	r24, 0x16	; 22
   11658:	90 e0       	ldi	r25, 0x00	; 0
   1165a:	0e 94 6b 6f 	call	0xded6	; 0xded6 <ILI9486_fillTriangle>
   1165e:	0f 2e       	mov	r0, r31
   11660:	f0 e9       	ldi	r31, 0x90	; 144
   11662:	ef 2e       	mov	r14, r31
   11664:	f1 2c       	mov	r15, r1
   11666:	f0 2d       	mov	r31, r0
   11668:	20 e8       	ldi	r18, 0x80	; 128
   1166a:	30 e0       	ldi	r19, 0x00	; 0
   1166c:	45 e2       	ldi	r20, 0x25	; 37
   1166e:	50 e0       	ldi	r21, 0x00	; 0
   11670:	60 e7       	ldi	r22, 0x70	; 112
   11672:	70 e0       	ldi	r23, 0x00	; 0
   11674:	86 e1       	ldi	r24, 0x16	; 22
   11676:	90 e0       	ldi	r25, 0x00	; 0
   11678:	0e 94 6b 6f 	call	0xded6	; 0xded6 <ILI9486_fillTriangle>
   1167c:	0f 2e       	mov	r0, r31
   1167e:	f8 eb       	ldi	r31, 0xB8	; 184
   11680:	ef 2e       	mov	r14, r31
   11682:	f1 2c       	mov	r15, r1
   11684:	f0 2d       	mov	r31, r0
   11686:	28 ea       	ldi	r18, 0xA8	; 168
   11688:	30 e0       	ldi	r19, 0x00	; 0
   1168a:	45 e2       	ldi	r20, 0x25	; 37
   1168c:	50 e0       	ldi	r21, 0x00	; 0
   1168e:	68 e9       	ldi	r22, 0x98	; 152
   11690:	70 e0       	ldi	r23, 0x00	; 0
   11692:	86 e1       	ldi	r24, 0x16	; 22
   11694:	90 e0       	ldi	r25, 0x00	; 0
   11696:	0e 94 6b 6f 	call	0xded6	; 0xded6 <ILI9486_fillTriangle>
   1169a:	cc 24       	eor	r12, r12
   1169c:	ca 94       	dec	r12
   1169e:	dc 2c       	mov	r13, r12
   116a0:	0f 2e       	mov	r0, r31
   116a2:	f0 ee       	ldi	r31, 0xE0	; 224
   116a4:	ef 2e       	mov	r14, r31
   116a6:	f1 2c       	mov	r15, r1
   116a8:	f0 2d       	mov	r31, r0
   116aa:	20 ed       	ldi	r18, 0xD0	; 208
   116ac:	30 e0       	ldi	r19, 0x00	; 0
   116ae:	45 e2       	ldi	r20, 0x25	; 37
   116b0:	50 e0       	ldi	r21, 0x00	; 0
   116b2:	60 ec       	ldi	r22, 0xC0	; 192
   116b4:	70 e0       	ldi	r23, 0x00	; 0
   116b6:	86 e1       	ldi	r24, 0x16	; 22
   116b8:	90 e0       	ldi	r25, 0x00	; 0
   116ba:	0e 94 6b 6f 	call	0xded6	; 0xded6 <ILI9486_fillTriangle>
   116be:	c1 2c       	mov	r12, r1
   116c0:	d1 2c       	mov	r13, r1
   116c2:	0f 2e       	mov	r0, r31
   116c4:	f8 e6       	ldi	r31, 0x68	; 104
   116c6:	ef 2e       	mov	r14, r31
   116c8:	f1 2c       	mov	r15, r1
   116ca:	f0 2d       	mov	r31, r0
   116cc:	08 ec       	ldi	r16, 0xC8	; 200
   116ce:	11 e0       	ldi	r17, 0x01	; 1
   116d0:	28 e5       	ldi	r18, 0x58	; 88
   116d2:	30 e0       	ldi	r19, 0x00	; 0
   116d4:	49 eb       	ldi	r20, 0xB9	; 185
   116d6:	51 e0       	ldi	r21, 0x01	; 1
   116d8:	68 e4       	ldi	r22, 0x48	; 72
   116da:	70 e0       	ldi	r23, 0x00	; 0
   116dc:	88 ec       	ldi	r24, 0xC8	; 200
   116de:	91 e0       	ldi	r25, 0x01	; 1
   116e0:	0e 94 6b 6f 	call	0xded6	; 0xded6 <ILI9486_fillTriangle>
   116e4:	0f 2e       	mov	r0, r31
   116e6:	f0 e9       	ldi	r31, 0x90	; 144
   116e8:	ef 2e       	mov	r14, r31
   116ea:	f1 2c       	mov	r15, r1
   116ec:	f0 2d       	mov	r31, r0
   116ee:	20 e8       	ldi	r18, 0x80	; 128
   116f0:	30 e0       	ldi	r19, 0x00	; 0
   116f2:	49 eb       	ldi	r20, 0xB9	; 185
   116f4:	51 e0       	ldi	r21, 0x01	; 1
   116f6:	60 e7       	ldi	r22, 0x70	; 112
   116f8:	70 e0       	ldi	r23, 0x00	; 0
   116fa:	88 ec       	ldi	r24, 0xC8	; 200
   116fc:	91 e0       	ldi	r25, 0x01	; 1
   116fe:	0e 94 6b 6f 	call	0xded6	; 0xded6 <ILI9486_fillTriangle>
   11702:	0f 2e       	mov	r0, r31
   11704:	f8 eb       	ldi	r31, 0xB8	; 184
   11706:	ef 2e       	mov	r14, r31
   11708:	f1 2c       	mov	r15, r1
   1170a:	f0 2d       	mov	r31, r0
   1170c:	28 ea       	ldi	r18, 0xA8	; 168
   1170e:	30 e0       	ldi	r19, 0x00	; 0
   11710:	49 eb       	ldi	r20, 0xB9	; 185
   11712:	51 e0       	ldi	r21, 0x01	; 1
   11714:	68 e9       	ldi	r22, 0x98	; 152
   11716:	70 e0       	ldi	r23, 0x00	; 0
   11718:	88 ec       	ldi	r24, 0xC8	; 200
   1171a:	91 e0       	ldi	r25, 0x01	; 1
   1171c:	0e 94 6b 6f 	call	0xded6	; 0xded6 <ILI9486_fillTriangle>
   11720:	cc 24       	eor	r12, r12
   11722:	ca 94       	dec	r12
   11724:	dc 2c       	mov	r13, r12
   11726:	0f 2e       	mov	r0, r31
   11728:	f0 ee       	ldi	r31, 0xE0	; 224
   1172a:	ef 2e       	mov	r14, r31
   1172c:	f1 2c       	mov	r15, r1
   1172e:	f0 2d       	mov	r31, r0
   11730:	20 ed       	ldi	r18, 0xD0	; 208
   11732:	30 e0       	ldi	r19, 0x00	; 0
   11734:	49 eb       	ldi	r20, 0xB9	; 185
   11736:	51 e0       	ldi	r21, 0x01	; 1
   11738:	60 ec       	ldi	r22, 0xC0	; 192
   1173a:	70 e0       	ldi	r23, 0x00	; 0
   1173c:	88 ec       	ldi	r24, 0xC8	; 200
   1173e:	91 e0       	ldi	r25, 0x01	; 1
   11740:	0e 94 6b 6f 	call	0xded6	; 0xded6 <ILI9486_fillTriangle>
   11744:	1f 91       	pop	r17
   11746:	0f 91       	pop	r16
   11748:	ff 90       	pop	r15
   1174a:	ef 90       	pop	r14
   1174c:	df 90       	pop	r13
   1174e:	cf 90       	pop	r12
   11750:	08 95       	ret

00011752 <Print_Page_Clock_Settings>:
   11752:	0f 93       	push	r16
   11754:	1f 93       	push	r17
   11756:	80 91 e6 03 	lds	r24, 0x03E6	; 0x8003e6 <up_down_count>
   1175a:	87 78       	andi	r24, 0x87	; 135
   1175c:	1c f4       	brge	.+6      	; 0x11764 <Print_Page_Clock_Settings+0x12>
   1175e:	81 50       	subi	r24, 0x01	; 1
   11760:	88 6f       	ori	r24, 0xF8	; 248
   11762:	8f 5f       	subi	r24, 0xFF	; 255
   11764:	08 2e       	mov	r0, r24
   11766:	00 0c       	add	r0, r0
   11768:	99 0b       	sbc	r25, r25
   1176a:	aa 0b       	sbc	r26, r26
   1176c:	bb 0b       	sbc	r27, r27
   1176e:	88 30       	cpi	r24, 0x08	; 8
   11770:	91 05       	cpc	r25, r1
   11772:	08 f0       	brcs	.+2      	; 0x11776 <Print_Page_Clock_Settings+0x24>
   11774:	3a c5       	rjmp	.+2676   	; 0x121ea <Print_Page_Clock_Settings+0xa98>
   11776:	fc 01       	movw	r30, r24
   11778:	88 27       	eor	r24, r24
   1177a:	ee 58       	subi	r30, 0x8E	; 142
   1177c:	ff 4f       	sbci	r31, 0xFF	; 255
   1177e:	8f 4f       	sbci	r24, 0xFF	; 255
   11780:	0c 94 a2 9d 	jmp	0x13b44	; 0x13b44 <__tablejump2__>
   11784:	0f ef       	ldi	r16, 0xFF	; 255
   11786:	1f ef       	ldi	r17, 0xFF	; 255
   11788:	26 e3       	ldi	r18, 0x36	; 54
   1178a:	30 e0       	ldi	r19, 0x00	; 0
   1178c:	43 e4       	ldi	r20, 0x43	; 67
   1178e:	50 e0       	ldi	r21, 0x00	; 0
   11790:	61 e6       	ldi	r22, 0x61	; 97
   11792:	70 e0       	ldi	r23, 0x00	; 0
   11794:	8f e2       	ldi	r24, 0x2F	; 47
   11796:	90 e0       	ldi	r25, 0x00	; 0
   11798:	0e 94 3a 6f 	call	0xde74	; 0xde74 <ILI9486_DrawRect>
   1179c:	24 e3       	ldi	r18, 0x34	; 52
   1179e:	30 e0       	ldi	r19, 0x00	; 0
   117a0:	41 e4       	ldi	r20, 0x41	; 65
   117a2:	50 e0       	ldi	r21, 0x00	; 0
   117a4:	62 e6       	ldi	r22, 0x62	; 98
   117a6:	70 e0       	ldi	r23, 0x00	; 0
   117a8:	80 e3       	ldi	r24, 0x30	; 48
   117aa:	90 e0       	ldi	r25, 0x00	; 0
   117ac:	0e 94 3a 6f 	call	0xde74	; 0xde74 <ILI9486_DrawRect>
   117b0:	00 e0       	ldi	r16, 0x00	; 0
   117b2:	10 e0       	ldi	r17, 0x00	; 0
   117b4:	26 e3       	ldi	r18, 0x36	; 54
   117b6:	30 e0       	ldi	r19, 0x00	; 0
   117b8:	43 e4       	ldi	r20, 0x43	; 67
   117ba:	50 e0       	ldi	r21, 0x00	; 0
   117bc:	61 e6       	ldi	r22, 0x61	; 97
   117be:	70 e0       	ldi	r23, 0x00	; 0
   117c0:	87 ea       	ldi	r24, 0xA7	; 167
   117c2:	90 e0       	ldi	r25, 0x00	; 0
   117c4:	0e 94 3a 6f 	call	0xde74	; 0xde74 <ILI9486_DrawRect>
   117c8:	24 e3       	ldi	r18, 0x34	; 52
   117ca:	30 e0       	ldi	r19, 0x00	; 0
   117cc:	41 e4       	ldi	r20, 0x41	; 65
   117ce:	50 e0       	ldi	r21, 0x00	; 0
   117d0:	62 e6       	ldi	r22, 0x62	; 98
   117d2:	70 e0       	ldi	r23, 0x00	; 0
   117d4:	88 ea       	ldi	r24, 0xA8	; 168
   117d6:	90 e0       	ldi	r25, 0x00	; 0
   117d8:	0e 94 3a 6f 	call	0xde74	; 0xde74 <ILI9486_DrawRect>
   117dc:	26 e3       	ldi	r18, 0x36	; 54
   117de:	30 e0       	ldi	r19, 0x00	; 0
   117e0:	43 e4       	ldi	r20, 0x43	; 67
   117e2:	50 e0       	ldi	r21, 0x00	; 0
   117e4:	61 e6       	ldi	r22, 0x61	; 97
   117e6:	70 e0       	ldi	r23, 0x00	; 0
   117e8:	88 e3       	ldi	r24, 0x38	; 56
   117ea:	91 e0       	ldi	r25, 0x01	; 1
   117ec:	0e 94 3a 6f 	call	0xde74	; 0xde74 <ILI9486_DrawRect>
   117f0:	24 e3       	ldi	r18, 0x34	; 52
   117f2:	30 e0       	ldi	r19, 0x00	; 0
   117f4:	41 e4       	ldi	r20, 0x41	; 65
   117f6:	50 e0       	ldi	r21, 0x00	; 0
   117f8:	62 e6       	ldi	r22, 0x62	; 98
   117fa:	70 e0       	ldi	r23, 0x00	; 0
   117fc:	89 e3       	ldi	r24, 0x39	; 57
   117fe:	91 e0       	ldi	r25, 0x01	; 1
   11800:	0e 94 3a 6f 	call	0xde74	; 0xde74 <ILI9486_DrawRect>
   11804:	26 e3       	ldi	r18, 0x36	; 54
   11806:	30 e0       	ldi	r19, 0x00	; 0
   11808:	43 e4       	ldi	r20, 0x43	; 67
   1180a:	50 e0       	ldi	r21, 0x00	; 0
   1180c:	67 ea       	ldi	r22, 0xA7	; 167
   1180e:	70 e0       	ldi	r23, 0x00	; 0
   11810:	81 e6       	ldi	r24, 0x61	; 97
   11812:	90 e0       	ldi	r25, 0x00	; 0
   11814:	0e 94 3a 6f 	call	0xde74	; 0xde74 <ILI9486_DrawRect>
   11818:	24 e3       	ldi	r18, 0x34	; 52
   1181a:	30 e0       	ldi	r19, 0x00	; 0
   1181c:	41 e4       	ldi	r20, 0x41	; 65
   1181e:	50 e0       	ldi	r21, 0x00	; 0
   11820:	68 ea       	ldi	r22, 0xA8	; 168
   11822:	70 e0       	ldi	r23, 0x00	; 0
   11824:	82 e6       	ldi	r24, 0x62	; 98
   11826:	90 e0       	ldi	r25, 0x00	; 0
   11828:	0e 94 3a 6f 	call	0xde74	; 0xde74 <ILI9486_DrawRect>
   1182c:	26 e3       	ldi	r18, 0x36	; 54
   1182e:	30 e0       	ldi	r19, 0x00	; 0
   11830:	43 e4       	ldi	r20, 0x43	; 67
   11832:	50 e0       	ldi	r21, 0x00	; 0
   11834:	67 ea       	ldi	r22, 0xA7	; 167
   11836:	70 e0       	ldi	r23, 0x00	; 0
   11838:	8a ec       	ldi	r24, 0xCA	; 202
   1183a:	90 e0       	ldi	r25, 0x00	; 0
   1183c:	0e 94 3a 6f 	call	0xde74	; 0xde74 <ILI9486_DrawRect>
   11840:	24 e3       	ldi	r18, 0x34	; 52
   11842:	30 e0       	ldi	r19, 0x00	; 0
   11844:	41 e4       	ldi	r20, 0x41	; 65
   11846:	50 e0       	ldi	r21, 0x00	; 0
   11848:	68 ea       	ldi	r22, 0xA8	; 168
   1184a:	70 e0       	ldi	r23, 0x00	; 0
   1184c:	8b ec       	ldi	r24, 0xCB	; 203
   1184e:	90 e0       	ldi	r25, 0x00	; 0
   11850:	0e 94 3a 6f 	call	0xde74	; 0xde74 <ILI9486_DrawRect>
   11854:	26 e3       	ldi	r18, 0x36	; 54
   11856:	30 e0       	ldi	r19, 0x00	; 0
   11858:	43 e4       	ldi	r20, 0x43	; 67
   1185a:	50 e0       	ldi	r21, 0x00	; 0
   1185c:	67 ea       	ldi	r22, 0xA7	; 167
   1185e:	70 e0       	ldi	r23, 0x00	; 0
   11860:	88 e3       	ldi	r24, 0x38	; 56
   11862:	91 e0       	ldi	r25, 0x01	; 1
   11864:	0e 94 3a 6f 	call	0xde74	; 0xde74 <ILI9486_DrawRect>
   11868:	24 e3       	ldi	r18, 0x34	; 52
   1186a:	30 e0       	ldi	r19, 0x00	; 0
   1186c:	41 e4       	ldi	r20, 0x41	; 65
   1186e:	50 e0       	ldi	r21, 0x00	; 0
   11870:	68 ea       	ldi	r22, 0xA8	; 168
   11872:	70 e0       	ldi	r23, 0x00	; 0
   11874:	89 e3       	ldi	r24, 0x39	; 57
   11876:	91 e0       	ldi	r25, 0x01	; 1
   11878:	0e 94 3a 6f 	call	0xde74	; 0xde74 <ILI9486_DrawRect>
   1187c:	25 e2       	ldi	r18, 0x25	; 37
   1187e:	30 e0       	ldi	r19, 0x00	; 0
   11880:	40 e6       	ldi	r20, 0x60	; 96
   11882:	51 e0       	ldi	r21, 0x01	; 1
   11884:	63 ee       	ldi	r22, 0xE3	; 227
   11886:	70 e0       	ldi	r23, 0x00	; 0
   11888:	8b e4       	ldi	r24, 0x4B	; 75
   1188a:	90 e0       	ldi	r25, 0x00	; 0
   1188c:	0e 94 3a 6f 	call	0xde74	; 0xde74 <ILI9486_DrawRect>
   11890:	23 e2       	ldi	r18, 0x23	; 35
   11892:	30 e0       	ldi	r19, 0x00	; 0
   11894:	4e e5       	ldi	r20, 0x5E	; 94
   11896:	51 e0       	ldi	r21, 0x01	; 1
   11898:	64 ee       	ldi	r22, 0xE4	; 228
   1189a:	70 e0       	ldi	r23, 0x00	; 0
   1189c:	8c e4       	ldi	r24, 0x4C	; 76
   1189e:	90 e0       	ldi	r25, 0x00	; 0
   118a0:	0e 94 3a 6f 	call	0xde74	; 0xde74 <ILI9486_DrawRect>
   118a4:	2a e2       	ldi	r18, 0x2A	; 42
   118a6:	30 e0       	ldi	r19, 0x00	; 0
   118a8:	4e e9       	ldi	r20, 0x9E	; 158
   118aa:	51 e0       	ldi	r21, 0x01	; 1
   118ac:	61 e1       	ldi	r22, 0x11	; 17
   118ae:	71 e0       	ldi	r23, 0x01	; 1
   118b0:	85 e2       	ldi	r24, 0x25	; 37
   118b2:	90 e0       	ldi	r25, 0x00	; 0
   118b4:	0e 94 3a 6f 	call	0xde74	; 0xde74 <ILI9486_DrawRect>
   118b8:	28 e2       	ldi	r18, 0x28	; 40
   118ba:	30 e0       	ldi	r19, 0x00	; 0
   118bc:	4c e9       	ldi	r20, 0x9C	; 156
   118be:	51 e0       	ldi	r21, 0x01	; 1
   118c0:	62 e1       	ldi	r22, 0x12	; 18
   118c2:	71 e0       	ldi	r23, 0x01	; 1
   118c4:	86 e2       	ldi	r24, 0x26	; 38
   118c6:	90 e0       	ldi	r25, 0x00	; 0
   118c8:	0e 94 3a 6f 	call	0xde74	; 0xde74 <ILI9486_DrawRect>
   118cc:	8e c4       	rjmp	.+2332   	; 0x121ea <Print_Page_Clock_Settings+0xa98>
   118ce:	00 e0       	ldi	r16, 0x00	; 0
   118d0:	10 e0       	ldi	r17, 0x00	; 0
   118d2:	26 e3       	ldi	r18, 0x36	; 54
   118d4:	30 e0       	ldi	r19, 0x00	; 0
   118d6:	43 e4       	ldi	r20, 0x43	; 67
   118d8:	50 e0       	ldi	r21, 0x00	; 0
   118da:	61 e6       	ldi	r22, 0x61	; 97
   118dc:	70 e0       	ldi	r23, 0x00	; 0
   118de:	8f e2       	ldi	r24, 0x2F	; 47
   118e0:	90 e0       	ldi	r25, 0x00	; 0
   118e2:	0e 94 3a 6f 	call	0xde74	; 0xde74 <ILI9486_DrawRect>
   118e6:	24 e3       	ldi	r18, 0x34	; 52
   118e8:	30 e0       	ldi	r19, 0x00	; 0
   118ea:	41 e4       	ldi	r20, 0x41	; 65
   118ec:	50 e0       	ldi	r21, 0x00	; 0
   118ee:	62 e6       	ldi	r22, 0x62	; 98
   118f0:	70 e0       	ldi	r23, 0x00	; 0
   118f2:	80 e3       	ldi	r24, 0x30	; 48
   118f4:	90 e0       	ldi	r25, 0x00	; 0
   118f6:	0e 94 3a 6f 	call	0xde74	; 0xde74 <ILI9486_DrawRect>
   118fa:	0f ef       	ldi	r16, 0xFF	; 255
   118fc:	1f ef       	ldi	r17, 0xFF	; 255
   118fe:	26 e3       	ldi	r18, 0x36	; 54
   11900:	30 e0       	ldi	r19, 0x00	; 0
   11902:	43 e4       	ldi	r20, 0x43	; 67
   11904:	50 e0       	ldi	r21, 0x00	; 0
   11906:	61 e6       	ldi	r22, 0x61	; 97
   11908:	70 e0       	ldi	r23, 0x00	; 0
   1190a:	87 ea       	ldi	r24, 0xA7	; 167
   1190c:	90 e0       	ldi	r25, 0x00	; 0
   1190e:	0e 94 3a 6f 	call	0xde74	; 0xde74 <ILI9486_DrawRect>
   11912:	24 e3       	ldi	r18, 0x34	; 52
   11914:	30 e0       	ldi	r19, 0x00	; 0
   11916:	41 e4       	ldi	r20, 0x41	; 65
   11918:	50 e0       	ldi	r21, 0x00	; 0
   1191a:	62 e6       	ldi	r22, 0x62	; 98
   1191c:	70 e0       	ldi	r23, 0x00	; 0
   1191e:	88 ea       	ldi	r24, 0xA8	; 168
   11920:	90 e0       	ldi	r25, 0x00	; 0
   11922:	0e 94 3a 6f 	call	0xde74	; 0xde74 <ILI9486_DrawRect>
   11926:	00 e0       	ldi	r16, 0x00	; 0
   11928:	10 e0       	ldi	r17, 0x00	; 0
   1192a:	26 e3       	ldi	r18, 0x36	; 54
   1192c:	30 e0       	ldi	r19, 0x00	; 0
   1192e:	43 e4       	ldi	r20, 0x43	; 67
   11930:	50 e0       	ldi	r21, 0x00	; 0
   11932:	61 e6       	ldi	r22, 0x61	; 97
   11934:	70 e0       	ldi	r23, 0x00	; 0
   11936:	88 e3       	ldi	r24, 0x38	; 56
   11938:	91 e0       	ldi	r25, 0x01	; 1
   1193a:	0e 94 3a 6f 	call	0xde74	; 0xde74 <ILI9486_DrawRect>
   1193e:	24 e3       	ldi	r18, 0x34	; 52
   11940:	30 e0       	ldi	r19, 0x00	; 0
   11942:	41 e4       	ldi	r20, 0x41	; 65
   11944:	50 e0       	ldi	r21, 0x00	; 0
   11946:	62 e6       	ldi	r22, 0x62	; 98
   11948:	70 e0       	ldi	r23, 0x00	; 0
   1194a:	89 e3       	ldi	r24, 0x39	; 57
   1194c:	91 e0       	ldi	r25, 0x01	; 1
   1194e:	0e 94 3a 6f 	call	0xde74	; 0xde74 <ILI9486_DrawRect>
   11952:	26 e3       	ldi	r18, 0x36	; 54
   11954:	30 e0       	ldi	r19, 0x00	; 0
   11956:	43 e4       	ldi	r20, 0x43	; 67
   11958:	50 e0       	ldi	r21, 0x00	; 0
   1195a:	67 ea       	ldi	r22, 0xA7	; 167
   1195c:	70 e0       	ldi	r23, 0x00	; 0
   1195e:	81 e6       	ldi	r24, 0x61	; 97
   11960:	90 e0       	ldi	r25, 0x00	; 0
   11962:	0e 94 3a 6f 	call	0xde74	; 0xde74 <ILI9486_DrawRect>
   11966:	24 e3       	ldi	r18, 0x34	; 52
   11968:	30 e0       	ldi	r19, 0x00	; 0
   1196a:	41 e4       	ldi	r20, 0x41	; 65
   1196c:	50 e0       	ldi	r21, 0x00	; 0
   1196e:	68 ea       	ldi	r22, 0xA8	; 168
   11970:	70 e0       	ldi	r23, 0x00	; 0
   11972:	82 e6       	ldi	r24, 0x62	; 98
   11974:	90 e0       	ldi	r25, 0x00	; 0
   11976:	0e 94 3a 6f 	call	0xde74	; 0xde74 <ILI9486_DrawRect>
   1197a:	26 e3       	ldi	r18, 0x36	; 54
   1197c:	30 e0       	ldi	r19, 0x00	; 0
   1197e:	43 e4       	ldi	r20, 0x43	; 67
   11980:	50 e0       	ldi	r21, 0x00	; 0
   11982:	67 ea       	ldi	r22, 0xA7	; 167
   11984:	70 e0       	ldi	r23, 0x00	; 0
   11986:	8a ec       	ldi	r24, 0xCA	; 202
   11988:	90 e0       	ldi	r25, 0x00	; 0
   1198a:	0e 94 3a 6f 	call	0xde74	; 0xde74 <ILI9486_DrawRect>
   1198e:	24 e3       	ldi	r18, 0x34	; 52
   11990:	30 e0       	ldi	r19, 0x00	; 0
   11992:	41 e4       	ldi	r20, 0x41	; 65
   11994:	50 e0       	ldi	r21, 0x00	; 0
   11996:	68 ea       	ldi	r22, 0xA8	; 168
   11998:	70 e0       	ldi	r23, 0x00	; 0
   1199a:	8b ec       	ldi	r24, 0xCB	; 203
   1199c:	90 e0       	ldi	r25, 0x00	; 0
   1199e:	0e 94 3a 6f 	call	0xde74	; 0xde74 <ILI9486_DrawRect>
   119a2:	26 e3       	ldi	r18, 0x36	; 54
   119a4:	30 e0       	ldi	r19, 0x00	; 0
   119a6:	43 e4       	ldi	r20, 0x43	; 67
   119a8:	50 e0       	ldi	r21, 0x00	; 0
   119aa:	67 ea       	ldi	r22, 0xA7	; 167
   119ac:	70 e0       	ldi	r23, 0x00	; 0
   119ae:	88 e3       	ldi	r24, 0x38	; 56
   119b0:	91 e0       	ldi	r25, 0x01	; 1
   119b2:	0e 94 3a 6f 	call	0xde74	; 0xde74 <ILI9486_DrawRect>
   119b6:	24 e3       	ldi	r18, 0x34	; 52
   119b8:	30 e0       	ldi	r19, 0x00	; 0
   119ba:	41 e4       	ldi	r20, 0x41	; 65
   119bc:	50 e0       	ldi	r21, 0x00	; 0
   119be:	68 ea       	ldi	r22, 0xA8	; 168
   119c0:	70 e0       	ldi	r23, 0x00	; 0
   119c2:	89 e3       	ldi	r24, 0x39	; 57
   119c4:	91 e0       	ldi	r25, 0x01	; 1
   119c6:	0e 94 3a 6f 	call	0xde74	; 0xde74 <ILI9486_DrawRect>
   119ca:	25 e2       	ldi	r18, 0x25	; 37
   119cc:	30 e0       	ldi	r19, 0x00	; 0
   119ce:	40 e6       	ldi	r20, 0x60	; 96
   119d0:	51 e0       	ldi	r21, 0x01	; 1
   119d2:	63 ee       	ldi	r22, 0xE3	; 227
   119d4:	70 e0       	ldi	r23, 0x00	; 0
   119d6:	8b e4       	ldi	r24, 0x4B	; 75
   119d8:	90 e0       	ldi	r25, 0x00	; 0
   119da:	0e 94 3a 6f 	call	0xde74	; 0xde74 <ILI9486_DrawRect>
   119de:	23 e2       	ldi	r18, 0x23	; 35
   119e0:	30 e0       	ldi	r19, 0x00	; 0
   119e2:	4e e5       	ldi	r20, 0x5E	; 94
   119e4:	51 e0       	ldi	r21, 0x01	; 1
   119e6:	64 ee       	ldi	r22, 0xE4	; 228
   119e8:	70 e0       	ldi	r23, 0x00	; 0
   119ea:	8c e4       	ldi	r24, 0x4C	; 76
   119ec:	90 e0       	ldi	r25, 0x00	; 0
   119ee:	0e 94 3a 6f 	call	0xde74	; 0xde74 <ILI9486_DrawRect>
   119f2:	2a e2       	ldi	r18, 0x2A	; 42
   119f4:	30 e0       	ldi	r19, 0x00	; 0
   119f6:	4e e9       	ldi	r20, 0x9E	; 158
   119f8:	51 e0       	ldi	r21, 0x01	; 1
   119fa:	61 e1       	ldi	r22, 0x11	; 17
   119fc:	71 e0       	ldi	r23, 0x01	; 1
   119fe:	85 e2       	ldi	r24, 0x25	; 37
   11a00:	90 e0       	ldi	r25, 0x00	; 0
   11a02:	0e 94 3a 6f 	call	0xde74	; 0xde74 <ILI9486_DrawRect>
   11a06:	28 e2       	ldi	r18, 0x28	; 40
   11a08:	30 e0       	ldi	r19, 0x00	; 0
   11a0a:	4c e9       	ldi	r20, 0x9C	; 156
   11a0c:	51 e0       	ldi	r21, 0x01	; 1
   11a0e:	62 e1       	ldi	r22, 0x12	; 18
   11a10:	71 e0       	ldi	r23, 0x01	; 1
   11a12:	86 e2       	ldi	r24, 0x26	; 38
   11a14:	90 e0       	ldi	r25, 0x00	; 0
   11a16:	0e 94 3a 6f 	call	0xde74	; 0xde74 <ILI9486_DrawRect>
   11a1a:	e7 c3       	rjmp	.+1998   	; 0x121ea <Print_Page_Clock_Settings+0xa98>
   11a1c:	00 e0       	ldi	r16, 0x00	; 0
   11a1e:	10 e0       	ldi	r17, 0x00	; 0
   11a20:	26 e3       	ldi	r18, 0x36	; 54
   11a22:	30 e0       	ldi	r19, 0x00	; 0
   11a24:	43 e4       	ldi	r20, 0x43	; 67
   11a26:	50 e0       	ldi	r21, 0x00	; 0
   11a28:	61 e6       	ldi	r22, 0x61	; 97
   11a2a:	70 e0       	ldi	r23, 0x00	; 0
   11a2c:	8f e2       	ldi	r24, 0x2F	; 47
   11a2e:	90 e0       	ldi	r25, 0x00	; 0
   11a30:	0e 94 3a 6f 	call	0xde74	; 0xde74 <ILI9486_DrawRect>
   11a34:	24 e3       	ldi	r18, 0x34	; 52
   11a36:	30 e0       	ldi	r19, 0x00	; 0
   11a38:	41 e4       	ldi	r20, 0x41	; 65
   11a3a:	50 e0       	ldi	r21, 0x00	; 0
   11a3c:	62 e6       	ldi	r22, 0x62	; 98
   11a3e:	70 e0       	ldi	r23, 0x00	; 0
   11a40:	80 e3       	ldi	r24, 0x30	; 48
   11a42:	90 e0       	ldi	r25, 0x00	; 0
   11a44:	0e 94 3a 6f 	call	0xde74	; 0xde74 <ILI9486_DrawRect>
   11a48:	26 e3       	ldi	r18, 0x36	; 54
   11a4a:	30 e0       	ldi	r19, 0x00	; 0
   11a4c:	43 e4       	ldi	r20, 0x43	; 67
   11a4e:	50 e0       	ldi	r21, 0x00	; 0
   11a50:	61 e6       	ldi	r22, 0x61	; 97
   11a52:	70 e0       	ldi	r23, 0x00	; 0
   11a54:	87 ea       	ldi	r24, 0xA7	; 167
   11a56:	90 e0       	ldi	r25, 0x00	; 0
   11a58:	0e 94 3a 6f 	call	0xde74	; 0xde74 <ILI9486_DrawRect>
   11a5c:	24 e3       	ldi	r18, 0x34	; 52
   11a5e:	30 e0       	ldi	r19, 0x00	; 0
   11a60:	41 e4       	ldi	r20, 0x41	; 65
   11a62:	50 e0       	ldi	r21, 0x00	; 0
   11a64:	62 e6       	ldi	r22, 0x62	; 98
   11a66:	70 e0       	ldi	r23, 0x00	; 0
   11a68:	88 ea       	ldi	r24, 0xA8	; 168
   11a6a:	90 e0       	ldi	r25, 0x00	; 0
   11a6c:	0e 94 3a 6f 	call	0xde74	; 0xde74 <ILI9486_DrawRect>
   11a70:	0f ef       	ldi	r16, 0xFF	; 255
   11a72:	1f ef       	ldi	r17, 0xFF	; 255
   11a74:	26 e3       	ldi	r18, 0x36	; 54
   11a76:	30 e0       	ldi	r19, 0x00	; 0
   11a78:	43 e4       	ldi	r20, 0x43	; 67
   11a7a:	50 e0       	ldi	r21, 0x00	; 0
   11a7c:	61 e6       	ldi	r22, 0x61	; 97
   11a7e:	70 e0       	ldi	r23, 0x00	; 0
   11a80:	88 e3       	ldi	r24, 0x38	; 56
   11a82:	91 e0       	ldi	r25, 0x01	; 1
   11a84:	0e 94 3a 6f 	call	0xde74	; 0xde74 <ILI9486_DrawRect>
   11a88:	24 e3       	ldi	r18, 0x34	; 52
   11a8a:	30 e0       	ldi	r19, 0x00	; 0
   11a8c:	41 e4       	ldi	r20, 0x41	; 65
   11a8e:	50 e0       	ldi	r21, 0x00	; 0
   11a90:	62 e6       	ldi	r22, 0x62	; 98
   11a92:	70 e0       	ldi	r23, 0x00	; 0
   11a94:	89 e3       	ldi	r24, 0x39	; 57
   11a96:	91 e0       	ldi	r25, 0x01	; 1
   11a98:	0e 94 3a 6f 	call	0xde74	; 0xde74 <ILI9486_DrawRect>
   11a9c:	00 e0       	ldi	r16, 0x00	; 0
   11a9e:	10 e0       	ldi	r17, 0x00	; 0
   11aa0:	26 e3       	ldi	r18, 0x36	; 54
   11aa2:	30 e0       	ldi	r19, 0x00	; 0
   11aa4:	43 e4       	ldi	r20, 0x43	; 67
   11aa6:	50 e0       	ldi	r21, 0x00	; 0
   11aa8:	67 ea       	ldi	r22, 0xA7	; 167
   11aaa:	70 e0       	ldi	r23, 0x00	; 0
   11aac:	81 e6       	ldi	r24, 0x61	; 97
   11aae:	90 e0       	ldi	r25, 0x00	; 0
   11ab0:	0e 94 3a 6f 	call	0xde74	; 0xde74 <ILI9486_DrawRect>
   11ab4:	24 e3       	ldi	r18, 0x34	; 52
   11ab6:	30 e0       	ldi	r19, 0x00	; 0
   11ab8:	41 e4       	ldi	r20, 0x41	; 65
   11aba:	50 e0       	ldi	r21, 0x00	; 0
   11abc:	68 ea       	ldi	r22, 0xA8	; 168
   11abe:	70 e0       	ldi	r23, 0x00	; 0
   11ac0:	82 e6       	ldi	r24, 0x62	; 98
   11ac2:	90 e0       	ldi	r25, 0x00	; 0
   11ac4:	0e 94 3a 6f 	call	0xde74	; 0xde74 <ILI9486_DrawRect>
   11ac8:	26 e3       	ldi	r18, 0x36	; 54
   11aca:	30 e0       	ldi	r19, 0x00	; 0
   11acc:	43 e4       	ldi	r20, 0x43	; 67
   11ace:	50 e0       	ldi	r21, 0x00	; 0
   11ad0:	67 ea       	ldi	r22, 0xA7	; 167
   11ad2:	70 e0       	ldi	r23, 0x00	; 0
   11ad4:	8a ec       	ldi	r24, 0xCA	; 202
   11ad6:	90 e0       	ldi	r25, 0x00	; 0
   11ad8:	0e 94 3a 6f 	call	0xde74	; 0xde74 <ILI9486_DrawRect>
   11adc:	24 e3       	ldi	r18, 0x34	; 52
   11ade:	30 e0       	ldi	r19, 0x00	; 0
   11ae0:	41 e4       	ldi	r20, 0x41	; 65
   11ae2:	50 e0       	ldi	r21, 0x00	; 0
   11ae4:	68 ea       	ldi	r22, 0xA8	; 168
   11ae6:	70 e0       	ldi	r23, 0x00	; 0
   11ae8:	8b ec       	ldi	r24, 0xCB	; 203
   11aea:	90 e0       	ldi	r25, 0x00	; 0
   11aec:	0e 94 3a 6f 	call	0xde74	; 0xde74 <ILI9486_DrawRect>
   11af0:	26 e3       	ldi	r18, 0x36	; 54
   11af2:	30 e0       	ldi	r19, 0x00	; 0
   11af4:	43 e4       	ldi	r20, 0x43	; 67
   11af6:	50 e0       	ldi	r21, 0x00	; 0
   11af8:	67 ea       	ldi	r22, 0xA7	; 167
   11afa:	70 e0       	ldi	r23, 0x00	; 0
   11afc:	88 e3       	ldi	r24, 0x38	; 56
   11afe:	91 e0       	ldi	r25, 0x01	; 1
   11b00:	0e 94 3a 6f 	call	0xde74	; 0xde74 <ILI9486_DrawRect>
   11b04:	24 e3       	ldi	r18, 0x34	; 52
   11b06:	30 e0       	ldi	r19, 0x00	; 0
   11b08:	41 e4       	ldi	r20, 0x41	; 65
   11b0a:	50 e0       	ldi	r21, 0x00	; 0
   11b0c:	68 ea       	ldi	r22, 0xA8	; 168
   11b0e:	70 e0       	ldi	r23, 0x00	; 0
   11b10:	89 e3       	ldi	r24, 0x39	; 57
   11b12:	91 e0       	ldi	r25, 0x01	; 1
   11b14:	0e 94 3a 6f 	call	0xde74	; 0xde74 <ILI9486_DrawRect>
   11b18:	25 e2       	ldi	r18, 0x25	; 37
   11b1a:	30 e0       	ldi	r19, 0x00	; 0
   11b1c:	40 e6       	ldi	r20, 0x60	; 96
   11b1e:	51 e0       	ldi	r21, 0x01	; 1
   11b20:	63 ee       	ldi	r22, 0xE3	; 227
   11b22:	70 e0       	ldi	r23, 0x00	; 0
   11b24:	8b e4       	ldi	r24, 0x4B	; 75
   11b26:	90 e0       	ldi	r25, 0x00	; 0
   11b28:	0e 94 3a 6f 	call	0xde74	; 0xde74 <ILI9486_DrawRect>
   11b2c:	23 e2       	ldi	r18, 0x23	; 35
   11b2e:	30 e0       	ldi	r19, 0x00	; 0
   11b30:	4e e5       	ldi	r20, 0x5E	; 94
   11b32:	51 e0       	ldi	r21, 0x01	; 1
   11b34:	64 ee       	ldi	r22, 0xE4	; 228
   11b36:	70 e0       	ldi	r23, 0x00	; 0
   11b38:	8c e4       	ldi	r24, 0x4C	; 76
   11b3a:	90 e0       	ldi	r25, 0x00	; 0
   11b3c:	0e 94 3a 6f 	call	0xde74	; 0xde74 <ILI9486_DrawRect>
   11b40:	2a e2       	ldi	r18, 0x2A	; 42
   11b42:	30 e0       	ldi	r19, 0x00	; 0
   11b44:	4e e9       	ldi	r20, 0x9E	; 158
   11b46:	51 e0       	ldi	r21, 0x01	; 1
   11b48:	61 e1       	ldi	r22, 0x11	; 17
   11b4a:	71 e0       	ldi	r23, 0x01	; 1
   11b4c:	85 e2       	ldi	r24, 0x25	; 37
   11b4e:	90 e0       	ldi	r25, 0x00	; 0
   11b50:	0e 94 3a 6f 	call	0xde74	; 0xde74 <ILI9486_DrawRect>
   11b54:	28 e2       	ldi	r18, 0x28	; 40
   11b56:	30 e0       	ldi	r19, 0x00	; 0
   11b58:	4c e9       	ldi	r20, 0x9C	; 156
   11b5a:	51 e0       	ldi	r21, 0x01	; 1
   11b5c:	62 e1       	ldi	r22, 0x12	; 18
   11b5e:	71 e0       	ldi	r23, 0x01	; 1
   11b60:	86 e2       	ldi	r24, 0x26	; 38
   11b62:	90 e0       	ldi	r25, 0x00	; 0
   11b64:	0e 94 3a 6f 	call	0xde74	; 0xde74 <ILI9486_DrawRect>
   11b68:	40 c3       	rjmp	.+1664   	; 0x121ea <Print_Page_Clock_Settings+0xa98>
   11b6a:	00 e0       	ldi	r16, 0x00	; 0
   11b6c:	10 e0       	ldi	r17, 0x00	; 0
   11b6e:	26 e3       	ldi	r18, 0x36	; 54
   11b70:	30 e0       	ldi	r19, 0x00	; 0
   11b72:	43 e4       	ldi	r20, 0x43	; 67
   11b74:	50 e0       	ldi	r21, 0x00	; 0
   11b76:	61 e6       	ldi	r22, 0x61	; 97
   11b78:	70 e0       	ldi	r23, 0x00	; 0
   11b7a:	8f e2       	ldi	r24, 0x2F	; 47
   11b7c:	90 e0       	ldi	r25, 0x00	; 0
   11b7e:	0e 94 3a 6f 	call	0xde74	; 0xde74 <ILI9486_DrawRect>
   11b82:	24 e3       	ldi	r18, 0x34	; 52
   11b84:	30 e0       	ldi	r19, 0x00	; 0
   11b86:	41 e4       	ldi	r20, 0x41	; 65
   11b88:	50 e0       	ldi	r21, 0x00	; 0
   11b8a:	62 e6       	ldi	r22, 0x62	; 98
   11b8c:	70 e0       	ldi	r23, 0x00	; 0
   11b8e:	80 e3       	ldi	r24, 0x30	; 48
   11b90:	90 e0       	ldi	r25, 0x00	; 0
   11b92:	0e 94 3a 6f 	call	0xde74	; 0xde74 <ILI9486_DrawRect>
   11b96:	26 e3       	ldi	r18, 0x36	; 54
   11b98:	30 e0       	ldi	r19, 0x00	; 0
   11b9a:	43 e4       	ldi	r20, 0x43	; 67
   11b9c:	50 e0       	ldi	r21, 0x00	; 0
   11b9e:	61 e6       	ldi	r22, 0x61	; 97
   11ba0:	70 e0       	ldi	r23, 0x00	; 0
   11ba2:	87 ea       	ldi	r24, 0xA7	; 167
   11ba4:	90 e0       	ldi	r25, 0x00	; 0
   11ba6:	0e 94 3a 6f 	call	0xde74	; 0xde74 <ILI9486_DrawRect>
   11baa:	24 e3       	ldi	r18, 0x34	; 52
   11bac:	30 e0       	ldi	r19, 0x00	; 0
   11bae:	41 e4       	ldi	r20, 0x41	; 65
   11bb0:	50 e0       	ldi	r21, 0x00	; 0
   11bb2:	62 e6       	ldi	r22, 0x62	; 98
   11bb4:	70 e0       	ldi	r23, 0x00	; 0
   11bb6:	88 ea       	ldi	r24, 0xA8	; 168
   11bb8:	90 e0       	ldi	r25, 0x00	; 0
   11bba:	0e 94 3a 6f 	call	0xde74	; 0xde74 <ILI9486_DrawRect>
   11bbe:	26 e3       	ldi	r18, 0x36	; 54
   11bc0:	30 e0       	ldi	r19, 0x00	; 0
   11bc2:	43 e4       	ldi	r20, 0x43	; 67
   11bc4:	50 e0       	ldi	r21, 0x00	; 0
   11bc6:	61 e6       	ldi	r22, 0x61	; 97
   11bc8:	70 e0       	ldi	r23, 0x00	; 0
   11bca:	88 e3       	ldi	r24, 0x38	; 56
   11bcc:	91 e0       	ldi	r25, 0x01	; 1
   11bce:	0e 94 3a 6f 	call	0xde74	; 0xde74 <ILI9486_DrawRect>
   11bd2:	24 e3       	ldi	r18, 0x34	; 52
   11bd4:	30 e0       	ldi	r19, 0x00	; 0
   11bd6:	41 e4       	ldi	r20, 0x41	; 65
   11bd8:	50 e0       	ldi	r21, 0x00	; 0
   11bda:	62 e6       	ldi	r22, 0x62	; 98
   11bdc:	70 e0       	ldi	r23, 0x00	; 0
   11bde:	89 e3       	ldi	r24, 0x39	; 57
   11be0:	91 e0       	ldi	r25, 0x01	; 1
   11be2:	0e 94 3a 6f 	call	0xde74	; 0xde74 <ILI9486_DrawRect>
   11be6:	0f ef       	ldi	r16, 0xFF	; 255
   11be8:	1f ef       	ldi	r17, 0xFF	; 255
   11bea:	26 e3       	ldi	r18, 0x36	; 54
   11bec:	30 e0       	ldi	r19, 0x00	; 0
   11bee:	43 e4       	ldi	r20, 0x43	; 67
   11bf0:	50 e0       	ldi	r21, 0x00	; 0
   11bf2:	67 ea       	ldi	r22, 0xA7	; 167
   11bf4:	70 e0       	ldi	r23, 0x00	; 0
   11bf6:	81 e6       	ldi	r24, 0x61	; 97
   11bf8:	90 e0       	ldi	r25, 0x00	; 0
   11bfa:	0e 94 3a 6f 	call	0xde74	; 0xde74 <ILI9486_DrawRect>
   11bfe:	24 e3       	ldi	r18, 0x34	; 52
   11c00:	30 e0       	ldi	r19, 0x00	; 0
   11c02:	41 e4       	ldi	r20, 0x41	; 65
   11c04:	50 e0       	ldi	r21, 0x00	; 0
   11c06:	68 ea       	ldi	r22, 0xA8	; 168
   11c08:	70 e0       	ldi	r23, 0x00	; 0
   11c0a:	82 e6       	ldi	r24, 0x62	; 98
   11c0c:	90 e0       	ldi	r25, 0x00	; 0
   11c0e:	0e 94 3a 6f 	call	0xde74	; 0xde74 <ILI9486_DrawRect>
   11c12:	00 e0       	ldi	r16, 0x00	; 0
   11c14:	10 e0       	ldi	r17, 0x00	; 0
   11c16:	26 e3       	ldi	r18, 0x36	; 54
   11c18:	30 e0       	ldi	r19, 0x00	; 0
   11c1a:	43 e4       	ldi	r20, 0x43	; 67
   11c1c:	50 e0       	ldi	r21, 0x00	; 0
   11c1e:	67 ea       	ldi	r22, 0xA7	; 167
   11c20:	70 e0       	ldi	r23, 0x00	; 0
   11c22:	8a ec       	ldi	r24, 0xCA	; 202
   11c24:	90 e0       	ldi	r25, 0x00	; 0
   11c26:	0e 94 3a 6f 	call	0xde74	; 0xde74 <ILI9486_DrawRect>
   11c2a:	24 e3       	ldi	r18, 0x34	; 52
   11c2c:	30 e0       	ldi	r19, 0x00	; 0
   11c2e:	41 e4       	ldi	r20, 0x41	; 65
   11c30:	50 e0       	ldi	r21, 0x00	; 0
   11c32:	68 ea       	ldi	r22, 0xA8	; 168
   11c34:	70 e0       	ldi	r23, 0x00	; 0
   11c36:	8b ec       	ldi	r24, 0xCB	; 203
   11c38:	90 e0       	ldi	r25, 0x00	; 0
   11c3a:	0e 94 3a 6f 	call	0xde74	; 0xde74 <ILI9486_DrawRect>
   11c3e:	26 e3       	ldi	r18, 0x36	; 54
   11c40:	30 e0       	ldi	r19, 0x00	; 0
   11c42:	43 e4       	ldi	r20, 0x43	; 67
   11c44:	50 e0       	ldi	r21, 0x00	; 0
   11c46:	67 ea       	ldi	r22, 0xA7	; 167
   11c48:	70 e0       	ldi	r23, 0x00	; 0
   11c4a:	88 e3       	ldi	r24, 0x38	; 56
   11c4c:	91 e0       	ldi	r25, 0x01	; 1
   11c4e:	0e 94 3a 6f 	call	0xde74	; 0xde74 <ILI9486_DrawRect>
   11c52:	24 e3       	ldi	r18, 0x34	; 52
   11c54:	30 e0       	ldi	r19, 0x00	; 0
   11c56:	41 e4       	ldi	r20, 0x41	; 65
   11c58:	50 e0       	ldi	r21, 0x00	; 0
   11c5a:	68 ea       	ldi	r22, 0xA8	; 168
   11c5c:	70 e0       	ldi	r23, 0x00	; 0
   11c5e:	89 e3       	ldi	r24, 0x39	; 57
   11c60:	91 e0       	ldi	r25, 0x01	; 1
   11c62:	0e 94 3a 6f 	call	0xde74	; 0xde74 <ILI9486_DrawRect>
   11c66:	25 e2       	ldi	r18, 0x25	; 37
   11c68:	30 e0       	ldi	r19, 0x00	; 0
   11c6a:	40 e6       	ldi	r20, 0x60	; 96
   11c6c:	51 e0       	ldi	r21, 0x01	; 1
   11c6e:	63 ee       	ldi	r22, 0xE3	; 227
   11c70:	70 e0       	ldi	r23, 0x00	; 0
   11c72:	8b e4       	ldi	r24, 0x4B	; 75
   11c74:	90 e0       	ldi	r25, 0x00	; 0
   11c76:	0e 94 3a 6f 	call	0xde74	; 0xde74 <ILI9486_DrawRect>
   11c7a:	23 e2       	ldi	r18, 0x23	; 35
   11c7c:	30 e0       	ldi	r19, 0x00	; 0
   11c7e:	4e e5       	ldi	r20, 0x5E	; 94
   11c80:	51 e0       	ldi	r21, 0x01	; 1
   11c82:	64 ee       	ldi	r22, 0xE4	; 228
   11c84:	70 e0       	ldi	r23, 0x00	; 0
   11c86:	8c e4       	ldi	r24, 0x4C	; 76
   11c88:	90 e0       	ldi	r25, 0x00	; 0
   11c8a:	0e 94 3a 6f 	call	0xde74	; 0xde74 <ILI9486_DrawRect>
   11c8e:	2a e2       	ldi	r18, 0x2A	; 42
   11c90:	30 e0       	ldi	r19, 0x00	; 0
   11c92:	4e e9       	ldi	r20, 0x9E	; 158
   11c94:	51 e0       	ldi	r21, 0x01	; 1
   11c96:	61 e1       	ldi	r22, 0x11	; 17
   11c98:	71 e0       	ldi	r23, 0x01	; 1
   11c9a:	85 e2       	ldi	r24, 0x25	; 37
   11c9c:	90 e0       	ldi	r25, 0x00	; 0
   11c9e:	0e 94 3a 6f 	call	0xde74	; 0xde74 <ILI9486_DrawRect>
   11ca2:	28 e2       	ldi	r18, 0x28	; 40
   11ca4:	30 e0       	ldi	r19, 0x00	; 0
   11ca6:	4c e9       	ldi	r20, 0x9C	; 156
   11ca8:	51 e0       	ldi	r21, 0x01	; 1
   11caa:	62 e1       	ldi	r22, 0x12	; 18
   11cac:	71 e0       	ldi	r23, 0x01	; 1
   11cae:	86 e2       	ldi	r24, 0x26	; 38
   11cb0:	90 e0       	ldi	r25, 0x00	; 0
   11cb2:	0e 94 3a 6f 	call	0xde74	; 0xde74 <ILI9486_DrawRect>
   11cb6:	99 c2       	rjmp	.+1330   	; 0x121ea <Print_Page_Clock_Settings+0xa98>
   11cb8:	00 e0       	ldi	r16, 0x00	; 0
   11cba:	10 e0       	ldi	r17, 0x00	; 0
   11cbc:	26 e3       	ldi	r18, 0x36	; 54
   11cbe:	30 e0       	ldi	r19, 0x00	; 0
   11cc0:	43 e4       	ldi	r20, 0x43	; 67
   11cc2:	50 e0       	ldi	r21, 0x00	; 0
   11cc4:	61 e6       	ldi	r22, 0x61	; 97
   11cc6:	70 e0       	ldi	r23, 0x00	; 0
   11cc8:	8f e2       	ldi	r24, 0x2F	; 47
   11cca:	90 e0       	ldi	r25, 0x00	; 0
   11ccc:	0e 94 3a 6f 	call	0xde74	; 0xde74 <ILI9486_DrawRect>
   11cd0:	24 e3       	ldi	r18, 0x34	; 52
   11cd2:	30 e0       	ldi	r19, 0x00	; 0
   11cd4:	41 e4       	ldi	r20, 0x41	; 65
   11cd6:	50 e0       	ldi	r21, 0x00	; 0
   11cd8:	62 e6       	ldi	r22, 0x62	; 98
   11cda:	70 e0       	ldi	r23, 0x00	; 0
   11cdc:	80 e3       	ldi	r24, 0x30	; 48
   11cde:	90 e0       	ldi	r25, 0x00	; 0
   11ce0:	0e 94 3a 6f 	call	0xde74	; 0xde74 <ILI9486_DrawRect>
   11ce4:	26 e3       	ldi	r18, 0x36	; 54
   11ce6:	30 e0       	ldi	r19, 0x00	; 0
   11ce8:	43 e4       	ldi	r20, 0x43	; 67
   11cea:	50 e0       	ldi	r21, 0x00	; 0
   11cec:	61 e6       	ldi	r22, 0x61	; 97
   11cee:	70 e0       	ldi	r23, 0x00	; 0
   11cf0:	87 ea       	ldi	r24, 0xA7	; 167
   11cf2:	90 e0       	ldi	r25, 0x00	; 0
   11cf4:	0e 94 3a 6f 	call	0xde74	; 0xde74 <ILI9486_DrawRect>
   11cf8:	24 e3       	ldi	r18, 0x34	; 52
   11cfa:	30 e0       	ldi	r19, 0x00	; 0
   11cfc:	41 e4       	ldi	r20, 0x41	; 65
   11cfe:	50 e0       	ldi	r21, 0x00	; 0
   11d00:	62 e6       	ldi	r22, 0x62	; 98
   11d02:	70 e0       	ldi	r23, 0x00	; 0
   11d04:	88 ea       	ldi	r24, 0xA8	; 168
   11d06:	90 e0       	ldi	r25, 0x00	; 0
   11d08:	0e 94 3a 6f 	call	0xde74	; 0xde74 <ILI9486_DrawRect>
   11d0c:	26 e3       	ldi	r18, 0x36	; 54
   11d0e:	30 e0       	ldi	r19, 0x00	; 0
   11d10:	43 e4       	ldi	r20, 0x43	; 67
   11d12:	50 e0       	ldi	r21, 0x00	; 0
   11d14:	61 e6       	ldi	r22, 0x61	; 97
   11d16:	70 e0       	ldi	r23, 0x00	; 0
   11d18:	88 e3       	ldi	r24, 0x38	; 56
   11d1a:	91 e0       	ldi	r25, 0x01	; 1
   11d1c:	0e 94 3a 6f 	call	0xde74	; 0xde74 <ILI9486_DrawRect>
   11d20:	24 e3       	ldi	r18, 0x34	; 52
   11d22:	30 e0       	ldi	r19, 0x00	; 0
   11d24:	41 e4       	ldi	r20, 0x41	; 65
   11d26:	50 e0       	ldi	r21, 0x00	; 0
   11d28:	62 e6       	ldi	r22, 0x62	; 98
   11d2a:	70 e0       	ldi	r23, 0x00	; 0
   11d2c:	89 e3       	ldi	r24, 0x39	; 57
   11d2e:	91 e0       	ldi	r25, 0x01	; 1
   11d30:	0e 94 3a 6f 	call	0xde74	; 0xde74 <ILI9486_DrawRect>
   11d34:	26 e3       	ldi	r18, 0x36	; 54
   11d36:	30 e0       	ldi	r19, 0x00	; 0
   11d38:	43 e4       	ldi	r20, 0x43	; 67
   11d3a:	50 e0       	ldi	r21, 0x00	; 0
   11d3c:	67 ea       	ldi	r22, 0xA7	; 167
   11d3e:	70 e0       	ldi	r23, 0x00	; 0
   11d40:	81 e6       	ldi	r24, 0x61	; 97
   11d42:	90 e0       	ldi	r25, 0x00	; 0
   11d44:	0e 94 3a 6f 	call	0xde74	; 0xde74 <ILI9486_DrawRect>
   11d48:	24 e3       	ldi	r18, 0x34	; 52
   11d4a:	30 e0       	ldi	r19, 0x00	; 0
   11d4c:	41 e4       	ldi	r20, 0x41	; 65
   11d4e:	50 e0       	ldi	r21, 0x00	; 0
   11d50:	68 ea       	ldi	r22, 0xA8	; 168
   11d52:	70 e0       	ldi	r23, 0x00	; 0
   11d54:	82 e6       	ldi	r24, 0x62	; 98
   11d56:	90 e0       	ldi	r25, 0x00	; 0
   11d58:	0e 94 3a 6f 	call	0xde74	; 0xde74 <ILI9486_DrawRect>
   11d5c:	0f ef       	ldi	r16, 0xFF	; 255
   11d5e:	1f ef       	ldi	r17, 0xFF	; 255
   11d60:	26 e3       	ldi	r18, 0x36	; 54
   11d62:	30 e0       	ldi	r19, 0x00	; 0
   11d64:	43 e4       	ldi	r20, 0x43	; 67
   11d66:	50 e0       	ldi	r21, 0x00	; 0
   11d68:	67 ea       	ldi	r22, 0xA7	; 167
   11d6a:	70 e0       	ldi	r23, 0x00	; 0
   11d6c:	8a ec       	ldi	r24, 0xCA	; 202
   11d6e:	90 e0       	ldi	r25, 0x00	; 0
   11d70:	0e 94 3a 6f 	call	0xde74	; 0xde74 <ILI9486_DrawRect>
   11d74:	24 e3       	ldi	r18, 0x34	; 52
   11d76:	30 e0       	ldi	r19, 0x00	; 0
   11d78:	41 e4       	ldi	r20, 0x41	; 65
   11d7a:	50 e0       	ldi	r21, 0x00	; 0
   11d7c:	68 ea       	ldi	r22, 0xA8	; 168
   11d7e:	70 e0       	ldi	r23, 0x00	; 0
   11d80:	8b ec       	ldi	r24, 0xCB	; 203
   11d82:	90 e0       	ldi	r25, 0x00	; 0
   11d84:	0e 94 3a 6f 	call	0xde74	; 0xde74 <ILI9486_DrawRect>
   11d88:	00 e0       	ldi	r16, 0x00	; 0
   11d8a:	10 e0       	ldi	r17, 0x00	; 0
   11d8c:	26 e3       	ldi	r18, 0x36	; 54
   11d8e:	30 e0       	ldi	r19, 0x00	; 0
   11d90:	43 e4       	ldi	r20, 0x43	; 67
   11d92:	50 e0       	ldi	r21, 0x00	; 0
   11d94:	67 ea       	ldi	r22, 0xA7	; 167
   11d96:	70 e0       	ldi	r23, 0x00	; 0
   11d98:	88 e3       	ldi	r24, 0x38	; 56
   11d9a:	91 e0       	ldi	r25, 0x01	; 1
   11d9c:	0e 94 3a 6f 	call	0xde74	; 0xde74 <ILI9486_DrawRect>
   11da0:	24 e3       	ldi	r18, 0x34	; 52
   11da2:	30 e0       	ldi	r19, 0x00	; 0
   11da4:	41 e4       	ldi	r20, 0x41	; 65
   11da6:	50 e0       	ldi	r21, 0x00	; 0
   11da8:	68 ea       	ldi	r22, 0xA8	; 168
   11daa:	70 e0       	ldi	r23, 0x00	; 0
   11dac:	89 e3       	ldi	r24, 0x39	; 57
   11dae:	91 e0       	ldi	r25, 0x01	; 1
   11db0:	0e 94 3a 6f 	call	0xde74	; 0xde74 <ILI9486_DrawRect>
   11db4:	25 e2       	ldi	r18, 0x25	; 37
   11db6:	30 e0       	ldi	r19, 0x00	; 0
   11db8:	40 e6       	ldi	r20, 0x60	; 96
   11dba:	51 e0       	ldi	r21, 0x01	; 1
   11dbc:	63 ee       	ldi	r22, 0xE3	; 227
   11dbe:	70 e0       	ldi	r23, 0x00	; 0
   11dc0:	8b e4       	ldi	r24, 0x4B	; 75
   11dc2:	90 e0       	ldi	r25, 0x00	; 0
   11dc4:	0e 94 3a 6f 	call	0xde74	; 0xde74 <ILI9486_DrawRect>
   11dc8:	23 e2       	ldi	r18, 0x23	; 35
   11dca:	30 e0       	ldi	r19, 0x00	; 0
   11dcc:	4e e5       	ldi	r20, 0x5E	; 94
   11dce:	51 e0       	ldi	r21, 0x01	; 1
   11dd0:	64 ee       	ldi	r22, 0xE4	; 228
   11dd2:	70 e0       	ldi	r23, 0x00	; 0
   11dd4:	8c e4       	ldi	r24, 0x4C	; 76
   11dd6:	90 e0       	ldi	r25, 0x00	; 0
   11dd8:	0e 94 3a 6f 	call	0xde74	; 0xde74 <ILI9486_DrawRect>
   11ddc:	2a e2       	ldi	r18, 0x2A	; 42
   11dde:	30 e0       	ldi	r19, 0x00	; 0
   11de0:	4e e9       	ldi	r20, 0x9E	; 158
   11de2:	51 e0       	ldi	r21, 0x01	; 1
   11de4:	61 e1       	ldi	r22, 0x11	; 17
   11de6:	71 e0       	ldi	r23, 0x01	; 1
   11de8:	85 e2       	ldi	r24, 0x25	; 37
   11dea:	90 e0       	ldi	r25, 0x00	; 0
   11dec:	0e 94 3a 6f 	call	0xde74	; 0xde74 <ILI9486_DrawRect>
   11df0:	28 e2       	ldi	r18, 0x28	; 40
   11df2:	30 e0       	ldi	r19, 0x00	; 0
   11df4:	4c e9       	ldi	r20, 0x9C	; 156
   11df6:	51 e0       	ldi	r21, 0x01	; 1
   11df8:	62 e1       	ldi	r22, 0x12	; 18
   11dfa:	71 e0       	ldi	r23, 0x01	; 1
   11dfc:	86 e2       	ldi	r24, 0x26	; 38
   11dfe:	90 e0       	ldi	r25, 0x00	; 0
   11e00:	0e 94 3a 6f 	call	0xde74	; 0xde74 <ILI9486_DrawRect>
   11e04:	f2 c1       	rjmp	.+996    	; 0x121ea <Print_Page_Clock_Settings+0xa98>
   11e06:	00 e0       	ldi	r16, 0x00	; 0
   11e08:	10 e0       	ldi	r17, 0x00	; 0
   11e0a:	26 e3       	ldi	r18, 0x36	; 54
   11e0c:	30 e0       	ldi	r19, 0x00	; 0
   11e0e:	43 e4       	ldi	r20, 0x43	; 67
   11e10:	50 e0       	ldi	r21, 0x00	; 0
   11e12:	61 e6       	ldi	r22, 0x61	; 97
   11e14:	70 e0       	ldi	r23, 0x00	; 0
   11e16:	8f e2       	ldi	r24, 0x2F	; 47
   11e18:	90 e0       	ldi	r25, 0x00	; 0
   11e1a:	0e 94 3a 6f 	call	0xde74	; 0xde74 <ILI9486_DrawRect>
   11e1e:	24 e3       	ldi	r18, 0x34	; 52
   11e20:	30 e0       	ldi	r19, 0x00	; 0
   11e22:	41 e4       	ldi	r20, 0x41	; 65
   11e24:	50 e0       	ldi	r21, 0x00	; 0
   11e26:	62 e6       	ldi	r22, 0x62	; 98
   11e28:	70 e0       	ldi	r23, 0x00	; 0
   11e2a:	80 e3       	ldi	r24, 0x30	; 48
   11e2c:	90 e0       	ldi	r25, 0x00	; 0
   11e2e:	0e 94 3a 6f 	call	0xde74	; 0xde74 <ILI9486_DrawRect>
   11e32:	26 e3       	ldi	r18, 0x36	; 54
   11e34:	30 e0       	ldi	r19, 0x00	; 0
   11e36:	43 e4       	ldi	r20, 0x43	; 67
   11e38:	50 e0       	ldi	r21, 0x00	; 0
   11e3a:	61 e6       	ldi	r22, 0x61	; 97
   11e3c:	70 e0       	ldi	r23, 0x00	; 0
   11e3e:	87 ea       	ldi	r24, 0xA7	; 167
   11e40:	90 e0       	ldi	r25, 0x00	; 0
   11e42:	0e 94 3a 6f 	call	0xde74	; 0xde74 <ILI9486_DrawRect>
   11e46:	24 e3       	ldi	r18, 0x34	; 52
   11e48:	30 e0       	ldi	r19, 0x00	; 0
   11e4a:	41 e4       	ldi	r20, 0x41	; 65
   11e4c:	50 e0       	ldi	r21, 0x00	; 0
   11e4e:	62 e6       	ldi	r22, 0x62	; 98
   11e50:	70 e0       	ldi	r23, 0x00	; 0
   11e52:	88 ea       	ldi	r24, 0xA8	; 168
   11e54:	90 e0       	ldi	r25, 0x00	; 0
   11e56:	0e 94 3a 6f 	call	0xde74	; 0xde74 <ILI9486_DrawRect>
   11e5a:	26 e3       	ldi	r18, 0x36	; 54
   11e5c:	30 e0       	ldi	r19, 0x00	; 0
   11e5e:	43 e4       	ldi	r20, 0x43	; 67
   11e60:	50 e0       	ldi	r21, 0x00	; 0
   11e62:	61 e6       	ldi	r22, 0x61	; 97
   11e64:	70 e0       	ldi	r23, 0x00	; 0
   11e66:	88 e3       	ldi	r24, 0x38	; 56
   11e68:	91 e0       	ldi	r25, 0x01	; 1
   11e6a:	0e 94 3a 6f 	call	0xde74	; 0xde74 <ILI9486_DrawRect>
   11e6e:	24 e3       	ldi	r18, 0x34	; 52
   11e70:	30 e0       	ldi	r19, 0x00	; 0
   11e72:	41 e4       	ldi	r20, 0x41	; 65
   11e74:	50 e0       	ldi	r21, 0x00	; 0
   11e76:	62 e6       	ldi	r22, 0x62	; 98
   11e78:	70 e0       	ldi	r23, 0x00	; 0
   11e7a:	89 e3       	ldi	r24, 0x39	; 57
   11e7c:	91 e0       	ldi	r25, 0x01	; 1
   11e7e:	0e 94 3a 6f 	call	0xde74	; 0xde74 <ILI9486_DrawRect>
   11e82:	26 e3       	ldi	r18, 0x36	; 54
   11e84:	30 e0       	ldi	r19, 0x00	; 0
   11e86:	43 e4       	ldi	r20, 0x43	; 67
   11e88:	50 e0       	ldi	r21, 0x00	; 0
   11e8a:	67 ea       	ldi	r22, 0xA7	; 167
   11e8c:	70 e0       	ldi	r23, 0x00	; 0
   11e8e:	81 e6       	ldi	r24, 0x61	; 97
   11e90:	90 e0       	ldi	r25, 0x00	; 0
   11e92:	0e 94 3a 6f 	call	0xde74	; 0xde74 <ILI9486_DrawRect>
   11e96:	24 e3       	ldi	r18, 0x34	; 52
   11e98:	30 e0       	ldi	r19, 0x00	; 0
   11e9a:	41 e4       	ldi	r20, 0x41	; 65
   11e9c:	50 e0       	ldi	r21, 0x00	; 0
   11e9e:	68 ea       	ldi	r22, 0xA8	; 168
   11ea0:	70 e0       	ldi	r23, 0x00	; 0
   11ea2:	82 e6       	ldi	r24, 0x62	; 98
   11ea4:	90 e0       	ldi	r25, 0x00	; 0
   11ea6:	0e 94 3a 6f 	call	0xde74	; 0xde74 <ILI9486_DrawRect>
   11eaa:	26 e3       	ldi	r18, 0x36	; 54
   11eac:	30 e0       	ldi	r19, 0x00	; 0
   11eae:	43 e4       	ldi	r20, 0x43	; 67
   11eb0:	50 e0       	ldi	r21, 0x00	; 0
   11eb2:	67 ea       	ldi	r22, 0xA7	; 167
   11eb4:	70 e0       	ldi	r23, 0x00	; 0
   11eb6:	8a ec       	ldi	r24, 0xCA	; 202
   11eb8:	90 e0       	ldi	r25, 0x00	; 0
   11eba:	0e 94 3a 6f 	call	0xde74	; 0xde74 <ILI9486_DrawRect>
   11ebe:	24 e3       	ldi	r18, 0x34	; 52
   11ec0:	30 e0       	ldi	r19, 0x00	; 0
   11ec2:	41 e4       	ldi	r20, 0x41	; 65
   11ec4:	50 e0       	ldi	r21, 0x00	; 0
   11ec6:	68 ea       	ldi	r22, 0xA8	; 168
   11ec8:	70 e0       	ldi	r23, 0x00	; 0
   11eca:	8b ec       	ldi	r24, 0xCB	; 203
   11ecc:	90 e0       	ldi	r25, 0x00	; 0
   11ece:	0e 94 3a 6f 	call	0xde74	; 0xde74 <ILI9486_DrawRect>
   11ed2:	0f ef       	ldi	r16, 0xFF	; 255
   11ed4:	1f ef       	ldi	r17, 0xFF	; 255
   11ed6:	26 e3       	ldi	r18, 0x36	; 54
   11ed8:	30 e0       	ldi	r19, 0x00	; 0
   11eda:	43 e4       	ldi	r20, 0x43	; 67
   11edc:	50 e0       	ldi	r21, 0x00	; 0
   11ede:	67 ea       	ldi	r22, 0xA7	; 167
   11ee0:	70 e0       	ldi	r23, 0x00	; 0
   11ee2:	88 e3       	ldi	r24, 0x38	; 56
   11ee4:	91 e0       	ldi	r25, 0x01	; 1
   11ee6:	0e 94 3a 6f 	call	0xde74	; 0xde74 <ILI9486_DrawRect>
   11eea:	24 e3       	ldi	r18, 0x34	; 52
   11eec:	30 e0       	ldi	r19, 0x00	; 0
   11eee:	41 e4       	ldi	r20, 0x41	; 65
   11ef0:	50 e0       	ldi	r21, 0x00	; 0
   11ef2:	68 ea       	ldi	r22, 0xA8	; 168
   11ef4:	70 e0       	ldi	r23, 0x00	; 0
   11ef6:	89 e3       	ldi	r24, 0x39	; 57
   11ef8:	91 e0       	ldi	r25, 0x01	; 1
   11efa:	0e 94 3a 6f 	call	0xde74	; 0xde74 <ILI9486_DrawRect>
   11efe:	00 e0       	ldi	r16, 0x00	; 0
   11f00:	10 e0       	ldi	r17, 0x00	; 0
   11f02:	25 e2       	ldi	r18, 0x25	; 37
   11f04:	30 e0       	ldi	r19, 0x00	; 0
   11f06:	40 e6       	ldi	r20, 0x60	; 96
   11f08:	51 e0       	ldi	r21, 0x01	; 1
   11f0a:	63 ee       	ldi	r22, 0xE3	; 227
   11f0c:	70 e0       	ldi	r23, 0x00	; 0
   11f0e:	8b e4       	ldi	r24, 0x4B	; 75
   11f10:	90 e0       	ldi	r25, 0x00	; 0
   11f12:	0e 94 3a 6f 	call	0xde74	; 0xde74 <ILI9486_DrawRect>
   11f16:	23 e2       	ldi	r18, 0x23	; 35
   11f18:	30 e0       	ldi	r19, 0x00	; 0
   11f1a:	4e e5       	ldi	r20, 0x5E	; 94
   11f1c:	51 e0       	ldi	r21, 0x01	; 1
   11f1e:	64 ee       	ldi	r22, 0xE4	; 228
   11f20:	70 e0       	ldi	r23, 0x00	; 0
   11f22:	8c e4       	ldi	r24, 0x4C	; 76
   11f24:	90 e0       	ldi	r25, 0x00	; 0
   11f26:	0e 94 3a 6f 	call	0xde74	; 0xde74 <ILI9486_DrawRect>
   11f2a:	2a e2       	ldi	r18, 0x2A	; 42
   11f2c:	30 e0       	ldi	r19, 0x00	; 0
   11f2e:	4e e9       	ldi	r20, 0x9E	; 158
   11f30:	51 e0       	ldi	r21, 0x01	; 1
   11f32:	61 e1       	ldi	r22, 0x11	; 17
   11f34:	71 e0       	ldi	r23, 0x01	; 1
   11f36:	85 e2       	ldi	r24, 0x25	; 37
   11f38:	90 e0       	ldi	r25, 0x00	; 0
   11f3a:	0e 94 3a 6f 	call	0xde74	; 0xde74 <ILI9486_DrawRect>
   11f3e:	28 e2       	ldi	r18, 0x28	; 40
   11f40:	30 e0       	ldi	r19, 0x00	; 0
   11f42:	4c e9       	ldi	r20, 0x9C	; 156
   11f44:	51 e0       	ldi	r21, 0x01	; 1
   11f46:	62 e1       	ldi	r22, 0x12	; 18
   11f48:	71 e0       	ldi	r23, 0x01	; 1
   11f4a:	86 e2       	ldi	r24, 0x26	; 38
   11f4c:	90 e0       	ldi	r25, 0x00	; 0
   11f4e:	0e 94 3a 6f 	call	0xde74	; 0xde74 <ILI9486_DrawRect>
   11f52:	4b c1       	rjmp	.+662    	; 0x121ea <Print_Page_Clock_Settings+0xa98>
   11f54:	00 e0       	ldi	r16, 0x00	; 0
   11f56:	10 e0       	ldi	r17, 0x00	; 0
   11f58:	26 e3       	ldi	r18, 0x36	; 54
   11f5a:	30 e0       	ldi	r19, 0x00	; 0
   11f5c:	43 e4       	ldi	r20, 0x43	; 67
   11f5e:	50 e0       	ldi	r21, 0x00	; 0
   11f60:	61 e6       	ldi	r22, 0x61	; 97
   11f62:	70 e0       	ldi	r23, 0x00	; 0
   11f64:	8f e2       	ldi	r24, 0x2F	; 47
   11f66:	90 e0       	ldi	r25, 0x00	; 0
   11f68:	0e 94 3a 6f 	call	0xde74	; 0xde74 <ILI9486_DrawRect>
   11f6c:	24 e3       	ldi	r18, 0x34	; 52
   11f6e:	30 e0       	ldi	r19, 0x00	; 0
   11f70:	41 e4       	ldi	r20, 0x41	; 65
   11f72:	50 e0       	ldi	r21, 0x00	; 0
   11f74:	62 e6       	ldi	r22, 0x62	; 98
   11f76:	70 e0       	ldi	r23, 0x00	; 0
   11f78:	80 e3       	ldi	r24, 0x30	; 48
   11f7a:	90 e0       	ldi	r25, 0x00	; 0
   11f7c:	0e 94 3a 6f 	call	0xde74	; 0xde74 <ILI9486_DrawRect>
   11f80:	26 e3       	ldi	r18, 0x36	; 54
   11f82:	30 e0       	ldi	r19, 0x00	; 0
   11f84:	43 e4       	ldi	r20, 0x43	; 67
   11f86:	50 e0       	ldi	r21, 0x00	; 0
   11f88:	61 e6       	ldi	r22, 0x61	; 97
   11f8a:	70 e0       	ldi	r23, 0x00	; 0
   11f8c:	87 ea       	ldi	r24, 0xA7	; 167
   11f8e:	90 e0       	ldi	r25, 0x00	; 0
   11f90:	0e 94 3a 6f 	call	0xde74	; 0xde74 <ILI9486_DrawRect>
   11f94:	24 e3       	ldi	r18, 0x34	; 52
   11f96:	30 e0       	ldi	r19, 0x00	; 0
   11f98:	41 e4       	ldi	r20, 0x41	; 65
   11f9a:	50 e0       	ldi	r21, 0x00	; 0
   11f9c:	62 e6       	ldi	r22, 0x62	; 98
   11f9e:	70 e0       	ldi	r23, 0x00	; 0
   11fa0:	88 ea       	ldi	r24, 0xA8	; 168
   11fa2:	90 e0       	ldi	r25, 0x00	; 0
   11fa4:	0e 94 3a 6f 	call	0xde74	; 0xde74 <ILI9486_DrawRect>
   11fa8:	26 e3       	ldi	r18, 0x36	; 54
   11faa:	30 e0       	ldi	r19, 0x00	; 0
   11fac:	43 e4       	ldi	r20, 0x43	; 67
   11fae:	50 e0       	ldi	r21, 0x00	; 0
   11fb0:	61 e6       	ldi	r22, 0x61	; 97
   11fb2:	70 e0       	ldi	r23, 0x00	; 0
   11fb4:	88 e3       	ldi	r24, 0x38	; 56
   11fb6:	91 e0       	ldi	r25, 0x01	; 1
   11fb8:	0e 94 3a 6f 	call	0xde74	; 0xde74 <ILI9486_DrawRect>
   11fbc:	24 e3       	ldi	r18, 0x34	; 52
   11fbe:	30 e0       	ldi	r19, 0x00	; 0
   11fc0:	41 e4       	ldi	r20, 0x41	; 65
   11fc2:	50 e0       	ldi	r21, 0x00	; 0
   11fc4:	62 e6       	ldi	r22, 0x62	; 98
   11fc6:	70 e0       	ldi	r23, 0x00	; 0
   11fc8:	89 e3       	ldi	r24, 0x39	; 57
   11fca:	91 e0       	ldi	r25, 0x01	; 1
   11fcc:	0e 94 3a 6f 	call	0xde74	; 0xde74 <ILI9486_DrawRect>
   11fd0:	26 e3       	ldi	r18, 0x36	; 54
   11fd2:	30 e0       	ldi	r19, 0x00	; 0
   11fd4:	43 e4       	ldi	r20, 0x43	; 67
   11fd6:	50 e0       	ldi	r21, 0x00	; 0
   11fd8:	67 ea       	ldi	r22, 0xA7	; 167
   11fda:	70 e0       	ldi	r23, 0x00	; 0
   11fdc:	81 e6       	ldi	r24, 0x61	; 97
   11fde:	90 e0       	ldi	r25, 0x00	; 0
   11fe0:	0e 94 3a 6f 	call	0xde74	; 0xde74 <ILI9486_DrawRect>
   11fe4:	24 e3       	ldi	r18, 0x34	; 52
   11fe6:	30 e0       	ldi	r19, 0x00	; 0
   11fe8:	41 e4       	ldi	r20, 0x41	; 65
   11fea:	50 e0       	ldi	r21, 0x00	; 0
   11fec:	68 ea       	ldi	r22, 0xA8	; 168
   11fee:	70 e0       	ldi	r23, 0x00	; 0
   11ff0:	82 e6       	ldi	r24, 0x62	; 98
   11ff2:	90 e0       	ldi	r25, 0x00	; 0
   11ff4:	0e 94 3a 6f 	call	0xde74	; 0xde74 <ILI9486_DrawRect>
   11ff8:	26 e3       	ldi	r18, 0x36	; 54
   11ffa:	30 e0       	ldi	r19, 0x00	; 0
   11ffc:	43 e4       	ldi	r20, 0x43	; 67
   11ffe:	50 e0       	ldi	r21, 0x00	; 0
   12000:	67 ea       	ldi	r22, 0xA7	; 167
   12002:	70 e0       	ldi	r23, 0x00	; 0
   12004:	8a ec       	ldi	r24, 0xCA	; 202
   12006:	90 e0       	ldi	r25, 0x00	; 0
   12008:	0e 94 3a 6f 	call	0xde74	; 0xde74 <ILI9486_DrawRect>
   1200c:	24 e3       	ldi	r18, 0x34	; 52
   1200e:	30 e0       	ldi	r19, 0x00	; 0
   12010:	41 e4       	ldi	r20, 0x41	; 65
   12012:	50 e0       	ldi	r21, 0x00	; 0
   12014:	68 ea       	ldi	r22, 0xA8	; 168
   12016:	70 e0       	ldi	r23, 0x00	; 0
   12018:	8b ec       	ldi	r24, 0xCB	; 203
   1201a:	90 e0       	ldi	r25, 0x00	; 0
   1201c:	0e 94 3a 6f 	call	0xde74	; 0xde74 <ILI9486_DrawRect>
   12020:	26 e3       	ldi	r18, 0x36	; 54
   12022:	30 e0       	ldi	r19, 0x00	; 0
   12024:	43 e4       	ldi	r20, 0x43	; 67
   12026:	50 e0       	ldi	r21, 0x00	; 0
   12028:	67 ea       	ldi	r22, 0xA7	; 167
   1202a:	70 e0       	ldi	r23, 0x00	; 0
   1202c:	88 e3       	ldi	r24, 0x38	; 56
   1202e:	91 e0       	ldi	r25, 0x01	; 1
   12030:	0e 94 3a 6f 	call	0xde74	; 0xde74 <ILI9486_DrawRect>
   12034:	24 e3       	ldi	r18, 0x34	; 52
   12036:	30 e0       	ldi	r19, 0x00	; 0
   12038:	41 e4       	ldi	r20, 0x41	; 65
   1203a:	50 e0       	ldi	r21, 0x00	; 0
   1203c:	68 ea       	ldi	r22, 0xA8	; 168
   1203e:	70 e0       	ldi	r23, 0x00	; 0
   12040:	89 e3       	ldi	r24, 0x39	; 57
   12042:	91 e0       	ldi	r25, 0x01	; 1
   12044:	0e 94 3a 6f 	call	0xde74	; 0xde74 <ILI9486_DrawRect>
   12048:	0f ef       	ldi	r16, 0xFF	; 255
   1204a:	1f ef       	ldi	r17, 0xFF	; 255
   1204c:	25 e2       	ldi	r18, 0x25	; 37
   1204e:	30 e0       	ldi	r19, 0x00	; 0
   12050:	40 e6       	ldi	r20, 0x60	; 96
   12052:	51 e0       	ldi	r21, 0x01	; 1
   12054:	63 ee       	ldi	r22, 0xE3	; 227
   12056:	70 e0       	ldi	r23, 0x00	; 0
   12058:	8b e4       	ldi	r24, 0x4B	; 75
   1205a:	90 e0       	ldi	r25, 0x00	; 0
   1205c:	0e 94 3a 6f 	call	0xde74	; 0xde74 <ILI9486_DrawRect>
   12060:	23 e2       	ldi	r18, 0x23	; 35
   12062:	30 e0       	ldi	r19, 0x00	; 0
   12064:	4e e5       	ldi	r20, 0x5E	; 94
   12066:	51 e0       	ldi	r21, 0x01	; 1
   12068:	64 ee       	ldi	r22, 0xE4	; 228
   1206a:	70 e0       	ldi	r23, 0x00	; 0
   1206c:	8c e4       	ldi	r24, 0x4C	; 76
   1206e:	90 e0       	ldi	r25, 0x00	; 0
   12070:	0e 94 3a 6f 	call	0xde74	; 0xde74 <ILI9486_DrawRect>
   12074:	00 e0       	ldi	r16, 0x00	; 0
   12076:	10 e0       	ldi	r17, 0x00	; 0
   12078:	2a e2       	ldi	r18, 0x2A	; 42
   1207a:	30 e0       	ldi	r19, 0x00	; 0
   1207c:	4e e9       	ldi	r20, 0x9E	; 158
   1207e:	51 e0       	ldi	r21, 0x01	; 1
   12080:	61 e1       	ldi	r22, 0x11	; 17
   12082:	71 e0       	ldi	r23, 0x01	; 1
   12084:	85 e2       	ldi	r24, 0x25	; 37
   12086:	90 e0       	ldi	r25, 0x00	; 0
   12088:	0e 94 3a 6f 	call	0xde74	; 0xde74 <ILI9486_DrawRect>
   1208c:	28 e2       	ldi	r18, 0x28	; 40
   1208e:	30 e0       	ldi	r19, 0x00	; 0
   12090:	4c e9       	ldi	r20, 0x9C	; 156
   12092:	51 e0       	ldi	r21, 0x01	; 1
   12094:	62 e1       	ldi	r22, 0x12	; 18
   12096:	71 e0       	ldi	r23, 0x01	; 1
   12098:	86 e2       	ldi	r24, 0x26	; 38
   1209a:	90 e0       	ldi	r25, 0x00	; 0
   1209c:	0e 94 3a 6f 	call	0xde74	; 0xde74 <ILI9486_DrawRect>
   120a0:	a4 c0       	rjmp	.+328    	; 0x121ea <Print_Page_Clock_Settings+0xa98>
   120a2:	00 e0       	ldi	r16, 0x00	; 0
   120a4:	10 e0       	ldi	r17, 0x00	; 0
   120a6:	26 e3       	ldi	r18, 0x36	; 54
   120a8:	30 e0       	ldi	r19, 0x00	; 0
   120aa:	43 e4       	ldi	r20, 0x43	; 67
   120ac:	50 e0       	ldi	r21, 0x00	; 0
   120ae:	61 e6       	ldi	r22, 0x61	; 97
   120b0:	70 e0       	ldi	r23, 0x00	; 0
   120b2:	89 ec       	ldi	r24, 0xC9	; 201
   120b4:	91 e0       	ldi	r25, 0x01	; 1
   120b6:	0e 94 3a 6f 	call	0xde74	; 0xde74 <ILI9486_DrawRect>
   120ba:	24 e3       	ldi	r18, 0x34	; 52
   120bc:	30 e0       	ldi	r19, 0x00	; 0
   120be:	41 e4       	ldi	r20, 0x41	; 65
   120c0:	50 e0       	ldi	r21, 0x00	; 0
   120c2:	62 e6       	ldi	r22, 0x62	; 98
   120c4:	70 e0       	ldi	r23, 0x00	; 0
   120c6:	80 e3       	ldi	r24, 0x30	; 48
   120c8:	90 e0       	ldi	r25, 0x00	; 0
   120ca:	0e 94 3a 6f 	call	0xde74	; 0xde74 <ILI9486_DrawRect>
   120ce:	26 e3       	ldi	r18, 0x36	; 54
   120d0:	30 e0       	ldi	r19, 0x00	; 0
   120d2:	43 e4       	ldi	r20, 0x43	; 67
   120d4:	50 e0       	ldi	r21, 0x00	; 0
   120d6:	61 e6       	ldi	r22, 0x61	; 97
   120d8:	70 e0       	ldi	r23, 0x00	; 0
   120da:	87 ea       	ldi	r24, 0xA7	; 167
   120dc:	90 e0       	ldi	r25, 0x00	; 0
   120de:	0e 94 3a 6f 	call	0xde74	; 0xde74 <ILI9486_DrawRect>
   120e2:	24 e3       	ldi	r18, 0x34	; 52
   120e4:	30 e0       	ldi	r19, 0x00	; 0
   120e6:	41 e4       	ldi	r20, 0x41	; 65
   120e8:	50 e0       	ldi	r21, 0x00	; 0
   120ea:	62 e6       	ldi	r22, 0x62	; 98
   120ec:	70 e0       	ldi	r23, 0x00	; 0
   120ee:	88 ea       	ldi	r24, 0xA8	; 168
   120f0:	90 e0       	ldi	r25, 0x00	; 0
   120f2:	0e 94 3a 6f 	call	0xde74	; 0xde74 <ILI9486_DrawRect>
   120f6:	26 e3       	ldi	r18, 0x36	; 54
   120f8:	30 e0       	ldi	r19, 0x00	; 0
   120fa:	43 e4       	ldi	r20, 0x43	; 67
   120fc:	50 e0       	ldi	r21, 0x00	; 0
   120fe:	61 e6       	ldi	r22, 0x61	; 97
   12100:	70 e0       	ldi	r23, 0x00	; 0
   12102:	88 e3       	ldi	r24, 0x38	; 56
   12104:	91 e0       	ldi	r25, 0x01	; 1
   12106:	0e 94 3a 6f 	call	0xde74	; 0xde74 <ILI9486_DrawRect>
   1210a:	24 e3       	ldi	r18, 0x34	; 52
   1210c:	30 e0       	ldi	r19, 0x00	; 0
   1210e:	41 e4       	ldi	r20, 0x41	; 65
   12110:	50 e0       	ldi	r21, 0x00	; 0
   12112:	62 e6       	ldi	r22, 0x62	; 98
   12114:	70 e0       	ldi	r23, 0x00	; 0
   12116:	89 e3       	ldi	r24, 0x39	; 57
   12118:	91 e0       	ldi	r25, 0x01	; 1
   1211a:	0e 94 3a 6f 	call	0xde74	; 0xde74 <ILI9486_DrawRect>
   1211e:	26 e3       	ldi	r18, 0x36	; 54
   12120:	30 e0       	ldi	r19, 0x00	; 0
   12122:	43 e4       	ldi	r20, 0x43	; 67
   12124:	50 e0       	ldi	r21, 0x00	; 0
   12126:	67 ea       	ldi	r22, 0xA7	; 167
   12128:	70 e0       	ldi	r23, 0x00	; 0
   1212a:	81 e6       	ldi	r24, 0x61	; 97
   1212c:	90 e0       	ldi	r25, 0x00	; 0
   1212e:	0e 94 3a 6f 	call	0xde74	; 0xde74 <ILI9486_DrawRect>
   12132:	24 e3       	ldi	r18, 0x34	; 52
   12134:	30 e0       	ldi	r19, 0x00	; 0
   12136:	41 e4       	ldi	r20, 0x41	; 65
   12138:	50 e0       	ldi	r21, 0x00	; 0
   1213a:	68 ea       	ldi	r22, 0xA8	; 168
   1213c:	70 e0       	ldi	r23, 0x00	; 0
   1213e:	82 e6       	ldi	r24, 0x62	; 98
   12140:	90 e0       	ldi	r25, 0x00	; 0
   12142:	0e 94 3a 6f 	call	0xde74	; 0xde74 <ILI9486_DrawRect>
   12146:	26 e3       	ldi	r18, 0x36	; 54
   12148:	30 e0       	ldi	r19, 0x00	; 0
   1214a:	43 e4       	ldi	r20, 0x43	; 67
   1214c:	50 e0       	ldi	r21, 0x00	; 0
   1214e:	67 ea       	ldi	r22, 0xA7	; 167
   12150:	70 e0       	ldi	r23, 0x00	; 0
   12152:	8a ec       	ldi	r24, 0xCA	; 202
   12154:	90 e0       	ldi	r25, 0x00	; 0
   12156:	0e 94 3a 6f 	call	0xde74	; 0xde74 <ILI9486_DrawRect>
   1215a:	24 e3       	ldi	r18, 0x34	; 52
   1215c:	30 e0       	ldi	r19, 0x00	; 0
   1215e:	41 e4       	ldi	r20, 0x41	; 65
   12160:	50 e0       	ldi	r21, 0x00	; 0
   12162:	68 ea       	ldi	r22, 0xA8	; 168
   12164:	70 e0       	ldi	r23, 0x00	; 0
   12166:	8b ec       	ldi	r24, 0xCB	; 203
   12168:	90 e0       	ldi	r25, 0x00	; 0
   1216a:	0e 94 3a 6f 	call	0xde74	; 0xde74 <ILI9486_DrawRect>
   1216e:	26 e3       	ldi	r18, 0x36	; 54
   12170:	30 e0       	ldi	r19, 0x00	; 0
   12172:	43 e4       	ldi	r20, 0x43	; 67
   12174:	50 e0       	ldi	r21, 0x00	; 0
   12176:	67 ea       	ldi	r22, 0xA7	; 167
   12178:	70 e0       	ldi	r23, 0x00	; 0
   1217a:	88 e3       	ldi	r24, 0x38	; 56
   1217c:	91 e0       	ldi	r25, 0x01	; 1
   1217e:	0e 94 3a 6f 	call	0xde74	; 0xde74 <ILI9486_DrawRect>
   12182:	24 e3       	ldi	r18, 0x34	; 52
   12184:	30 e0       	ldi	r19, 0x00	; 0
   12186:	41 e4       	ldi	r20, 0x41	; 65
   12188:	50 e0       	ldi	r21, 0x00	; 0
   1218a:	68 ea       	ldi	r22, 0xA8	; 168
   1218c:	70 e0       	ldi	r23, 0x00	; 0
   1218e:	89 e3       	ldi	r24, 0x39	; 57
   12190:	91 e0       	ldi	r25, 0x01	; 1
   12192:	0e 94 3a 6f 	call	0xde74	; 0xde74 <ILI9486_DrawRect>
   12196:	25 e2       	ldi	r18, 0x25	; 37
   12198:	30 e0       	ldi	r19, 0x00	; 0
   1219a:	40 e6       	ldi	r20, 0x60	; 96
   1219c:	51 e0       	ldi	r21, 0x01	; 1
   1219e:	63 ee       	ldi	r22, 0xE3	; 227
   121a0:	70 e0       	ldi	r23, 0x00	; 0
   121a2:	8b e4       	ldi	r24, 0x4B	; 75
   121a4:	90 e0       	ldi	r25, 0x00	; 0
   121a6:	0e 94 3a 6f 	call	0xde74	; 0xde74 <ILI9486_DrawRect>
   121aa:	23 e2       	ldi	r18, 0x23	; 35
   121ac:	30 e0       	ldi	r19, 0x00	; 0
   121ae:	4e e5       	ldi	r20, 0x5E	; 94
   121b0:	51 e0       	ldi	r21, 0x01	; 1
   121b2:	64 ee       	ldi	r22, 0xE4	; 228
   121b4:	70 e0       	ldi	r23, 0x00	; 0
   121b6:	8c e4       	ldi	r24, 0x4C	; 76
   121b8:	90 e0       	ldi	r25, 0x00	; 0
   121ba:	0e 94 3a 6f 	call	0xde74	; 0xde74 <ILI9486_DrawRect>
   121be:	0f ef       	ldi	r16, 0xFF	; 255
   121c0:	1f ef       	ldi	r17, 0xFF	; 255
   121c2:	2a e2       	ldi	r18, 0x2A	; 42
   121c4:	30 e0       	ldi	r19, 0x00	; 0
   121c6:	4e e9       	ldi	r20, 0x9E	; 158
   121c8:	51 e0       	ldi	r21, 0x01	; 1
   121ca:	61 e1       	ldi	r22, 0x11	; 17
   121cc:	71 e0       	ldi	r23, 0x01	; 1
   121ce:	85 e2       	ldi	r24, 0x25	; 37
   121d0:	90 e0       	ldi	r25, 0x00	; 0
   121d2:	0e 94 3a 6f 	call	0xde74	; 0xde74 <ILI9486_DrawRect>
   121d6:	28 e2       	ldi	r18, 0x28	; 40
   121d8:	30 e0       	ldi	r19, 0x00	; 0
   121da:	4c e9       	ldi	r20, 0x9C	; 156
   121dc:	51 e0       	ldi	r21, 0x01	; 1
   121de:	62 e1       	ldi	r22, 0x12	; 18
   121e0:	71 e0       	ldi	r23, 0x01	; 1
   121e2:	86 e2       	ldi	r24, 0x26	; 38
   121e4:	90 e0       	ldi	r25, 0x00	; 0
   121e6:	0e 94 3a 6f 	call	0xde74	; 0xde74 <ILI9486_DrawRect>
   121ea:	1f 91       	pop	r17
   121ec:	0f 91       	pop	r16
   121ee:	08 95       	ret

000121f0 <Print_Page_About>:
   121f0:	0f 93       	push	r16
   121f2:	1f 93       	push	r17
   121f4:	80 e0       	ldi	r24, 0x00	; 0
   121f6:	90 e0       	ldi	r25, 0x00	; 0
   121f8:	0e 94 b8 6b 	call	0xd770	; 0xd770 <ILI9486_FillScreen>
   121fc:	81 e0       	ldi	r24, 0x01	; 1
   121fe:	0e 94 67 69 	call	0xd2ce	; 0xd2ce <ILI9486_SetRotation>
   12202:	64 e1       	ldi	r22, 0x14	; 20
   12204:	70 e0       	ldi	r23, 0x00	; 0
   12206:	80 e5       	ldi	r24, 0x50	; 80
   12208:	90 e0       	ldi	r25, 0x00	; 0
   1220a:	0e 94 52 75 	call	0xeaa4	; 0xeaa4 <ILI9486_SetCursor>
   1220e:	6f ef       	ldi	r22, 0xFF	; 255
   12210:	7f ef       	ldi	r23, 0xFF	; 255
   12212:	80 e0       	ldi	r24, 0x00	; 0
   12214:	90 e0       	ldi	r25, 0x00	; 0
   12216:	0e 94 00 71 	call	0xe200	; 0xe200 <ILI9486_SetTextColor>
   1221a:	60 e0       	ldi	r22, 0x00	; 0
   1221c:	87 ee       	ldi	r24, 0xE7	; 231
   1221e:	92 e0       	ldi	r25, 0x02	; 2
   12220:	0e 94 5b 75 	call	0xeab6	; 0xeab6 <ILI9486_Print_String40x40>
   12224:	60 e0       	ldi	r22, 0x00	; 0
   12226:	70 e0       	ldi	r23, 0x00	; 0
   12228:	8f ef       	ldi	r24, 0xFF	; 255
   1222a:	9f ef       	ldi	r25, 0xFF	; 255
   1222c:	0e 94 00 71 	call	0xe200	; 0xe200 <ILI9486_SetTextColor>
   12230:	6e e0       	ldi	r22, 0x0E	; 14
   12232:	71 e0       	ldi	r23, 0x01	; 1
   12234:	88 e2       	ldi	r24, 0x28	; 40
   12236:	90 e0       	ldi	r25, 0x00	; 0
   12238:	0e 94 52 75 	call	0xeaa4	; 0xeaa4 <ILI9486_SetCursor>
   1223c:	60 e0       	ldi	r22, 0x00	; 0
   1223e:	81 ef       	ldi	r24, 0xF1	; 241
   12240:	92 e0       	ldi	r25, 0x02	; 2
   12242:	0e 94 5b 75 	call	0xeab6	; 0xeab6 <ILI9486_Print_String40x40>
   12246:	0f ef       	ldi	r16, 0xFF	; 255
   12248:	1f ef       	ldi	r17, 0xFF	; 255
   1224a:	2a e2       	ldi	r18, 0x2A	; 42
   1224c:	30 e0       	ldi	r19, 0x00	; 0
   1224e:	4e e9       	ldi	r20, 0x9E	; 158
   12250:	51 e0       	ldi	r21, 0x01	; 1
   12252:	61 e1       	ldi	r22, 0x11	; 17
   12254:	71 e0       	ldi	r23, 0x01	; 1
   12256:	85 e2       	ldi	r24, 0x25	; 37
   12258:	90 e0       	ldi	r25, 0x00	; 0
   1225a:	0e 94 3a 6f 	call	0xde74	; 0xde74 <ILI9486_DrawRect>
   1225e:	28 e2       	ldi	r18, 0x28	; 40
   12260:	30 e0       	ldi	r19, 0x00	; 0
   12262:	4c e9       	ldi	r20, 0x9C	; 156
   12264:	51 e0       	ldi	r21, 0x01	; 1
   12266:	62 e1       	ldi	r22, 0x12	; 18
   12268:	71 e0       	ldi	r23, 0x01	; 1
   1226a:	86 e2       	ldi	r24, 0x26	; 38
   1226c:	90 e0       	ldi	r25, 0x00	; 0
   1226e:	0e 94 3a 6f 	call	0xde74	; 0xde74 <ILI9486_DrawRect>
   12272:	1f 91       	pop	r17
   12274:	0f 91       	pop	r16
   12276:	08 95       	ret

00012278 <Print_Page_Dop_Info>:
   12278:	0f 93       	push	r16
   1227a:	1f 93       	push	r17
   1227c:	80 e0       	ldi	r24, 0x00	; 0
   1227e:	90 e0       	ldi	r25, 0x00	; 0
   12280:	0e 94 b8 6b 	call	0xd770	; 0xd770 <ILI9486_FillScreen>
   12284:	81 e0       	ldi	r24, 0x01	; 1
   12286:	0e 94 67 69 	call	0xd2ce	; 0xd2ce <ILI9486_SetRotation>
   1228a:	64 e1       	ldi	r22, 0x14	; 20
   1228c:	70 e0       	ldi	r23, 0x00	; 0
   1228e:	88 e2       	ldi	r24, 0x28	; 40
   12290:	90 e0       	ldi	r25, 0x00	; 0
   12292:	0e 94 52 75 	call	0xeaa4	; 0xeaa4 <ILI9486_SetCursor>
   12296:	6f ef       	ldi	r22, 0xFF	; 255
   12298:	7f ef       	ldi	r23, 0xFF	; 255
   1229a:	80 e0       	ldi	r24, 0x00	; 0
   1229c:	90 e0       	ldi	r25, 0x00	; 0
   1229e:	0e 94 00 71 	call	0xe200	; 0xe200 <ILI9486_SetTextColor>
   122a2:	60 e0       	ldi	r22, 0x00	; 0
   122a4:	8e ef       	ldi	r24, 0xFE	; 254
   122a6:	92 e0       	ldi	r25, 0x02	; 2
   122a8:	0e 94 5b 75 	call	0xeab6	; 0xeab6 <ILI9486_Print_String40x40>
   122ac:	60 e0       	ldi	r22, 0x00	; 0
   122ae:	70 e0       	ldi	r23, 0x00	; 0
   122b0:	8f ef       	ldi	r24, 0xFF	; 255
   122b2:	9f ef       	ldi	r25, 0xFF	; 255
   122b4:	0e 94 00 71 	call	0xe200	; 0xe200 <ILI9486_SetTextColor>
   122b8:	66 e4       	ldi	r22, 0x46	; 70
   122ba:	70 e0       	ldi	r23, 0x00	; 0
   122bc:	86 e9       	ldi	r24, 0x96	; 150
   122be:	90 e0       	ldi	r25, 0x00	; 0
   122c0:	0e 94 52 75 	call	0xeaa4	; 0xeaa4 <ILI9486_SetCursor>
   122c4:	60 e0       	ldi	r22, 0x00	; 0
   122c6:	8b e0       	ldi	r24, 0x0B	; 11
   122c8:	93 e0       	ldi	r25, 0x03	; 3
   122ca:	0e 94 cc 75 	call	0xeb98	; 0xeb98 <ILI9486_Print_String18x32>
   122ce:	64 e6       	ldi	r22, 0x64	; 100
   122d0:	70 e0       	ldi	r23, 0x00	; 0
   122d2:	8a e5       	ldi	r24, 0x5A	; 90
   122d4:	90 e0       	ldi	r25, 0x00	; 0
   122d6:	0e 94 52 75 	call	0xeaa4	; 0xeaa4 <ILI9486_SetCursor>
   122da:	60 e0       	ldi	r22, 0x00	; 0
   122dc:	87 ee       	ldi	r24, 0xE7	; 231
   122de:	93 e0       	ldi	r25, 0x03	; 3
   122e0:	0e 94 cc 75 	call	0xeb98	; 0xeb98 <ILI9486_Print_String18x32>
   122e4:	62 e8       	ldi	r22, 0x82	; 130
   122e6:	70 e0       	ldi	r23, 0x00	; 0
   122e8:	88 e2       	ldi	r24, 0x28	; 40
   122ea:	90 e0       	ldi	r25, 0x00	; 0
   122ec:	0e 94 52 75 	call	0xeaa4	; 0xeaa4 <ILI9486_SetCursor>
   122f0:	60 e0       	ldi	r22, 0x00	; 0
   122f2:	87 e1       	ldi	r24, 0x17	; 23
   122f4:	93 e0       	ldi	r25, 0x03	; 3
   122f6:	0e 94 cc 75 	call	0xeb98	; 0xeb98 <ILI9486_Print_String18x32>
   122fa:	60 ea       	ldi	r22, 0xA0	; 160
   122fc:	70 e0       	ldi	r23, 0x00	; 0
   122fe:	82 e3       	ldi	r24, 0x32	; 50
   12300:	90 e0       	ldi	r25, 0x00	; 0
   12302:	0e 94 52 75 	call	0xeaa4	; 0xeaa4 <ILI9486_SetCursor>
   12306:	60 e0       	ldi	r22, 0x00	; 0
   12308:	8e e1       	ldi	r24, 0x1E	; 30
   1230a:	92 e0       	ldi	r25, 0x02	; 2
   1230c:	0e 94 cc 75 	call	0xeb98	; 0xeb98 <ILI9486_Print_String18x32>
   12310:	6e eb       	ldi	r22, 0xBE	; 190
   12312:	70 e0       	ldi	r23, 0x00	; 0
   12314:	88 e2       	ldi	r24, 0x28	; 40
   12316:	90 e0       	ldi	r25, 0x00	; 0
   12318:	0e 94 52 75 	call	0xeaa4	; 0xeaa4 <ILI9486_SetCursor>
   1231c:	60 e0       	ldi	r22, 0x00	; 0
   1231e:	8c e2       	ldi	r24, 0x2C	; 44
   12320:	93 e0       	ldi	r25, 0x03	; 3
   12322:	0e 94 cc 75 	call	0xeb98	; 0xeb98 <ILI9486_Print_String18x32>
   12326:	6c ed       	ldi	r22, 0xDC	; 220
   12328:	70 e0       	ldi	r23, 0x00	; 0
   1232a:	82 e3       	ldi	r24, 0x32	; 50
   1232c:	90 e0       	ldi	r25, 0x00	; 0
   1232e:	0e 94 52 75 	call	0xeaa4	; 0xeaa4 <ILI9486_SetCursor>
   12332:	60 e0       	ldi	r22, 0x00	; 0
   12334:	80 e0       	ldi	r24, 0x00	; 0
   12336:	92 e0       	ldi	r25, 0x02	; 2
   12338:	0e 94 cc 75 	call	0xeb98	; 0xeb98 <ILI9486_Print_String18x32>
   1233c:	60 e0       	ldi	r22, 0x00	; 0
   1233e:	70 e0       	ldi	r23, 0x00	; 0
   12340:	8f ef       	ldi	r24, 0xFF	; 255
   12342:	9f ef       	ldi	r25, 0xFF	; 255
   12344:	0e 94 00 71 	call	0xe200	; 0xe200 <ILI9486_SetTextColor>
   12348:	6e e0       	ldi	r22, 0x0E	; 14
   1234a:	71 e0       	ldi	r23, 0x01	; 1
   1234c:	88 e2       	ldi	r24, 0x28	; 40
   1234e:	90 e0       	ldi	r25, 0x00	; 0
   12350:	0e 94 52 75 	call	0xeaa4	; 0xeaa4 <ILI9486_SetCursor>
   12354:	60 e0       	ldi	r22, 0x00	; 0
   12356:	81 ef       	ldi	r24, 0xF1	; 241
   12358:	92 e0       	ldi	r25, 0x02	; 2
   1235a:	0e 94 5b 75 	call	0xeab6	; 0xeab6 <ILI9486_Print_String40x40>
   1235e:	0f ef       	ldi	r16, 0xFF	; 255
   12360:	1f ef       	ldi	r17, 0xFF	; 255
   12362:	2a e2       	ldi	r18, 0x2A	; 42
   12364:	30 e0       	ldi	r19, 0x00	; 0
   12366:	4e e9       	ldi	r20, 0x9E	; 158
   12368:	51 e0       	ldi	r21, 0x01	; 1
   1236a:	61 e1       	ldi	r22, 0x11	; 17
   1236c:	71 e0       	ldi	r23, 0x01	; 1
   1236e:	85 e2       	ldi	r24, 0x25	; 37
   12370:	90 e0       	ldi	r25, 0x00	; 0
   12372:	0e 94 3a 6f 	call	0xde74	; 0xde74 <ILI9486_DrawRect>
   12376:	28 e2       	ldi	r18, 0x28	; 40
   12378:	30 e0       	ldi	r19, 0x00	; 0
   1237a:	4c e9       	ldi	r20, 0x9C	; 156
   1237c:	51 e0       	ldi	r21, 0x01	; 1
   1237e:	62 e1       	ldi	r22, 0x12	; 18
   12380:	71 e0       	ldi	r23, 0x01	; 1
   12382:	86 e2       	ldi	r24, 0x26	; 38
   12384:	90 e0       	ldi	r25, 0x00	; 0
   12386:	0e 94 3a 6f 	call	0xde74	; 0xde74 <ILI9486_DrawRect>
   1238a:	1f 91       	pop	r17
   1238c:	0f 91       	pop	r16
   1238e:	08 95       	ret

00012390 <DrawSun>:
   12390:	8f 92       	push	r8
   12392:	9f 92       	push	r9
   12394:	af 92       	push	r10
   12396:	bf 92       	push	r11
   12398:	cf 92       	push	r12
   1239a:	df 92       	push	r13
   1239c:	ef 92       	push	r14
   1239e:	ff 92       	push	r15
   123a0:	0f 93       	push	r16
   123a2:	1f 93       	push	r17
   123a4:	cf 93       	push	r28
   123a6:	df 93       	push	r29
   123a8:	cd b7       	in	r28, 0x3d	; 61
   123aa:	de b7       	in	r29, 0x3e	; 62
   123ac:	c2 5b       	subi	r28, 0xB2	; 178
   123ae:	d7 41       	sbci	r29, 0x17	; 23
   123b0:	0f b6       	in	r0, 0x3f	; 63
   123b2:	f8 94       	cli
   123b4:	de bf       	out	0x3e, r29	; 62
   123b6:	0f be       	out	0x3f, r0	; 63
   123b8:	cd bf       	out	0x3d, r28	; 61
   123ba:	00 00       	nop
   123bc:	ce 01       	movw	r24, r28
   123be:	01 96       	adiw	r24, 0x01	; 1
   123c0:	0e 94 50 81 	call	0x102a0	; 0x102a0 <pf_mount>
   123c4:	83 e4       	ldi	r24, 0x43	; 67
   123c6:	93 e0       	ldi	r25, 0x03	; 3
   123c8:	0e 94 83 82 	call	0x10506	; 0x10506 <pf_open>
   123cc:	c1 2c       	mov	r12, r1
   123ce:	d1 2c       	mov	r13, r1
   123d0:	7a c0       	rjmp	.+244    	; 0x124c6 <DrawSun+0x136>
   123d2:	8e 01       	movw	r16, r28
   123d4:	01 5d       	subi	r16, 0xD1	; 209
   123d6:	1f 4f       	sbci	r17, 0xFF	; 255
   123d8:	f8 01       	movw	r30, r16
   123da:	01 90       	ld	r0, Z+
   123dc:	00 20       	and	r0, r0
   123de:	e9 f7       	brne	.-6      	; 0x123da <DrawSun+0x4a>
   123e0:	31 97       	sbiw	r30, 0x01	; 1
   123e2:	af 01       	movw	r20, r30
   123e4:	40 1b       	sub	r20, r16
   123e6:	51 0b       	sbc	r21, r17
   123e8:	60 e0       	ldi	r22, 0x00	; 0
   123ea:	70 e0       	ldi	r23, 0x00	; 0
   123ec:	c8 01       	movw	r24, r16
   123ee:	0e 94 10 9f 	call	0x13e20	; 0x13e20 <memset>
   123f2:	fe 01       	movw	r30, r28
   123f4:	e7 55       	subi	r30, 0x57	; 87
   123f6:	f8 4e       	sbci	r31, 0xE8	; 232
   123f8:	8a e0       	ldi	r24, 0x0A	; 10
   123fa:	df 01       	movw	r26, r30
   123fc:	1d 92       	st	X+, r1
   123fe:	8a 95       	dec	r24
   12400:	e9 f7       	brne	.-6      	; 0x123fc <DrawSun+0x6c>
   12402:	ae 01       	movw	r20, r28
   12404:	43 5d       	subi	r20, 0xD3	; 211
   12406:	5f 4f       	sbci	r21, 0xFF	; 255
   12408:	60 e7       	ldi	r22, 0x70	; 112
   1240a:	77 e1       	ldi	r23, 0x17	; 23
   1240c:	c8 01       	movw	r24, r16
   1240e:	0e 94 de 82 	call	0x105bc	; 0x105bc <pf_read>
   12412:	a8 95       	wdr
   12414:	e1 2c       	mov	r14, r1
   12416:	f1 2c       	mov	r15, r1
   12418:	00 e0       	ldi	r16, 0x00	; 0
   1241a:	10 e0       	ldi	r17, 0x00	; 0
   1241c:	4b c0       	rjmp	.+150    	; 0x124b4 <DrawSun+0x124>
   1241e:	e9 ea       	ldi	r30, 0xA9	; 169
   12420:	f7 e1       	ldi	r31, 0x17	; 23
   12422:	ec 0f       	add	r30, r28
   12424:	fd 1f       	adc	r31, r29
   12426:	e2 0f       	add	r30, r18
   12428:	f3 1f       	adc	r31, r19
   1242a:	80 83       	st	Z, r24
   1242c:	0f 5f       	subi	r16, 0xFF	; 255
   1242e:	1f 4f       	sbci	r17, 0xFF	; 255
   12430:	2f 5f       	subi	r18, 0xFF	; 255
   12432:	3f 4f       	sbci	r19, 0xFF	; 255
   12434:	02 c0       	rjmp	.+4      	; 0x1243a <DrawSun+0xaa>
   12436:	20 e0       	ldi	r18, 0x00	; 0
   12438:	30 e0       	ldi	r19, 0x00	; 0
   1243a:	ef e2       	ldi	r30, 0x2F	; 47
   1243c:	f0 e0       	ldi	r31, 0x00	; 0
   1243e:	ec 0f       	add	r30, r28
   12440:	fd 1f       	adc	r31, r29
   12442:	e0 0f       	add	r30, r16
   12444:	f1 1f       	adc	r31, r17
   12446:	80 81       	ld	r24, Z
   12448:	8c 32       	cpi	r24, 0x2C	; 44
   1244a:	49 f7       	brne	.-46     	; 0x1241e <DrawSun+0x8e>
   1244c:	0e 5f       	subi	r16, 0xFE	; 254
   1244e:	1f 4f       	sbci	r17, 0xFF	; 255
   12450:	40 e1       	ldi	r20, 0x10	; 16
   12452:	50 e0       	ldi	r21, 0x00	; 0
   12454:	60 e0       	ldi	r22, 0x00	; 0
   12456:	70 e0       	ldi	r23, 0x00	; 0
   12458:	ce 01       	movw	r24, r28
   1245a:	87 55       	subi	r24, 0x57	; 87
   1245c:	98 4e       	sbci	r25, 0xE8	; 232
   1245e:	0e 94 dd 9d 	call	0x13bba	; 0x13bba <strtol>
   12462:	40 e1       	ldi	r20, 0x10	; 16
   12464:	50 e0       	ldi	r21, 0x00	; 0
   12466:	60 e0       	ldi	r22, 0x00	; 0
   12468:	70 e0       	ldi	r23, 0x00	; 0
   1246a:	ce 01       	movw	r24, r28
   1246c:	87 55       	subi	r24, 0x57	; 87
   1246e:	98 4e       	sbci	r25, 0xE8	; 232
   12470:	0e 94 dd 9d 	call	0x13bba	; 0x13bba <strtol>
   12474:	4b 01       	movw	r8, r22
   12476:	5c 01       	movw	r10, r24
   12478:	c6 01       	movw	r24, r12
   1247a:	88 0f       	add	r24, r24
   1247c:	99 1f       	adc	r25, r25
   1247e:	88 0f       	add	r24, r24
   12480:	99 1f       	adc	r25, r25
   12482:	88 0f       	add	r24, r24
   12484:	99 1f       	adc	r25, r25
   12486:	96 01       	movw	r18, r12
   12488:	22 0f       	add	r18, r18
   1248a:	33 1f       	adc	r19, r19
   1248c:	28 0f       	add	r18, r24
   1248e:	39 1f       	adc	r19, r25
   12490:	2b 5f       	subi	r18, 0xFB	; 251
   12492:	3f 4f       	sbci	r19, 0xFF	; 255
   12494:	c7 01       	movw	r24, r14
   12496:	64 e6       	ldi	r22, 0x64	; 100
   12498:	70 e0       	ldi	r23, 0x00	; 0
   1249a:	0e 94 51 9d 	call	0x13aa2	; 0x13aa2 <__divmodhi4>
   1249e:	62 0f       	add	r22, r18
   124a0:	73 1f       	adc	r23, r19
   124a2:	a4 01       	movw	r20, r8
   124a4:	82 5a       	subi	r24, 0xA2	; 162
   124a6:	9e 4f       	sbci	r25, 0xFE	; 254
   124a8:	0e 94 ab 6b 	call	0xd756	; 0xd756 <ILI9486_drawPixel>
   124ac:	a8 95       	wdr
   124ae:	bf ef       	ldi	r27, 0xFF	; 255
   124b0:	eb 1a       	sub	r14, r27
   124b2:	fb 0a       	sbc	r15, r27
   124b4:	88 ee       	ldi	r24, 0xE8	; 232
   124b6:	e8 16       	cp	r14, r24
   124b8:	83 e0       	ldi	r24, 0x03	; 3
   124ba:	f8 06       	cpc	r15, r24
   124bc:	0c f4       	brge	.+2      	; 0x124c0 <DrawSun+0x130>
   124be:	bb cf       	rjmp	.-138    	; 0x12436 <DrawSun+0xa6>
   124c0:	af ef       	ldi	r26, 0xFF	; 255
   124c2:	ca 1a       	sub	r12, r26
   124c4:	da 0a       	sbc	r13, r26
   124c6:	ba e0       	ldi	r27, 0x0A	; 10
   124c8:	cb 16       	cp	r12, r27
   124ca:	d1 04       	cpc	r13, r1
   124cc:	0c f4       	brge	.+2      	; 0x124d0 <DrawSun+0x140>
   124ce:	81 cf       	rjmp	.-254    	; 0x123d2 <DrawSun+0x42>
   124d0:	80 e0       	ldi	r24, 0x00	; 0
   124d2:	90 e0       	ldi	r25, 0x00	; 0
   124d4:	0e 94 50 81 	call	0x102a0	; 0x102a0 <pf_mount>
   124d8:	ce 54       	subi	r28, 0x4E	; 78
   124da:	d8 4e       	sbci	r29, 0xE8	; 232
   124dc:	0f b6       	in	r0, 0x3f	; 63
   124de:	f8 94       	cli
   124e0:	de bf       	out	0x3e, r29	; 62
   124e2:	0f be       	out	0x3f, r0	; 63
   124e4:	cd bf       	out	0x3d, r28	; 61
   124e6:	df 91       	pop	r29
   124e8:	cf 91       	pop	r28
   124ea:	1f 91       	pop	r17
   124ec:	0f 91       	pop	r16
   124ee:	ff 90       	pop	r15
   124f0:	ef 90       	pop	r14
   124f2:	df 90       	pop	r13
   124f4:	cf 90       	pop	r12
   124f6:	bf 90       	pop	r11
   124f8:	af 90       	pop	r10
   124fa:	9f 90       	pop	r9
   124fc:	8f 90       	pop	r8
   124fe:	08 95       	ret

00012500 <DrawWeatherVane>:
   12500:	0f 93       	push	r16
   12502:	1f 93       	push	r17
   12504:	2f ef       	ldi	r18, 0xFF	; 255
   12506:	3f ef       	ldi	r19, 0xFF	; 255
   12508:	4b e4       	ldi	r20, 0x4B	; 75
   1250a:	50 e0       	ldi	r21, 0x00	; 0
   1250c:	6f e9       	ldi	r22, 0x9F	; 159
   1250e:	70 e0       	ldi	r23, 0x00	; 0
   12510:	8f ee       	ldi	r24, 0xEF	; 239
   12512:	90 e0       	ldi	r25, 0x00	; 0
   12514:	0e 94 9d 6d 	call	0xdb3a	; 0xdb3a <ILI9486_Draw_Circle>
   12518:	2f ef       	ldi	r18, 0xFF	; 255
   1251a:	3f ef       	ldi	r19, 0xFF	; 255
   1251c:	4c e4       	ldi	r20, 0x4C	; 76
   1251e:	50 e0       	ldi	r21, 0x00	; 0
   12520:	6f e9       	ldi	r22, 0x9F	; 159
   12522:	70 e0       	ldi	r23, 0x00	; 0
   12524:	8f ee       	ldi	r24, 0xEF	; 239
   12526:	90 e0       	ldi	r25, 0x00	; 0
   12528:	0e 94 9d 6d 	call	0xdb3a	; 0xdb3a <ILI9486_Draw_Circle>
   1252c:	2f ef       	ldi	r18, 0xFF	; 255
   1252e:	3f ef       	ldi	r19, 0xFF	; 255
   12530:	40 e5       	ldi	r20, 0x50	; 80
   12532:	50 e0       	ldi	r21, 0x00	; 0
   12534:	6f e9       	ldi	r22, 0x9F	; 159
   12536:	70 e0       	ldi	r23, 0x00	; 0
   12538:	8f ee       	ldi	r24, 0xEF	; 239
   1253a:	90 e0       	ldi	r25, 0x00	; 0
   1253c:	0e 94 9d 6d 	call	0xdb3a	; 0xdb3a <ILI9486_Draw_Circle>
   12540:	2f ef       	ldi	r18, 0xFF	; 255
   12542:	3f ef       	ldi	r19, 0xFF	; 255
   12544:	41 e5       	ldi	r20, 0x51	; 81
   12546:	50 e0       	ldi	r21, 0x00	; 0
   12548:	6f e9       	ldi	r22, 0x9F	; 159
   1254a:	70 e0       	ldi	r23, 0x00	; 0
   1254c:	8f ee       	ldi	r24, 0xEF	; 239
   1254e:	90 e0       	ldi	r25, 0x00	; 0
   12550:	0e 94 9d 6d 	call	0xdb3a	; 0xdb3a <ILI9486_Draw_Circle>
   12554:	0f ef       	ldi	r16, 0xFF	; 255
   12556:	1f ef       	ldi	r17, 0xFF	; 255
   12558:	26 e1       	ldi	r18, 0x16	; 22
   1255a:	30 e0       	ldi	r19, 0x00	; 0
   1255c:	46 e1       	ldi	r20, 0x16	; 22
   1255e:	50 e0       	ldi	r21, 0x00	; 0
   12560:	69 e4       	ldi	r22, 0x49	; 73
   12562:	70 e0       	ldi	r23, 0x00	; 0
   12564:	86 ee       	ldi	r24, 0xE6	; 230
   12566:	90 e0       	ldi	r25, 0x00	; 0
   12568:	0e 94 3a 6f 	call	0xde74	; 0xde74 <ILI9486_DrawRect>
   1256c:	24 e1       	ldi	r18, 0x14	; 20
   1256e:	30 e0       	ldi	r19, 0x00	; 0
   12570:	44 e1       	ldi	r20, 0x14	; 20
   12572:	50 e0       	ldi	r21, 0x00	; 0
   12574:	6a e4       	ldi	r22, 0x4A	; 74
   12576:	70 e0       	ldi	r23, 0x00	; 0
   12578:	87 ee       	ldi	r24, 0xE7	; 231
   1257a:	90 e0       	ldi	r25, 0x00	; 0
   1257c:	0e 94 3a 6f 	call	0xde74	; 0xde74 <ILI9486_DrawRect>
   12580:	00 e0       	ldi	r16, 0x00	; 0
   12582:	10 e0       	ldi	r17, 0x00	; 0
   12584:	22 e1       	ldi	r18, 0x12	; 18
   12586:	30 e0       	ldi	r19, 0x00	; 0
   12588:	42 e1       	ldi	r20, 0x12	; 18
   1258a:	50 e0       	ldi	r21, 0x00	; 0
   1258c:	6b e4       	ldi	r22, 0x4B	; 75
   1258e:	70 e0       	ldi	r23, 0x00	; 0
   12590:	88 ee       	ldi	r24, 0xE8	; 232
   12592:	90 e0       	ldi	r25, 0x00	; 0
   12594:	0e 94 13 6c 	call	0xd826	; 0xd826 <ILI9486_fillRect>
   12598:	60 e0       	ldi	r22, 0x00	; 0
   1259a:	70 e0       	ldi	r23, 0x00	; 0
   1259c:	80 ee       	ldi	r24, 0xE0	; 224
   1259e:	9f e1       	ldi	r25, 0x1F	; 31
   125a0:	0e 94 00 71 	call	0xe200	; 0xe200 <ILI9486_SetTextColor>
   125a4:	69 e4       	ldi	r22, 0x49	; 73
   125a6:	70 e0       	ldi	r23, 0x00	; 0
   125a8:	89 ee       	ldi	r24, 0xE9	; 233
   125aa:	90 e0       	ldi	r25, 0x00	; 0
   125ac:	0e 94 52 75 	call	0xeaa4	; 0xeaa4 <ILI9486_SetCursor>
   125b0:	61 e0       	ldi	r22, 0x01	; 1
   125b2:	8c e4       	ldi	r24, 0x4C	; 76
   125b4:	93 e0       	ldi	r25, 0x03	; 3
   125b6:	0e 94 90 77 	call	0xef20	; 0xef20 <ILI9486_Print_String14x24>
   125ba:	0f ef       	ldi	r16, 0xFF	; 255
   125bc:	1f ef       	ldi	r17, 0xFF	; 255
   125be:	26 e1       	ldi	r18, 0x16	; 22
   125c0:	30 e0       	ldi	r19, 0x00	; 0
   125c2:	46 e1       	ldi	r20, 0x16	; 22
   125c4:	50 e0       	ldi	r21, 0x00	; 0
   125c6:	61 ee       	ldi	r22, 0xE1	; 225
   125c8:	70 e0       	ldi	r23, 0x00	; 0
   125ca:	86 ee       	ldi	r24, 0xE6	; 230
   125cc:	90 e0       	ldi	r25, 0x00	; 0
   125ce:	0e 94 3a 6f 	call	0xde74	; 0xde74 <ILI9486_DrawRect>
   125d2:	24 e1       	ldi	r18, 0x14	; 20
   125d4:	30 e0       	ldi	r19, 0x00	; 0
   125d6:	44 e1       	ldi	r20, 0x14	; 20
   125d8:	50 e0       	ldi	r21, 0x00	; 0
   125da:	62 ee       	ldi	r22, 0xE2	; 226
   125dc:	70 e0       	ldi	r23, 0x00	; 0
   125de:	87 ee       	ldi	r24, 0xE7	; 231
   125e0:	90 e0       	ldi	r25, 0x00	; 0
   125e2:	0e 94 3a 6f 	call	0xde74	; 0xde74 <ILI9486_DrawRect>
   125e6:	00 e0       	ldi	r16, 0x00	; 0
   125e8:	10 e0       	ldi	r17, 0x00	; 0
   125ea:	22 e1       	ldi	r18, 0x12	; 18
   125ec:	30 e0       	ldi	r19, 0x00	; 0
   125ee:	42 e1       	ldi	r20, 0x12	; 18
   125f0:	50 e0       	ldi	r21, 0x00	; 0
   125f2:	63 ee       	ldi	r22, 0xE3	; 227
   125f4:	70 e0       	ldi	r23, 0x00	; 0
   125f6:	88 ee       	ldi	r24, 0xE8	; 232
   125f8:	90 e0       	ldi	r25, 0x00	; 0
   125fa:	0e 94 13 6c 	call	0xd826	; 0xd826 <ILI9486_fillRect>
   125fe:	60 e0       	ldi	r22, 0x00	; 0
   12600:	70 e0       	ldi	r23, 0x00	; 0
   12602:	80 ee       	ldi	r24, 0xE0	; 224
   12604:	9f e1       	ldi	r25, 0x1F	; 31
   12606:	0e 94 00 71 	call	0xe200	; 0xe200 <ILI9486_SetTextColor>
   1260a:	61 ee       	ldi	r22, 0xE1	; 225
   1260c:	70 e0       	ldi	r23, 0x00	; 0
   1260e:	8a ee       	ldi	r24, 0xEA	; 234
   12610:	90 e0       	ldi	r25, 0x00	; 0
   12612:	0e 94 52 75 	call	0xeaa4	; 0xeaa4 <ILI9486_SetCursor>
   12616:	61 e0       	ldi	r22, 0x01	; 1
   12618:	8e e4       	ldi	r24, 0x4E	; 78
   1261a:	93 e0       	ldi	r25, 0x03	; 3
   1261c:	0e 94 90 77 	call	0xef20	; 0xef20 <ILI9486_Print_String14x24>
   12620:	0f ef       	ldi	r16, 0xFF	; 255
   12622:	1f ef       	ldi	r17, 0xFF	; 255
   12624:	26 e1       	ldi	r18, 0x16	; 22
   12626:	30 e0       	ldi	r19, 0x00	; 0
   12628:	46 e1       	ldi	r20, 0x16	; 22
   1262a:	50 e0       	ldi	r21, 0x00	; 0
   1262c:	65 e9       	ldi	r22, 0x95	; 149
   1262e:	70 e0       	ldi	r23, 0x00	; 0
   12630:	89 e9       	ldi	r24, 0x99	; 153
   12632:	90 e0       	ldi	r25, 0x00	; 0
   12634:	0e 94 3a 6f 	call	0xde74	; 0xde74 <ILI9486_DrawRect>
   12638:	24 e1       	ldi	r18, 0x14	; 20
   1263a:	30 e0       	ldi	r19, 0x00	; 0
   1263c:	44 e1       	ldi	r20, 0x14	; 20
   1263e:	50 e0       	ldi	r21, 0x00	; 0
   12640:	66 e9       	ldi	r22, 0x96	; 150
   12642:	70 e0       	ldi	r23, 0x00	; 0
   12644:	8a e9       	ldi	r24, 0x9A	; 154
   12646:	90 e0       	ldi	r25, 0x00	; 0
   12648:	0e 94 3a 6f 	call	0xde74	; 0xde74 <ILI9486_DrawRect>
   1264c:	00 e0       	ldi	r16, 0x00	; 0
   1264e:	10 e0       	ldi	r17, 0x00	; 0
   12650:	22 e1       	ldi	r18, 0x12	; 18
   12652:	30 e0       	ldi	r19, 0x00	; 0
   12654:	42 e1       	ldi	r20, 0x12	; 18
   12656:	50 e0       	ldi	r21, 0x00	; 0
   12658:	67 e9       	ldi	r22, 0x97	; 151
   1265a:	70 e0       	ldi	r23, 0x00	; 0
   1265c:	8b e9       	ldi	r24, 0x9B	; 155
   1265e:	90 e0       	ldi	r25, 0x00	; 0
   12660:	0e 94 13 6c 	call	0xd826	; 0xd826 <ILI9486_fillRect>
   12664:	60 e0       	ldi	r22, 0x00	; 0
   12666:	70 e0       	ldi	r23, 0x00	; 0
   12668:	80 ee       	ldi	r24, 0xE0	; 224
   1266a:	9f e1       	ldi	r25, 0x1F	; 31
   1266c:	0e 94 00 71 	call	0xe200	; 0xe200 <ILI9486_SetTextColor>
   12670:	65 e9       	ldi	r22, 0x95	; 149
   12672:	70 e0       	ldi	r23, 0x00	; 0
   12674:	8e e9       	ldi	r24, 0x9E	; 158
   12676:	90 e0       	ldi	r25, 0x00	; 0
   12678:	0e 94 52 75 	call	0xeaa4	; 0xeaa4 <ILI9486_SetCursor>
   1267c:	61 e0       	ldi	r22, 0x01	; 1
   1267e:	8c e5       	ldi	r24, 0x5C	; 92
   12680:	93 e0       	ldi	r25, 0x03	; 3
   12682:	0e 94 90 77 	call	0xef20	; 0xef20 <ILI9486_Print_String14x24>
   12686:	0f ef       	ldi	r16, 0xFF	; 255
   12688:	1f ef       	ldi	r17, 0xFF	; 255
   1268a:	26 e1       	ldi	r18, 0x16	; 22
   1268c:	30 e0       	ldi	r19, 0x00	; 0
   1268e:	46 e1       	ldi	r20, 0x16	; 22
   12690:	50 e0       	ldi	r21, 0x00	; 0
   12692:	65 e9       	ldi	r22, 0x95	; 149
   12694:	70 e0       	ldi	r23, 0x00	; 0
   12696:	80 e3       	ldi	r24, 0x30	; 48
   12698:	91 e0       	ldi	r25, 0x01	; 1
   1269a:	0e 94 3a 6f 	call	0xde74	; 0xde74 <ILI9486_DrawRect>
   1269e:	24 e1       	ldi	r18, 0x14	; 20
   126a0:	30 e0       	ldi	r19, 0x00	; 0
   126a2:	44 e1       	ldi	r20, 0x14	; 20
   126a4:	50 e0       	ldi	r21, 0x00	; 0
   126a6:	66 e9       	ldi	r22, 0x96	; 150
   126a8:	70 e0       	ldi	r23, 0x00	; 0
   126aa:	81 e3       	ldi	r24, 0x31	; 49
   126ac:	91 e0       	ldi	r25, 0x01	; 1
   126ae:	0e 94 3a 6f 	call	0xde74	; 0xde74 <ILI9486_DrawRect>
   126b2:	00 e0       	ldi	r16, 0x00	; 0
   126b4:	10 e0       	ldi	r17, 0x00	; 0
   126b6:	22 e1       	ldi	r18, 0x12	; 18
   126b8:	30 e0       	ldi	r19, 0x00	; 0
   126ba:	42 e1       	ldi	r20, 0x12	; 18
   126bc:	50 e0       	ldi	r21, 0x00	; 0
   126be:	67 e9       	ldi	r22, 0x97	; 151
   126c0:	70 e0       	ldi	r23, 0x00	; 0
   126c2:	82 e3       	ldi	r24, 0x32	; 50
   126c4:	91 e0       	ldi	r25, 0x01	; 1
   126c6:	0e 94 13 6c 	call	0xd826	; 0xd826 <ILI9486_fillRect>
   126ca:	60 e0       	ldi	r22, 0x00	; 0
   126cc:	70 e0       	ldi	r23, 0x00	; 0
   126ce:	80 ee       	ldi	r24, 0xE0	; 224
   126d0:	9f e1       	ldi	r25, 0x1F	; 31
   126d2:	0e 94 00 71 	call	0xe200	; 0xe200 <ILI9486_SetTextColor>
   126d6:	65 e9       	ldi	r22, 0x95	; 149
   126d8:	70 e0       	ldi	r23, 0x00	; 0
   126da:	85 e3       	ldi	r24, 0x35	; 53
   126dc:	91 e0       	ldi	r25, 0x01	; 1
   126de:	0e 94 52 75 	call	0xeaa4	; 0xeaa4 <ILI9486_SetCursor>
   126e2:	61 e0       	ldi	r22, 0x01	; 1
   126e4:	88 e5       	ldi	r24, 0x58	; 88
   126e6:	93 e0       	ldi	r25, 0x03	; 3
   126e8:	0e 94 90 77 	call	0xef20	; 0xef20 <ILI9486_Print_String14x24>
   126ec:	0f ef       	ldi	r16, 0xFF	; 255
   126ee:	1f ef       	ldi	r17, 0xFF	; 255
   126f0:	2a e6       	ldi	r18, 0x6A	; 106
   126f2:	30 e0       	ldi	r19, 0x00	; 0
   126f4:	4a eb       	ldi	r20, 0xBA	; 186
   126f6:	50 e0       	ldi	r21, 0x00	; 0
   126f8:	62 e7       	ldi	r22, 0x72	; 114
   126fa:	70 e0       	ldi	r23, 0x00	; 0
   126fc:	82 ec       	ldi	r24, 0xC2	; 194
   126fe:	90 e0       	ldi	r25, 0x00	; 0
   12700:	0e 94 72 6d 	call	0xdae4	; 0xdae4 <ILI9486_Draw_Line>
   12704:	29 e6       	ldi	r18, 0x69	; 105
   12706:	30 e0       	ldi	r19, 0x00	; 0
   12708:	4b eb       	ldi	r20, 0xBB	; 187
   1270a:	50 e0       	ldi	r21, 0x00	; 0
   1270c:	61 e7       	ldi	r22, 0x71	; 113
   1270e:	70 e0       	ldi	r23, 0x00	; 0
   12710:	83 ec       	ldi	r24, 0xC3	; 195
   12712:	90 e0       	ldi	r25, 0x00	; 0
   12714:	0e 94 72 6d 	call	0xdae4	; 0xdae4 <ILI9486_Draw_Line>
   12718:	2b e6       	ldi	r18, 0x6B	; 107
   1271a:	30 e0       	ldi	r19, 0x00	; 0
   1271c:	49 eb       	ldi	r20, 0xB9	; 185
   1271e:	50 e0       	ldi	r21, 0x00	; 0
   12720:	63 e7       	ldi	r22, 0x73	; 115
   12722:	70 e0       	ldi	r23, 0x00	; 0
   12724:	81 ec       	ldi	r24, 0xC1	; 193
   12726:	90 e0       	ldi	r25, 0x00	; 0
   12728:	0e 94 72 6d 	call	0xdae4	; 0xdae4 <ILI9486_Draw_Line>
   1272c:	22 e7       	ldi	r18, 0x72	; 114
   1272e:	30 e0       	ldi	r19, 0x00	; 0
   12730:	4c e1       	ldi	r20, 0x1C	; 28
   12732:	51 e0       	ldi	r21, 0x01	; 1
   12734:	6a e6       	ldi	r22, 0x6A	; 106
   12736:	70 e0       	ldi	r23, 0x00	; 0
   12738:	84 e2       	ldi	r24, 0x24	; 36
   1273a:	91 e0       	ldi	r25, 0x01	; 1
   1273c:	0e 94 72 6d 	call	0xdae4	; 0xdae4 <ILI9486_Draw_Line>
   12740:	21 e7       	ldi	r18, 0x71	; 113
   12742:	30 e0       	ldi	r19, 0x00	; 0
   12744:	4b e1       	ldi	r20, 0x1B	; 27
   12746:	51 e0       	ldi	r21, 0x01	; 1
   12748:	69 e6       	ldi	r22, 0x69	; 105
   1274a:	70 e0       	ldi	r23, 0x00	; 0
   1274c:	83 e2       	ldi	r24, 0x23	; 35
   1274e:	91 e0       	ldi	r25, 0x01	; 1
   12750:	0e 94 72 6d 	call	0xdae4	; 0xdae4 <ILI9486_Draw_Line>
   12754:	23 e7       	ldi	r18, 0x73	; 115
   12756:	30 e0       	ldi	r19, 0x00	; 0
   12758:	4d e1       	ldi	r20, 0x1D	; 29
   1275a:	51 e0       	ldi	r21, 0x01	; 1
   1275c:	6b e6       	ldi	r22, 0x6B	; 107
   1275e:	70 e0       	ldi	r23, 0x00	; 0
   12760:	85 e2       	ldi	r24, 0x25	; 37
   12762:	91 e0       	ldi	r25, 0x01	; 1
   12764:	0e 94 72 6d 	call	0xdae4	; 0xdae4 <ILI9486_Draw_Line>
   12768:	2c ec       	ldi	r18, 0xCC	; 204
   1276a:	30 e0       	ldi	r19, 0x00	; 0
   1276c:	4c e1       	ldi	r20, 0x1C	; 28
   1276e:	51 e0       	ldi	r21, 0x01	; 1
   12770:	64 ed       	ldi	r22, 0xD4	; 212
   12772:	70 e0       	ldi	r23, 0x00	; 0
   12774:	84 e2       	ldi	r24, 0x24	; 36
   12776:	91 e0       	ldi	r25, 0x01	; 1
   12778:	0e 94 72 6d 	call	0xdae4	; 0xdae4 <ILI9486_Draw_Line>
   1277c:	2b ec       	ldi	r18, 0xCB	; 203
   1277e:	30 e0       	ldi	r19, 0x00	; 0
   12780:	4d e1       	ldi	r20, 0x1D	; 29
   12782:	51 e0       	ldi	r21, 0x01	; 1
   12784:	63 ed       	ldi	r22, 0xD3	; 211
   12786:	70 e0       	ldi	r23, 0x00	; 0
   12788:	85 e2       	ldi	r24, 0x25	; 37
   1278a:	91 e0       	ldi	r25, 0x01	; 1
   1278c:	0e 94 72 6d 	call	0xdae4	; 0xdae4 <ILI9486_Draw_Line>
   12790:	2d ec       	ldi	r18, 0xCD	; 205
   12792:	30 e0       	ldi	r19, 0x00	; 0
   12794:	4b e1       	ldi	r20, 0x1B	; 27
   12796:	51 e0       	ldi	r21, 0x01	; 1
   12798:	65 ed       	ldi	r22, 0xD5	; 213
   1279a:	70 e0       	ldi	r23, 0x00	; 0
   1279c:	83 e2       	ldi	r24, 0x23	; 35
   1279e:	91 e0       	ldi	r25, 0x01	; 1
   127a0:	0e 94 72 6d 	call	0xdae4	; 0xdae4 <ILI9486_Draw_Line>
   127a4:	2c ec       	ldi	r18, 0xCC	; 204
   127a6:	30 e0       	ldi	r19, 0x00	; 0
   127a8:	42 ec       	ldi	r20, 0xC2	; 194
   127aa:	50 e0       	ldi	r21, 0x00	; 0
   127ac:	64 ed       	ldi	r22, 0xD4	; 212
   127ae:	70 e0       	ldi	r23, 0x00	; 0
   127b0:	8a eb       	ldi	r24, 0xBA	; 186
   127b2:	90 e0       	ldi	r25, 0x00	; 0
   127b4:	0e 94 72 6d 	call	0xdae4	; 0xdae4 <ILI9486_Draw_Line>
   127b8:	2b ec       	ldi	r18, 0xCB	; 203
   127ba:	30 e0       	ldi	r19, 0x00	; 0
   127bc:	41 ec       	ldi	r20, 0xC1	; 193
   127be:	50 e0       	ldi	r21, 0x00	; 0
   127c0:	63 ed       	ldi	r22, 0xD3	; 211
   127c2:	70 e0       	ldi	r23, 0x00	; 0
   127c4:	89 eb       	ldi	r24, 0xB9	; 185
   127c6:	90 e0       	ldi	r25, 0x00	; 0
   127c8:	0e 94 72 6d 	call	0xdae4	; 0xdae4 <ILI9486_Draw_Line>
   127cc:	2d ec       	ldi	r18, 0xCD	; 205
   127ce:	30 e0       	ldi	r19, 0x00	; 0
   127d0:	43 ec       	ldi	r20, 0xC3	; 195
   127d2:	50 e0       	ldi	r21, 0x00	; 0
   127d4:	65 ed       	ldi	r22, 0xD5	; 213
   127d6:	70 e0       	ldi	r23, 0x00	; 0
   127d8:	8b eb       	ldi	r24, 0xBB	; 187
   127da:	90 e0       	ldi	r25, 0x00	; 0
   127dc:	0e 94 72 6d 	call	0xdae4	; 0xdae4 <ILI9486_Draw_Line>
   127e0:	20 ee       	ldi	r18, 0xE0	; 224
   127e2:	3f e1       	ldi	r19, 0x1F	; 31
   127e4:	4e e1       	ldi	r20, 0x1E	; 30
   127e6:	50 e0       	ldi	r21, 0x00	; 0
   127e8:	6f e9       	ldi	r22, 0x9F	; 159
   127ea:	70 e0       	ldi	r23, 0x00	; 0
   127ec:	8f ee       	ldi	r24, 0xEF	; 239
   127ee:	90 e0       	ldi	r25, 0x00	; 0
   127f0:	0e 94 9d 6d 	call	0xdb3a	; 0xdb3a <ILI9486_Draw_Circle>
   127f4:	20 ee       	ldi	r18, 0xE0	; 224
   127f6:	3f e1       	ldi	r19, 0x1F	; 31
   127f8:	4d e1       	ldi	r20, 0x1D	; 29
   127fa:	50 e0       	ldi	r21, 0x00	; 0
   127fc:	6f e9       	ldi	r22, 0x9F	; 159
   127fe:	70 e0       	ldi	r23, 0x00	; 0
   12800:	8f ee       	ldi	r24, 0xEF	; 239
   12802:	90 e0       	ldi	r25, 0x00	; 0
   12804:	0e 94 9d 6d 	call	0xdb3a	; 0xdb3a <ILI9486_Draw_Circle>
   12808:	2f ef       	ldi	r18, 0xFF	; 255
   1280a:	3f ef       	ldi	r19, 0xFF	; 255
   1280c:	4c e1       	ldi	r20, 0x1C	; 28
   1280e:	50 e0       	ldi	r21, 0x00	; 0
   12810:	6f e9       	ldi	r22, 0x9F	; 159
   12812:	70 e0       	ldi	r23, 0x00	; 0
   12814:	8f ee       	ldi	r24, 0xEF	; 239
   12816:	90 e0       	ldi	r25, 0x00	; 0
   12818:	0e 94 9d 6d 	call	0xdb3a	; 0xdb3a <ILI9486_Draw_Circle>
   1281c:	2f ef       	ldi	r18, 0xFF	; 255
   1281e:	3f ef       	ldi	r19, 0xFF	; 255
   12820:	4b e1       	ldi	r20, 0x1B	; 27
   12822:	50 e0       	ldi	r21, 0x00	; 0
   12824:	6f e9       	ldi	r22, 0x9F	; 159
   12826:	70 e0       	ldi	r23, 0x00	; 0
   12828:	8f ee       	ldi	r24, 0xEF	; 239
   1282a:	90 e0       	ldi	r25, 0x00	; 0
   1282c:	0e 94 9d 6d 	call	0xdb3a	; 0xdb3a <ILI9486_Draw_Circle>
   12830:	2f ef       	ldi	r18, 0xFF	; 255
   12832:	3f ef       	ldi	r19, 0xFF	; 255
   12834:	4a e0       	ldi	r20, 0x0A	; 10
   12836:	50 e0       	ldi	r21, 0x00	; 0
   12838:	6f e9       	ldi	r22, 0x9F	; 159
   1283a:	70 e0       	ldi	r23, 0x00	; 0
   1283c:	8f ee       	ldi	r24, 0xEF	; 239
   1283e:	90 e0       	ldi	r25, 0x00	; 0
   12840:	0e 94 9d 6d 	call	0xdb3a	; 0xdb3a <ILI9486_Draw_Circle>
   12844:	2f ef       	ldi	r18, 0xFF	; 255
   12846:	3f ef       	ldi	r19, 0xFF	; 255
   12848:	49 e0       	ldi	r20, 0x09	; 9
   1284a:	50 e0       	ldi	r21, 0x00	; 0
   1284c:	6f e9       	ldi	r22, 0x9F	; 159
   1284e:	70 e0       	ldi	r23, 0x00	; 0
   12850:	8f ee       	ldi	r24, 0xEF	; 239
   12852:	90 e0       	ldi	r25, 0x00	; 0
   12854:	0e 94 9d 6d 	call	0xdb3a	; 0xdb3a <ILI9486_Draw_Circle>
   12858:	20 ee       	ldi	r18, 0xE0	; 224
   1285a:	3f e1       	ldi	r19, 0x1F	; 31
   1285c:	48 e0       	ldi	r20, 0x08	; 8
   1285e:	50 e0       	ldi	r21, 0x00	; 0
   12860:	6f e9       	ldi	r22, 0x9F	; 159
   12862:	70 e0       	ldi	r23, 0x00	; 0
   12864:	8f ee       	ldi	r24, 0xEF	; 239
   12866:	90 e0       	ldi	r25, 0x00	; 0
   12868:	0e 94 13 6f 	call	0xde26	; 0xde26 <ILI9486_fillCircle>
   1286c:	25 e9       	ldi	r18, 0x95	; 149
   1286e:	30 e0       	ldi	r19, 0x00	; 0
   12870:	4d ee       	ldi	r20, 0xED	; 237
   12872:	50 e0       	ldi	r21, 0x00	; 0
   12874:	61 e8       	ldi	r22, 0x81	; 129
   12876:	70 e0       	ldi	r23, 0x00	; 0
   12878:	8f ee       	ldi	r24, 0xEF	; 239
   1287a:	90 e0       	ldi	r25, 0x00	; 0
   1287c:	0e 94 72 6d 	call	0xdae4	; 0xdae4 <ILI9486_Draw_Line>
   12880:	25 e9       	ldi	r18, 0x95	; 149
   12882:	30 e0       	ldi	r19, 0x00	; 0
   12884:	41 ef       	ldi	r20, 0xF1	; 241
   12886:	50 e0       	ldi	r21, 0x00	; 0
   12888:	61 e8       	ldi	r22, 0x81	; 129
   1288a:	70 e0       	ldi	r23, 0x00	; 0
   1288c:	8f ee       	ldi	r24, 0xEF	; 239
   1288e:	90 e0       	ldi	r25, 0x00	; 0
   12890:	0e 94 72 6d 	call	0xdae4	; 0xdae4 <ILI9486_Draw_Line>
   12894:	2d e9       	ldi	r18, 0x9D	; 157
   12896:	30 e0       	ldi	r19, 0x00	; 0
   12898:	45 ee       	ldi	r20, 0xE5	; 229
   1289a:	50 e0       	ldi	r21, 0x00	; 0
   1289c:	6f e9       	ldi	r22, 0x9F	; 159
   1289e:	70 e0       	ldi	r23, 0x00	; 0
   128a0:	81 ed       	ldi	r24, 0xD1	; 209
   128a2:	90 e0       	ldi	r25, 0x00	; 0
   128a4:	0e 94 72 6d 	call	0xdae4	; 0xdae4 <ILI9486_Draw_Line>
   128a8:	21 ea       	ldi	r18, 0xA1	; 161
   128aa:	30 e0       	ldi	r19, 0x00	; 0
   128ac:	45 ee       	ldi	r20, 0xE5	; 229
   128ae:	50 e0       	ldi	r21, 0x00	; 0
   128b0:	6f e9       	ldi	r22, 0x9F	; 159
   128b2:	70 e0       	ldi	r23, 0x00	; 0
   128b4:	81 ed       	ldi	r24, 0xD1	; 209
   128b6:	90 e0       	ldi	r25, 0x00	; 0
   128b8:	0e 94 72 6d 	call	0xdae4	; 0xdae4 <ILI9486_Draw_Line>
   128bc:	2d e9       	ldi	r18, 0x9D	; 157
   128be:	30 e0       	ldi	r19, 0x00	; 0
   128c0:	49 ef       	ldi	r20, 0xF9	; 249
   128c2:	50 e0       	ldi	r21, 0x00	; 0
   128c4:	6f e9       	ldi	r22, 0x9F	; 159
   128c6:	70 e0       	ldi	r23, 0x00	; 0
   128c8:	8d e0       	ldi	r24, 0x0D	; 13
   128ca:	91 e0       	ldi	r25, 0x01	; 1
   128cc:	0e 94 72 6d 	call	0xdae4	; 0xdae4 <ILI9486_Draw_Line>
   128d0:	21 ea       	ldi	r18, 0xA1	; 161
   128d2:	30 e0       	ldi	r19, 0x00	; 0
   128d4:	49 ef       	ldi	r20, 0xF9	; 249
   128d6:	50 e0       	ldi	r21, 0x00	; 0
   128d8:	6f e9       	ldi	r22, 0x9F	; 159
   128da:	70 e0       	ldi	r23, 0x00	; 0
   128dc:	8d e0       	ldi	r24, 0x0D	; 13
   128de:	91 e0       	ldi	r25, 0x01	; 1
   128e0:	0e 94 72 6d 	call	0xdae4	; 0xdae4 <ILI9486_Draw_Line>
   128e4:	29 ea       	ldi	r18, 0xA9	; 169
   128e6:	30 e0       	ldi	r19, 0x00	; 0
   128e8:	4d ee       	ldi	r20, 0xED	; 237
   128ea:	50 e0       	ldi	r21, 0x00	; 0
   128ec:	6d eb       	ldi	r22, 0xBD	; 189
   128ee:	70 e0       	ldi	r23, 0x00	; 0
   128f0:	8f ee       	ldi	r24, 0xEF	; 239
   128f2:	90 e0       	ldi	r25, 0x00	; 0
   128f4:	0e 94 72 6d 	call	0xdae4	; 0xdae4 <ILI9486_Draw_Line>
   128f8:	29 ea       	ldi	r18, 0xA9	; 169
   128fa:	30 e0       	ldi	r19, 0x00	; 0
   128fc:	41 ef       	ldi	r20, 0xF1	; 241
   128fe:	50 e0       	ldi	r21, 0x00	; 0
   12900:	6d eb       	ldi	r22, 0xBD	; 189
   12902:	70 e0       	ldi	r23, 0x00	; 0
   12904:	8f ee       	ldi	r24, 0xEF	; 239
   12906:	90 e0       	ldi	r25, 0x00	; 0
   12908:	0e 94 72 6d 	call	0xdae4	; 0xdae4 <ILI9486_Draw_Line>
   1290c:	1f 91       	pop	r17
   1290e:	0f 91       	pop	r16
   12910:	08 95       	ret

00012912 <Print_Static_Home_Page>:
   12912:	80 e0       	ldi	r24, 0x00	; 0
   12914:	90 e0       	ldi	r25, 0x00	; 0
   12916:	0e 94 b8 6b 	call	0xd770	; 0xd770 <ILI9486_FillScreen>
   1291a:	81 e0       	ldi	r24, 0x01	; 1
   1291c:	0e 94 67 69 	call	0xd2ce	; 0xd2ce <ILI9486_SetRotation>
   12920:	0e 94 4b 84 	call	0x10896	; 0x10896 <Print_Boards_Main>
   12924:	ed dd       	rcall	.-1062   	; 0x12500 <DrawWeatherVane>
   12926:	60 e0       	ldi	r22, 0x00	; 0
   12928:	70 e0       	ldi	r23, 0x00	; 0
   1292a:	8f e1       	ldi	r24, 0x1F	; 31
   1292c:	90 e0       	ldi	r25, 0x00	; 0
   1292e:	0e 94 00 71 	call	0xe200	; 0xe200 <ILI9486_SetTextColor>
   12932:	61 ef       	ldi	r22, 0xF1	; 241
   12934:	70 e0       	ldi	r23, 0x00	; 0
   12936:	8d ea       	ldi	r24, 0xAD	; 173
   12938:	90 e0       	ldi	r25, 0x00	; 0
   1293a:	0e 94 52 75 	call	0xeaa4	; 0xeaa4 <ILI9486_SetCursor>
   1293e:	60 e0       	ldi	r22, 0x00	; 0
   12940:	8c e5       	ldi	r24, 0x5C	; 92
   12942:	93 e0       	ldi	r25, 0x03	; 3
   12944:	0e 94 90 77 	call	0xef20	; 0xef20 <ILI9486_Print_String14x24>
   12948:	6a ef       	ldi	r22, 0xFA	; 250
   1294a:	70 e0       	ldi	r23, 0x00	; 0
   1294c:	8a eb       	ldi	r24, 0xBA	; 186
   1294e:	90 e0       	ldi	r25, 0x00	; 0
   12950:	0e 94 52 75 	call	0xeaa4	; 0xeaa4 <ILI9486_SetCursor>
   12954:	60 e0       	ldi	r22, 0x00	; 0
   12956:	80 e5       	ldi	r24, 0x50	; 80
   12958:	93 e0       	ldi	r25, 0x03	; 3
   1295a:	0e 94 90 77 	call	0xef20	; 0xef20 <ILI9486_Print_String14x24>
   1295e:	6f ef       	ldi	r22, 0xFF	; 255
   12960:	70 e0       	ldi	r23, 0x00	; 0
   12962:	86 ec       	ldi	r24, 0xC6	; 198
   12964:	90 e0       	ldi	r25, 0x00	; 0
   12966:	0e 94 52 75 	call	0xeaa4	; 0xeaa4 <ILI9486_SetCursor>
   1296a:	60 e0       	ldi	r22, 0x00	; 0
   1296c:	8c e4       	ldi	r24, 0x4C	; 76
   1296e:	93 e0       	ldi	r25, 0x03	; 3
   12970:	0e 94 90 77 	call	0xef20	; 0xef20 <ILI9486_Print_String14x24>
   12974:	61 e0       	ldi	r22, 0x01	; 1
   12976:	71 e0       	ldi	r23, 0x01	; 1
   12978:	87 ed       	ldi	r24, 0xD7	; 215
   1297a:	90 e0       	ldi	r25, 0x00	; 0
   1297c:	0e 94 52 75 	call	0xeaa4	; 0xeaa4 <ILI9486_SetCursor>
   12980:	60 e0       	ldi	r22, 0x00	; 0
   12982:	82 e5       	ldi	r24, 0x52	; 82
   12984:	93 e0       	ldi	r25, 0x03	; 3
   12986:	0e 94 90 77 	call	0xef20	; 0xef20 <ILI9486_Print_String14x24>
   1298a:	61 e0       	ldi	r22, 0x01	; 1
   1298c:	71 e0       	ldi	r23, 0x01	; 1
   1298e:	8f ee       	ldi	r24, 0xEF	; 239
   12990:	90 e0       	ldi	r25, 0x00	; 0
   12992:	0e 94 52 75 	call	0xeaa4	; 0xeaa4 <ILI9486_SetCursor>
   12996:	60 e0       	ldi	r22, 0x00	; 0
   12998:	8e e4       	ldi	r24, 0x4E	; 78
   1299a:	93 e0       	ldi	r25, 0x03	; 3
   1299c:	0e 94 90 77 	call	0xef20	; 0xef20 <ILI9486_Print_String14x24>
   129a0:	61 e0       	ldi	r22, 0x01	; 1
   129a2:	71 e0       	ldi	r23, 0x01	; 1
   129a4:	8d ef       	ldi	r24, 0xFD	; 253
   129a6:	90 e0       	ldi	r25, 0x00	; 0
   129a8:	0e 94 52 75 	call	0xeaa4	; 0xeaa4 <ILI9486_SetCursor>
   129ac:	60 e0       	ldi	r22, 0x00	; 0
   129ae:	84 e5       	ldi	r24, 0x54	; 84
   129b0:	93 e0       	ldi	r25, 0x03	; 3
   129b2:	0e 94 90 77 	call	0xef20	; 0xef20 <ILI9486_Print_String14x24>
   129b6:	6f ef       	ldi	r22, 0xFF	; 255
   129b8:	70 e0       	ldi	r23, 0x00	; 0
   129ba:	8b e0       	ldi	r24, 0x0B	; 11
   129bc:	91 e0       	ldi	r25, 0x01	; 1
   129be:	0e 94 52 75 	call	0xeaa4	; 0xeaa4 <ILI9486_SetCursor>
   129c2:	60 e0       	ldi	r22, 0x00	; 0
   129c4:	88 e5       	ldi	r24, 0x58	; 88
   129c6:	93 e0       	ldi	r25, 0x03	; 3
   129c8:	0e 94 90 77 	call	0xef20	; 0xef20 <ILI9486_Print_String14x24>
   129cc:	6a ef       	ldi	r22, 0xFA	; 250
   129ce:	70 e0       	ldi	r23, 0x00	; 0
   129d0:	89 e1       	ldi	r24, 0x19	; 25
   129d2:	91 e0       	ldi	r25, 0x01	; 1
   129d4:	0e 94 52 75 	call	0xeaa4	; 0xeaa4 <ILI9486_SetCursor>
   129d8:	60 e0       	ldi	r22, 0x00	; 0
   129da:	88 e5       	ldi	r24, 0x58	; 88
   129dc:	93 e0       	ldi	r25, 0x03	; 3
   129de:	0e 94 90 77 	call	0xef20	; 0xef20 <ILI9486_Print_String14x24>
   129e2:	60 ef       	ldi	r22, 0xF0	; 240
   129e4:	70 e0       	ldi	r23, 0x00	; 0
   129e6:	87 e2       	ldi	r24, 0x27	; 39
   129e8:	91 e0       	ldi	r25, 0x01	; 1
   129ea:	0e 94 52 75 	call	0xeaa4	; 0xeaa4 <ILI9486_SetCursor>
   129ee:	60 e0       	ldi	r22, 0x00	; 0
   129f0:	82 e5       	ldi	r24, 0x52	; 82
   129f2:	93 e0       	ldi	r25, 0x03	; 3
   129f4:	0c 94 90 77 	jmp	0xef20	; 0xef20 <ILI9486_Print_String14x24>
   129f8:	08 95       	ret

000129fa <DrawWindDirect>:
   129fa:	cf 92       	push	r12
   129fc:	df 92       	push	r13
   129fe:	ef 92       	push	r14
   12a00:	ff 92       	push	r15
   12a02:	0f 93       	push	r16
   12a04:	1f 93       	push	r17
   12a06:	8e e4       	ldi	r24, 0x4E	; 78
   12a08:	90 e0       	ldi	r25, 0x00	; 0
   12a0a:	90 93 80 04 	sts	0x0480, r25	; 0x800480 <wind_direction+0x1>
   12a0e:	80 93 7f 04 	sts	0x047F, r24	; 0x80047f <wind_direction>
   12a12:	6c e4       	ldi	r22, 0x4C	; 76
   12a14:	73 e0       	ldi	r23, 0x03	; 3
   12a16:	8f e7       	ldi	r24, 0x7F	; 127
   12a18:	94 e0       	ldi	r25, 0x04	; 4
   12a1a:	0e 94 17 9f 	call	0x13e2e	; 0x13e2e <strcmp>
   12a1e:	89 2b       	or	r24, r25
   12a20:	49 f5       	brne	.+82     	; 0x12a74 <DrawWindDirect+0x7a>
   12a22:	0f 2e       	mov	r0, r31
   12a24:	f0 ee       	ldi	r31, 0xE0	; 224
   12a26:	cf 2e       	mov	r12, r31
   12a28:	ff e1       	ldi	r31, 0x1F	; 31
   12a2a:	df 2e       	mov	r13, r31
   12a2c:	f0 2d       	mov	r31, r0
   12a2e:	0f 2e       	mov	r0, r31
   12a30:	f3 e7       	ldi	r31, 0x73	; 115
   12a32:	ef 2e       	mov	r14, r31
   12a34:	f1 2c       	mov	r15, r1
   12a36:	f0 2d       	mov	r31, r0
   12a38:	0f ee       	ldi	r16, 0xEF	; 239
   12a3a:	10 e0       	ldi	r17, 0x00	; 0
   12a3c:	2c e7       	ldi	r18, 0x7C	; 124
   12a3e:	30 e0       	ldi	r19, 0x00	; 0
   12a40:	49 ee       	ldi	r20, 0xE9	; 233
   12a42:	50 e0       	ldi	r21, 0x00	; 0
   12a44:	63 e6       	ldi	r22, 0x63	; 99
   12a46:	70 e0       	ldi	r23, 0x00	; 0
   12a48:	8f ee       	ldi	r24, 0xEF	; 239
   12a4a:	90 e0       	ldi	r25, 0x00	; 0
   12a4c:	0e 94 6b 6f 	call	0xded6	; 0xded6 <ILI9486_fillTriangle>
   12a50:	0f 2e       	mov	r0, r31
   12a52:	fc e7       	ldi	r31, 0x7C	; 124
   12a54:	ef 2e       	mov	r14, r31
   12a56:	f1 2c       	mov	r15, r1
   12a58:	f0 2d       	mov	r31, r0
   12a5a:	05 ef       	ldi	r16, 0xF5	; 245
   12a5c:	10 e0       	ldi	r17, 0x00	; 0
   12a5e:	23 e7       	ldi	r18, 0x73	; 115
   12a60:	30 e0       	ldi	r19, 0x00	; 0
   12a62:	4f ee       	ldi	r20, 0xEF	; 239
   12a64:	50 e0       	ldi	r21, 0x00	; 0
   12a66:	63 e6       	ldi	r22, 0x63	; 99
   12a68:	70 e0       	ldi	r23, 0x00	; 0
   12a6a:	8f ee       	ldi	r24, 0xEF	; 239
   12a6c:	90 e0       	ldi	r25, 0x00	; 0
   12a6e:	0e 94 6b 6f 	call	0xded6	; 0xded6 <ILI9486_fillTriangle>
   12a72:	42 c1       	rjmp	.+644    	; 0x12cf8 <DrawWindDirect+0x2fe>
   12a74:	6e e4       	ldi	r22, 0x4E	; 78
   12a76:	73 e0       	ldi	r23, 0x03	; 3
   12a78:	8f e7       	ldi	r24, 0x7F	; 127
   12a7a:	94 e0       	ldi	r25, 0x04	; 4
   12a7c:	0e 94 17 9f 	call	0x13e2e	; 0x13e2e <strcmp>
   12a80:	89 2b       	or	r24, r25
   12a82:	49 f5       	brne	.+82     	; 0x12ad6 <DrawWindDirect+0xdc>
   12a84:	0f 2e       	mov	r0, r31
   12a86:	f0 ee       	ldi	r31, 0xE0	; 224
   12a88:	cf 2e       	mov	r12, r31
   12a8a:	ff e1       	ldi	r31, 0x1F	; 31
   12a8c:	df 2e       	mov	r13, r31
   12a8e:	f0 2d       	mov	r31, r0
   12a90:	0f 2e       	mov	r0, r31
   12a92:	fd ec       	ldi	r31, 0xCD	; 205
   12a94:	ef 2e       	mov	r14, r31
   12a96:	f1 2c       	mov	r15, r1
   12a98:	f0 2d       	mov	r31, r0
   12a9a:	0f ee       	ldi	r16, 0xEF	; 239
   12a9c:	10 e0       	ldi	r17, 0x00	; 0
   12a9e:	2d ed       	ldi	r18, 0xDD	; 221
   12aa0:	30 e0       	ldi	r19, 0x00	; 0
   12aa2:	4f ee       	ldi	r20, 0xEF	; 239
   12aa4:	50 e0       	ldi	r21, 0x00	; 0
   12aa6:	64 ec       	ldi	r22, 0xC4	; 196
   12aa8:	70 e0       	ldi	r23, 0x00	; 0
   12aaa:	89 ee       	ldi	r24, 0xE9	; 233
   12aac:	90 e0       	ldi	r25, 0x00	; 0
   12aae:	0e 94 6b 6f 	call	0xded6	; 0xded6 <ILI9486_fillTriangle>
   12ab2:	0f 2e       	mov	r0, r31
   12ab4:	f4 ec       	ldi	r31, 0xC4	; 196
   12ab6:	ef 2e       	mov	r14, r31
   12ab8:	f1 2c       	mov	r15, r1
   12aba:	f0 2d       	mov	r31, r0
   12abc:	05 ef       	ldi	r16, 0xF5	; 245
   12abe:	10 e0       	ldi	r17, 0x00	; 0
   12ac0:	2d ec       	ldi	r18, 0xCD	; 205
   12ac2:	30 e0       	ldi	r19, 0x00	; 0
   12ac4:	4f ee       	ldi	r20, 0xEF	; 239
   12ac6:	50 e0       	ldi	r21, 0x00	; 0
   12ac8:	6d ed       	ldi	r22, 0xDD	; 221
   12aca:	70 e0       	ldi	r23, 0x00	; 0
   12acc:	8f ee       	ldi	r24, 0xEF	; 239
   12ace:	90 e0       	ldi	r25, 0x00	; 0
   12ad0:	0e 94 6b 6f 	call	0xded6	; 0xded6 <ILI9486_fillTriangle>
   12ad4:	11 c1       	rjmp	.+546    	; 0x12cf8 <DrawWindDirect+0x2fe>
   12ad6:	68 e5       	ldi	r22, 0x58	; 88
   12ad8:	73 e0       	ldi	r23, 0x03	; 3
   12ada:	8f e7       	ldi	r24, 0x7F	; 127
   12adc:	94 e0       	ldi	r25, 0x04	; 4
   12ade:	0e 94 17 9f 	call	0x13e2e	; 0x13e2e <strcmp>
   12ae2:	89 2b       	or	r24, r25
   12ae4:	39 f5       	brne	.+78     	; 0x12b34 <DrawWindDirect+0x13a>
   12ae6:	0f 2e       	mov	r0, r31
   12ae8:	f0 ee       	ldi	r31, 0xE0	; 224
   12aea:	cf 2e       	mov	r12, r31
   12aec:	ff e1       	ldi	r31, 0x1F	; 31
   12aee:	df 2e       	mov	r13, r31
   12af0:	f0 2d       	mov	r31, r0
   12af2:	0f 2e       	mov	r0, r31
   12af4:	f9 e9       	ldi	r31, 0x99	; 153
   12af6:	ef 2e       	mov	r14, r31
   12af8:	f1 2c       	mov	r15, r1
   12afa:	f0 2d       	mov	r31, r0
   12afc:	03 e1       	ldi	r16, 0x13	; 19
   12afe:	11 e0       	ldi	r17, 0x01	; 1
   12b00:	2f e9       	ldi	r18, 0x9F	; 159
   12b02:	30 e0       	ldi	r19, 0x00	; 0
   12b04:	4c e1       	ldi	r20, 0x1C	; 28
   12b06:	51 e0       	ldi	r21, 0x01	; 1
   12b08:	6f e9       	ldi	r22, 0x9F	; 159
   12b0a:	70 e0       	ldi	r23, 0x00	; 0
   12b0c:	8c e2       	ldi	r24, 0x2C	; 44
   12b0e:	91 e0       	ldi	r25, 0x01	; 1
   12b10:	0e 94 6b 6f 	call	0xded6	; 0xded6 <ILI9486_fillTriangle>
   12b14:	0f 2e       	mov	r0, r31
   12b16:	f5 ea       	ldi	r31, 0xA5	; 165
   12b18:	ef 2e       	mov	r14, r31
   12b1a:	f1 2c       	mov	r15, r1
   12b1c:	f0 2d       	mov	r31, r0
   12b1e:	2f e9       	ldi	r18, 0x9F	; 159
   12b20:	30 e0       	ldi	r19, 0x00	; 0
   12b22:	4c e1       	ldi	r20, 0x1C	; 28
   12b24:	51 e0       	ldi	r21, 0x01	; 1
   12b26:	6f e9       	ldi	r22, 0x9F	; 159
   12b28:	70 e0       	ldi	r23, 0x00	; 0
   12b2a:	8c e2       	ldi	r24, 0x2C	; 44
   12b2c:	91 e0       	ldi	r25, 0x01	; 1
   12b2e:	0e 94 6b 6f 	call	0xded6	; 0xded6 <ILI9486_fillTriangle>
   12b32:	e2 c0       	rjmp	.+452    	; 0x12cf8 <DrawWindDirect+0x2fe>
   12b34:	6c e5       	ldi	r22, 0x5C	; 92
   12b36:	73 e0       	ldi	r23, 0x03	; 3
   12b38:	8f e7       	ldi	r24, 0x7F	; 127
   12b3a:	94 e0       	ldi	r25, 0x04	; 4
   12b3c:	0e 94 17 9f 	call	0x13e2e	; 0x13e2e <strcmp>
   12b40:	89 2b       	or	r24, r25
   12b42:	39 f5       	brne	.+78     	; 0x12b92 <DrawWindDirect+0x198>
   12b44:	0f 2e       	mov	r0, r31
   12b46:	f0 ee       	ldi	r31, 0xE0	; 224
   12b48:	cf 2e       	mov	r12, r31
   12b4a:	ff e1       	ldi	r31, 0x1F	; 31
   12b4c:	df 2e       	mov	r13, r31
   12b4e:	f0 2d       	mov	r31, r0
   12b50:	0f 2e       	mov	r0, r31
   12b52:	f9 e9       	ldi	r31, 0x99	; 153
   12b54:	ef 2e       	mov	r14, r31
   12b56:	f1 2c       	mov	r15, r1
   12b58:	f0 2d       	mov	r31, r0
   12b5a:	0c ec       	ldi	r16, 0xCC	; 204
   12b5c:	10 e0       	ldi	r17, 0x00	; 0
   12b5e:	2f e9       	ldi	r18, 0x9F	; 159
   12b60:	30 e0       	ldi	r19, 0x00	; 0
   12b62:	43 ec       	ldi	r20, 0xC3	; 195
   12b64:	50 e0       	ldi	r21, 0x00	; 0
   12b66:	6f e9       	ldi	r22, 0x9F	; 159
   12b68:	70 e0       	ldi	r23, 0x00	; 0
   12b6a:	83 eb       	ldi	r24, 0xB3	; 179
   12b6c:	90 e0       	ldi	r25, 0x00	; 0
   12b6e:	0e 94 6b 6f 	call	0xded6	; 0xded6 <ILI9486_fillTriangle>
   12b72:	0f 2e       	mov	r0, r31
   12b74:	f5 ea       	ldi	r31, 0xA5	; 165
   12b76:	ef 2e       	mov	r14, r31
   12b78:	f1 2c       	mov	r15, r1
   12b7a:	f0 2d       	mov	r31, r0
   12b7c:	2f e9       	ldi	r18, 0x9F	; 159
   12b7e:	30 e0       	ldi	r19, 0x00	; 0
   12b80:	43 ec       	ldi	r20, 0xC3	; 195
   12b82:	50 e0       	ldi	r21, 0x00	; 0
   12b84:	6f e9       	ldi	r22, 0x9F	; 159
   12b86:	70 e0       	ldi	r23, 0x00	; 0
   12b88:	83 eb       	ldi	r24, 0xB3	; 179
   12b8a:	90 e0       	ldi	r25, 0x00	; 0
   12b8c:	0e 94 6b 6f 	call	0xded6	; 0xded6 <ILI9486_fillTriangle>
   12b90:	b3 c0       	rjmp	.+358    	; 0x12cf8 <DrawWindDirect+0x2fe>
   12b92:	66 e5       	ldi	r22, 0x56	; 86
   12b94:	73 e0       	ldi	r23, 0x03	; 3
   12b96:	8f e7       	ldi	r24, 0x7F	; 127
   12b98:	94 e0       	ldi	r25, 0x04	; 4
   12b9a:	0e 94 17 9f 	call	0x13e2e	; 0x13e2e <strcmp>
   12b9e:	89 2b       	or	r24, r25
   12ba0:	09 f5       	brne	.+66     	; 0x12be4 <DrawWindDirect+0x1ea>
   12ba2:	0f 2e       	mov	r0, r31
   12ba4:	f0 ee       	ldi	r31, 0xE0	; 224
   12ba6:	cf 2e       	mov	r12, r31
   12ba8:	ff e1       	ldi	r31, 0x1F	; 31
   12baa:	df 2e       	mov	r13, r31
   12bac:	f0 2d       	mov	r31, r0
   12bae:	68 94       	set
   12bb0:	ee 24       	eor	r14, r14
   12bb2:	e7 f8       	bld	r14, 7
   12bb4:	f1 2c       	mov	r15, r1
   12bb6:	0e e0       	ldi	r16, 0x0E	; 14
   12bb8:	11 e0       	ldi	r17, 0x01	; 1
   12bba:	22 e8       	ldi	r18, 0x82	; 130
   12bbc:	30 e0       	ldi	r19, 0x00	; 0
   12bbe:	43 e0       	ldi	r20, 0x03	; 3
   12bc0:	51 e0       	ldi	r21, 0x01	; 1
   12bc2:	65 e7       	ldi	r22, 0x75	; 117
   12bc4:	70 e0       	ldi	r23, 0x00	; 0
   12bc6:	89 e1       	ldi	r24, 0x19	; 25
   12bc8:	91 e0       	ldi	r25, 0x01	; 1
   12bca:	0e 94 6b 6f 	call	0xded6	; 0xded6 <ILI9486_fillTriangle>
   12bce:	2b e8       	ldi	r18, 0x8B	; 139
   12bd0:	30 e0       	ldi	r19, 0x00	; 0
   12bd2:	4c e0       	ldi	r20, 0x0C	; 12
   12bd4:	51 e0       	ldi	r21, 0x01	; 1
   12bd6:	65 e7       	ldi	r22, 0x75	; 117
   12bd8:	70 e0       	ldi	r23, 0x00	; 0
   12bda:	89 e1       	ldi	r24, 0x19	; 25
   12bdc:	91 e0       	ldi	r25, 0x01	; 1
   12bde:	0e 94 6b 6f 	call	0xded6	; 0xded6 <ILI9486_fillTriangle>
   12be2:	8a c0       	rjmp	.+276    	; 0x12cf8 <DrawWindDirect+0x2fe>
   12be4:	6a e5       	ldi	r22, 0x5A	; 90
   12be6:	73 e0       	ldi	r23, 0x03	; 3
   12be8:	8f e7       	ldi	r24, 0x7F	; 127
   12bea:	94 e0       	ldi	r25, 0x04	; 4
   12bec:	0e 94 17 9f 	call	0x13e2e	; 0x13e2e <strcmp>
   12bf0:	89 2b       	or	r24, r25
   12bf2:	41 f5       	brne	.+80     	; 0x12c44 <DrawWindDirect+0x24a>
   12bf4:	0f 2e       	mov	r0, r31
   12bf6:	f0 ee       	ldi	r31, 0xE0	; 224
   12bf8:	cf 2e       	mov	r12, r31
   12bfa:	ff e1       	ldi	r31, 0x1F	; 31
   12bfc:	df 2e       	mov	r13, r31
   12bfe:	f0 2d       	mov	r31, r0
   12c00:	68 94       	set
   12c02:	ee 24       	eor	r14, r14
   12c04:	e7 f8       	bld	r14, 7
   12c06:	f1 2c       	mov	r15, r1
   12c08:	00 ed       	ldi	r16, 0xD0	; 208
   12c0a:	10 e0       	ldi	r17, 0x00	; 0
   12c0c:	2b e8       	ldi	r18, 0x8B	; 139
   12c0e:	30 e0       	ldi	r19, 0x00	; 0
   12c10:	42 ed       	ldi	r20, 0xD2	; 210
   12c12:	50 e0       	ldi	r21, 0x00	; 0
   12c14:	65 e7       	ldi	r22, 0x75	; 117
   12c16:	70 e0       	ldi	r23, 0x00	; 0
   12c18:	85 ec       	ldi	r24, 0xC5	; 197
   12c1a:	90 e0       	ldi	r25, 0x00	; 0
   12c1c:	0e 94 6b 6f 	call	0xded6	; 0xded6 <ILI9486_fillTriangle>
   12c20:	0f 2e       	mov	r0, r31
   12c22:	f2 e8       	ldi	r31, 0x82	; 130
   12c24:	ef 2e       	mov	r14, r31
   12c26:	f1 2c       	mov	r15, r1
   12c28:	f0 2d       	mov	r31, r0
   12c2a:	0b ed       	ldi	r16, 0xDB	; 219
   12c2c:	10 e0       	ldi	r17, 0x00	; 0
   12c2e:	20 e8       	ldi	r18, 0x80	; 128
   12c30:	30 e0       	ldi	r19, 0x00	; 0
   12c32:	40 ed       	ldi	r20, 0xD0	; 208
   12c34:	50 e0       	ldi	r21, 0x00	; 0
   12c36:	65 e7       	ldi	r22, 0x75	; 117
   12c38:	70 e0       	ldi	r23, 0x00	; 0
   12c3a:	85 ec       	ldi	r24, 0xC5	; 197
   12c3c:	90 e0       	ldi	r25, 0x00	; 0
   12c3e:	0e 94 6b 6f 	call	0xded6	; 0xded6 <ILI9486_fillTriangle>
   12c42:	5a c0       	rjmp	.+180    	; 0x12cf8 <DrawWindDirect+0x2fe>
   12c44:	6e e5       	ldi	r22, 0x5E	; 94
   12c46:	73 e0       	ldi	r23, 0x03	; 3
   12c48:	8f e7       	ldi	r24, 0x7F	; 127
   12c4a:	94 e0       	ldi	r25, 0x04	; 4
   12c4c:	0e 94 17 9f 	call	0x13e2e	; 0x13e2e <strcmp>
   12c50:	89 2b       	or	r24, r25
   12c52:	49 f5       	brne	.+82     	; 0x12ca6 <DrawWindDirect+0x2ac>
   12c54:	0f 2e       	mov	r0, r31
   12c56:	f0 ee       	ldi	r31, 0xE0	; 224
   12c58:	cf 2e       	mov	r12, r31
   12c5a:	ff e1       	ldi	r31, 0x1F	; 31
   12c5c:	df 2e       	mov	r13, r31
   12c5e:	f0 2d       	mov	r31, r0
   12c60:	0f 2e       	mov	r0, r31
   12c62:	fe eb       	ldi	r31, 0xBE	; 190
   12c64:	ef 2e       	mov	r14, r31
   12c66:	f1 2c       	mov	r15, r1
   12c68:	f0 2d       	mov	r31, r0
   12c6a:	0e e0       	ldi	r16, 0x0E	; 14
   12c6c:	11 e0       	ldi	r17, 0x01	; 1
   12c6e:	2c eb       	ldi	r18, 0xBC	; 188
   12c70:	30 e0       	ldi	r19, 0x00	; 0
   12c72:	43 e0       	ldi	r20, 0x03	; 3
   12c74:	51 e0       	ldi	r21, 0x01	; 1
   12c76:	69 ec       	ldi	r22, 0xC9	; 201
   12c78:	70 e0       	ldi	r23, 0x00	; 0
   12c7a:	89 e1       	ldi	r24, 0x19	; 25
   12c7c:	91 e0       	ldi	r25, 0x01	; 1
   12c7e:	0e 94 6b 6f 	call	0xded6	; 0xded6 <ILI9486_fillTriangle>
   12c82:	0f 2e       	mov	r0, r31
   12c84:	f3 eb       	ldi	r31, 0xB3	; 179
   12c86:	ef 2e       	mov	r14, r31
   12c88:	f1 2c       	mov	r15, r1
   12c8a:	f0 2d       	mov	r31, r0
   12c8c:	0c e0       	ldi	r16, 0x0C	; 12
   12c8e:	11 e0       	ldi	r17, 0x01	; 1
   12c90:	2e eb       	ldi	r18, 0xBE	; 190
   12c92:	30 e0       	ldi	r19, 0x00	; 0
   12c94:	4e e0       	ldi	r20, 0x0E	; 14
   12c96:	51 e0       	ldi	r21, 0x01	; 1
   12c98:	69 ec       	ldi	r22, 0xC9	; 201
   12c9a:	70 e0       	ldi	r23, 0x00	; 0
   12c9c:	89 e1       	ldi	r24, 0x19	; 25
   12c9e:	91 e0       	ldi	r25, 0x01	; 1
   12ca0:	0e 94 6b 6f 	call	0xded6	; 0xded6 <ILI9486_fillTriangle>
   12ca4:	29 c0       	rjmp	.+82     	; 0x12cf8 <DrawWindDirect+0x2fe>
   12ca6:	62 e6       	ldi	r22, 0x62	; 98
   12ca8:	73 e0       	ldi	r23, 0x03	; 3
   12caa:	8f e7       	ldi	r24, 0x7F	; 127
   12cac:	94 e0       	ldi	r25, 0x04	; 4
   12cae:	0e 94 17 9f 	call	0x13e2e	; 0x13e2e <strcmp>
   12cb2:	89 2b       	or	r24, r25
   12cb4:	09 f5       	brne	.+66     	; 0x12cf8 <DrawWindDirect+0x2fe>
   12cb6:	0f 2e       	mov	r0, r31
   12cb8:	f0 ee       	ldi	r31, 0xE0	; 224
   12cba:	cf 2e       	mov	r12, r31
   12cbc:	ff e1       	ldi	r31, 0x1F	; 31
   12cbe:	df 2e       	mov	r13, r31
   12cc0:	f0 2d       	mov	r31, r0
   12cc2:	0f 2e       	mov	r0, r31
   12cc4:	fe eb       	ldi	r31, 0xBE	; 190
   12cc6:	ef 2e       	mov	r14, r31
   12cc8:	f1 2c       	mov	r15, r1
   12cca:	f0 2d       	mov	r31, r0
   12ccc:	00 ed       	ldi	r16, 0xD0	; 208
   12cce:	10 e0       	ldi	r17, 0x00	; 0
   12cd0:	2c eb       	ldi	r18, 0xBC	; 188
   12cd2:	30 e0       	ldi	r19, 0x00	; 0
   12cd4:	4b ed       	ldi	r20, 0xDB	; 219
   12cd6:	50 e0       	ldi	r21, 0x00	; 0
   12cd8:	69 ec       	ldi	r22, 0xC9	; 201
   12cda:	70 e0       	ldi	r23, 0x00	; 0
   12cdc:	85 ec       	ldi	r24, 0xC5	; 197
   12cde:	90 e0       	ldi	r25, 0x00	; 0
   12ce0:	0e 94 6b 6f 	call	0xded6	; 0xded6 <ILI9486_fillTriangle>
   12ce4:	23 eb       	ldi	r18, 0xB3	; 179
   12ce6:	30 e0       	ldi	r19, 0x00	; 0
   12ce8:	42 ed       	ldi	r20, 0xD2	; 210
   12cea:	50 e0       	ldi	r21, 0x00	; 0
   12cec:	69 ec       	ldi	r22, 0xC9	; 201
   12cee:	70 e0       	ldi	r23, 0x00	; 0
   12cf0:	85 ec       	ldi	r24, 0xC5	; 197
   12cf2:	90 e0       	ldi	r25, 0x00	; 0
   12cf4:	0e 94 6b 6f 	call	0xded6	; 0xded6 <ILI9486_fillTriangle>
   12cf8:	1f 91       	pop	r17
   12cfa:	0f 91       	pop	r16
   12cfc:	ff 90       	pop	r15
   12cfe:	ef 90       	pop	r14
   12d00:	df 90       	pop	r13
   12d02:	cf 90       	pop	r12
   12d04:	08 95       	ret

00012d06 <Print_Home_Page_Out>:
   12d06:	0f 93       	push	r16
   12d08:	1f 93       	push	r17
   12d0a:	cf 93       	push	r28
   12d0c:	df 93       	push	r29
   12d0e:	cd b7       	in	r28, 0x3d	; 61
   12d10:	de b7       	in	r29, 0x3e	; 62
   12d12:	2a 97       	sbiw	r28, 0x0a	; 10
   12d14:	0f b6       	in	r0, 0x3f	; 63
   12d16:	f8 94       	cli
   12d18:	de bf       	out	0x3e, r29	; 62
   12d1a:	0f be       	out	0x3f, r0	; 63
   12d1c:	cd bf       	out	0x3d, r28	; 61
   12d1e:	60 e0       	ldi	r22, 0x00	; 0
   12d20:	70 e0       	ldi	r23, 0x00	; 0
   12d22:	8f e9       	ldi	r24, 0x9F	; 159
   12d24:	9d e3       	ldi	r25, 0x3D	; 61
   12d26:	0e 94 00 71 	call	0xe200	; 0xe200 <ILI9486_SetTextColor>
   12d2a:	89 e0       	ldi	r24, 0x09	; 9
   12d2c:	80 93 76 04 	sts	0x0476, r24	; 0x800476 <wind_speed_integer>
   12d30:	9c e2       	ldi	r25, 0x2C	; 44
   12d32:	90 93 75 04 	sts	0x0475, r25	; 0x800475 <wind_speed_fraction>
   12d36:	1f 92       	push	r1
   12d38:	8f 93       	push	r24
   12d3a:	86 e6       	ldi	r24, 0x66	; 102
   12d3c:	93 e0       	ldi	r25, 0x03	; 3
   12d3e:	9f 93       	push	r25
   12d40:	8f 93       	push	r24
   12d42:	8e 01       	movw	r16, r28
   12d44:	0f 5f       	subi	r16, 0xFF	; 255
   12d46:	1f 4f       	sbci	r17, 0xFF	; 255
   12d48:	1f 93       	push	r17
   12d4a:	0f 93       	push	r16
   12d4c:	0e 94 20 9f 	call	0x13e40	; 0x13e40 <sprintf>
   12d50:	68 e1       	ldi	r22, 0x18	; 24
   12d52:	71 e0       	ldi	r23, 0x01	; 1
   12d54:	8b ea       	ldi	r24, 0xAB	; 171
   12d56:	90 e0       	ldi	r25, 0x00	; 0
   12d58:	0e 94 52 75 	call	0xeaa4	; 0xeaa4 <ILI9486_SetCursor>
   12d5c:	60 e0       	ldi	r22, 0x00	; 0
   12d5e:	c8 01       	movw	r24, r16
   12d60:	0e 94 cc 75 	call	0xeb98	; 0xeb98 <ILI9486_Print_String18x32>
   12d64:	68 e1       	ldi	r22, 0x18	; 24
   12d66:	71 e0       	ldi	r23, 0x01	; 1
   12d68:	8d ec       	ldi	r24, 0xCD	; 205
   12d6a:	90 e0       	ldi	r25, 0x00	; 0
   12d6c:	0e 94 52 75 	call	0xeaa4	; 0xeaa4 <ILI9486_SetCursor>
   12d70:	60 e0       	ldi	r22, 0x00	; 0
   12d72:	87 e9       	ldi	r24, 0x97	; 151
   12d74:	92 e0       	ldi	r25, 0x02	; 2
   12d76:	0e 94 cc 75 	call	0xeb98	; 0xeb98 <ILI9486_Print_String18x32>
   12d7a:	68 e1       	ldi	r22, 0x18	; 24
   12d7c:	71 e0       	ldi	r23, 0x01	; 1
   12d7e:	8e ed       	ldi	r24, 0xDE	; 222
   12d80:	90 e0       	ldi	r25, 0x00	; 0
   12d82:	0e 94 52 75 	call	0xeaa4	; 0xeaa4 <ILI9486_SetCursor>
   12d86:	f8 01       	movw	r30, r16
   12d88:	01 90       	ld	r0, Z+
   12d8a:	00 20       	and	r0, r0
   12d8c:	e9 f7       	brne	.-6      	; 0x12d88 <Print_Home_Page_Out+0x82>
   12d8e:	31 97       	sbiw	r30, 0x01	; 1
   12d90:	af 01       	movw	r20, r30
   12d92:	40 1b       	sub	r20, r16
   12d94:	51 0b       	sbc	r21, r17
   12d96:	60 e0       	ldi	r22, 0x00	; 0
   12d98:	70 e0       	ldi	r23, 0x00	; 0
   12d9a:	c8 01       	movw	r24, r16
   12d9c:	0e 94 10 9f 	call	0x13e20	; 0x13e20 <memset>
   12da0:	80 91 75 04 	lds	r24, 0x0475	; 0x800475 <wind_speed_fraction>
   12da4:	1f 92       	push	r1
   12da6:	8f 93       	push	r24
   12da8:	87 e6       	ldi	r24, 0x67	; 103
   12daa:	93 e0       	ldi	r25, 0x03	; 3
   12dac:	9f 93       	push	r25
   12dae:	8f 93       	push	r24
   12db0:	1f 93       	push	r17
   12db2:	0f 93       	push	r16
   12db4:	0e 94 20 9f 	call	0x13e40	; 0x13e40 <sprintf>
   12db8:	60 e0       	ldi	r22, 0x00	; 0
   12dba:	c8 01       	movw	r24, r16
   12dbc:	0e 94 cc 75 	call	0xeb98	; 0xeb98 <ILI9486_Print_String18x32>
   12dc0:	68 e1       	ldi	r22, 0x18	; 24
   12dc2:	71 e0       	ldi	r23, 0x01	; 1
   12dc4:	82 e0       	ldi	r24, 0x02	; 2
   12dc6:	91 e0       	ldi	r25, 0x01	; 1
   12dc8:	0e 94 52 75 	call	0xeaa4	; 0xeaa4 <ILI9486_SetCursor>
   12dcc:	60 e0       	ldi	r22, 0x00	; 0
   12dce:	8a e6       	ldi	r24, 0x6A	; 106
   12dd0:	93 e0       	ldi	r25, 0x03	; 3
   12dd2:	0e 94 cc 75 	call	0xeb98	; 0xeb98 <ILI9486_Print_String18x32>
   12dd6:	68 e1       	ldi	r22, 0x18	; 24
   12dd8:	71 e0       	ldi	r23, 0x01	; 1
   12dda:	84 e2       	ldi	r24, 0x24	; 36
   12ddc:	91 e0       	ldi	r25, 0x01	; 1
   12dde:	0e 94 52 75 	call	0xeaa4	; 0xeaa4 <ILI9486_SetCursor>
   12de2:	60 e0       	ldi	r22, 0x00	; 0
   12de4:	87 e4       	ldi	r24, 0x47	; 71
   12de6:	92 e0       	ldi	r25, 0x02	; 2
   12de8:	0e 94 cc 75 	call	0xeb98	; 0xeb98 <ILI9486_Print_String18x32>
   12dec:	f8 01       	movw	r30, r16
   12dee:	01 90       	ld	r0, Z+
   12df0:	00 20       	and	r0, r0
   12df2:	e9 f7       	brne	.-6      	; 0x12dee <Print_Home_Page_Out+0xe8>
   12df4:	31 97       	sbiw	r30, 0x01	; 1
   12df6:	af 01       	movw	r20, r30
   12df8:	40 1b       	sub	r20, r16
   12dfa:	51 0b       	sbc	r21, r17
   12dfc:	60 e0       	ldi	r22, 0x00	; 0
   12dfe:	70 e0       	ldi	r23, 0x00	; 0
   12e00:	c8 01       	movw	r24, r16
   12e02:	0e 94 10 9f 	call	0x13e20	; 0x13e20 <memset>
   12e06:	60 e0       	ldi	r22, 0x00	; 0
   12e08:	70 e0       	ldi	r23, 0x00	; 0
   12e0a:	80 ee       	ldi	r24, 0xE0	; 224
   12e0c:	9f ef       	ldi	r25, 0xFF	; 255
   12e0e:	0e 94 00 71 	call	0xe200	; 0xe200 <ILI9486_SetTextColor>
   12e12:	80 91 6e 04 	lds	r24, 0x046E	; 0x80046e <street_temp_sign>
   12e16:	0f b6       	in	r0, 0x3f	; 63
   12e18:	f8 94       	cli
   12e1a:	de bf       	out	0x3e, r29	; 62
   12e1c:	0f be       	out	0x3f, r0	; 63
   12e1e:	cd bf       	out	0x3d, r28	; 61
   12e20:	88 23       	and	r24, r24
   12e22:	09 f4       	brne	.+2      	; 0x12e26 <Print_Home_Page_Out+0x120>
   12e24:	92 c0       	rjmp	.+292    	; 0x12f4a <Print_Home_Page_Out+0x244>
   12e26:	6a ef       	ldi	r22, 0xFA	; 250
   12e28:	70 e0       	ldi	r23, 0x00	; 0
   12e2a:	8b e8       	ldi	r24, 0x8B	; 139
   12e2c:	91 e0       	ldi	r25, 0x01	; 1
   12e2e:	0e 94 52 75 	call	0xeaa4	; 0xeaa4 <ILI9486_SetCursor>
   12e32:	60 e0       	ldi	r22, 0x00	; 0
   12e34:	87 e9       	ldi	r24, 0x97	; 151
   12e36:	92 e0       	ldi	r25, 0x02	; 2
   12e38:	0e 94 1f 77 	call	0xee3e	; 0xee3e <ILI9486_Print_String32x48>
   12e3c:	80 91 7d 04 	lds	r24, 0x047D	; 0x80047d <street_temp_integer>
   12e40:	8a 30       	cpi	r24, 0x0A	; 10
   12e42:	28 f5       	brcc	.+74     	; 0x12e8e <Print_Home_Page_Out+0x188>
   12e44:	1f 92       	push	r1
   12e46:	8f 93       	push	r24
   12e48:	86 e6       	ldi	r24, 0x66	; 102
   12e4a:	93 e0       	ldi	r25, 0x03	; 3
   12e4c:	9f 93       	push	r25
   12e4e:	8f 93       	push	r24
   12e50:	1f 93       	push	r17
   12e52:	0f 93       	push	r16
   12e54:	f5 d7       	rcall	.+4074   	; 0x13e40 <sprintf>
   12e56:	6a ef       	ldi	r22, 0xFA	; 250
   12e58:	70 e0       	ldi	r23, 0x00	; 0
   12e5a:	8e e4       	ldi	r24, 0x4E	; 78
   12e5c:	91 e0       	ldi	r25, 0x01	; 1
   12e5e:	0e 94 52 75 	call	0xeaa4	; 0xeaa4 <ILI9486_SetCursor>
   12e62:	60 e0       	ldi	r22, 0x00	; 0
   12e64:	c8 01       	movw	r24, r16
   12e66:	0e 94 1f 77 	call	0xee3e	; 0xee3e <ILI9486_Print_String32x48>
   12e6a:	6f ef       	ldi	r22, 0xFF	; 255
   12e6c:	70 e0       	ldi	r23, 0x00	; 0
   12e6e:	8a e5       	ldi	r24, 0x5A	; 90
   12e70:	91 e0       	ldi	r25, 0x01	; 1
   12e72:	0e 94 52 75 	call	0xeaa4	; 0xeaa4 <ILI9486_SetCursor>
   12e76:	60 e0       	ldi	r22, 0x00	; 0
   12e78:	8d e6       	ldi	r24, 0x6D	; 109
   12e7a:	93 e0       	ldi	r25, 0x03	; 3
   12e7c:	0e 94 cc 75 	call	0xeb98	; 0xeb98 <ILI9486_Print_String18x32>
   12e80:	0f 90       	pop	r0
   12e82:	0f 90       	pop	r0
   12e84:	0f 90       	pop	r0
   12e86:	0f 90       	pop	r0
   12e88:	0f 90       	pop	r0
   12e8a:	0f 90       	pop	r0
   12e8c:	27 c0       	rjmp	.+78     	; 0x12edc <Print_Home_Page_Out+0x1d6>
   12e8e:	1f 92       	push	r1
   12e90:	8f 93       	push	r24
   12e92:	87 e6       	ldi	r24, 0x67	; 103
   12e94:	93 e0       	ldi	r25, 0x03	; 3
   12e96:	9f 93       	push	r25
   12e98:	8f 93       	push	r24
   12e9a:	8e 01       	movw	r16, r28
   12e9c:	0f 5f       	subi	r16, 0xFF	; 255
   12e9e:	1f 4f       	sbci	r17, 0xFF	; 255
   12ea0:	1f 93       	push	r17
   12ea2:	0f 93       	push	r16
   12ea4:	cd d7       	rcall	.+3994   	; 0x13e40 <sprintf>
   12ea6:	6f ef       	ldi	r22, 0xFF	; 255
   12ea8:	70 e0       	ldi	r23, 0x00	; 0
   12eaa:	8d e3       	ldi	r24, 0x3D	; 61
   12eac:	91 e0       	ldi	r25, 0x01	; 1
   12eae:	0e 94 52 75 	call	0xeaa4	; 0xeaa4 <ILI9486_SetCursor>
   12eb2:	60 e0       	ldi	r22, 0x00	; 0
   12eb4:	8d e6       	ldi	r24, 0x6D	; 109
   12eb6:	93 e0       	ldi	r25, 0x03	; 3
   12eb8:	0e 94 cc 75 	call	0xeb98	; 0xeb98 <ILI9486_Print_String18x32>
   12ebc:	6a ef       	ldi	r22, 0xFA	; 250
   12ebe:	70 e0       	ldi	r23, 0x00	; 0
   12ec0:	8e e4       	ldi	r24, 0x4E	; 78
   12ec2:	91 e0       	ldi	r25, 0x01	; 1
   12ec4:	0e 94 52 75 	call	0xeaa4	; 0xeaa4 <ILI9486_SetCursor>
   12ec8:	60 e0       	ldi	r22, 0x00	; 0
   12eca:	c8 01       	movw	r24, r16
   12ecc:	0e 94 1f 77 	call	0xee3e	; 0xee3e <ILI9486_Print_String32x48>
   12ed0:	0f 90       	pop	r0
   12ed2:	0f 90       	pop	r0
   12ed4:	0f 90       	pop	r0
   12ed6:	0f 90       	pop	r0
   12ed8:	0f 90       	pop	r0
   12eda:	0f 90       	pop	r0
   12edc:	8e 01       	movw	r16, r28
   12ede:	0f 5f       	subi	r16, 0xFF	; 255
   12ee0:	1f 4f       	sbci	r17, 0xFF	; 255
   12ee2:	f8 01       	movw	r30, r16
   12ee4:	01 90       	ld	r0, Z+
   12ee6:	00 20       	and	r0, r0
   12ee8:	e9 f7       	brne	.-6      	; 0x12ee4 <Print_Home_Page_Out+0x1de>
   12eea:	31 97       	sbiw	r30, 0x01	; 1
   12eec:	af 01       	movw	r20, r30
   12eee:	40 1b       	sub	r20, r16
   12ef0:	51 0b       	sbc	r21, r17
   12ef2:	60 e0       	ldi	r22, 0x00	; 0
   12ef4:	70 e0       	ldi	r23, 0x00	; 0
   12ef6:	c8 01       	movw	r24, r16
   12ef8:	93 d7       	rcall	.+3878   	; 0x13e20 <memset>
   12efa:	80 91 6d 04 	lds	r24, 0x046D	; 0x80046d <street_temp_fraction>
   12efe:	1f 92       	push	r1
   12f00:	8f 93       	push	r24
   12f02:	87 e6       	ldi	r24, 0x67	; 103
   12f04:	93 e0       	ldi	r25, 0x03	; 3
   12f06:	9f 93       	push	r25
   12f08:	8f 93       	push	r24
   12f0a:	1f 93       	push	r17
   12f0c:	0f 93       	push	r16
   12f0e:	98 d7       	rcall	.+3888   	; 0x13e40 <sprintf>
   12f10:	6a ef       	ldi	r22, 0xFA	; 250
   12f12:	70 e0       	ldi	r23, 0x00	; 0
   12f14:	88 ea       	ldi	r24, 0xA8	; 168
   12f16:	91 e0       	ldi	r25, 0x01	; 1
   12f18:	0e 94 52 75 	call	0xeaa4	; 0xeaa4 <ILI9486_SetCursor>
   12f1c:	60 e0       	ldi	r22, 0x00	; 0
   12f1e:	c8 01       	movw	r24, r16
   12f20:	0e 94 1f 77 	call	0xee3e	; 0xee3e <ILI9486_Print_String32x48>
   12f24:	f8 01       	movw	r30, r16
   12f26:	01 90       	ld	r0, Z+
   12f28:	00 20       	and	r0, r0
   12f2a:	e9 f7       	brne	.-6      	; 0x12f26 <Print_Home_Page_Out+0x220>
   12f2c:	31 97       	sbiw	r30, 0x01	; 1
   12f2e:	af 01       	movw	r20, r30
   12f30:	40 1b       	sub	r20, r16
   12f32:	51 0b       	sbc	r21, r17
   12f34:	60 e0       	ldi	r22, 0x00	; 0
   12f36:	70 e0       	ldi	r23, 0x00	; 0
   12f38:	c8 01       	movw	r24, r16
   12f3a:	72 d7       	rcall	.+3812   	; 0x13e20 <memset>
   12f3c:	0f 90       	pop	r0
   12f3e:	0f 90       	pop	r0
   12f40:	0f 90       	pop	r0
   12f42:	0f 90       	pop	r0
   12f44:	0f 90       	pop	r0
   12f46:	0f 90       	pop	r0
   12f48:	7e c0       	rjmp	.+252    	; 0x13046 <Print_Home_Page_Out+0x340>
   12f4a:	6a ef       	ldi	r22, 0xFA	; 250
   12f4c:	70 e0       	ldi	r23, 0x00	; 0
   12f4e:	8b e8       	ldi	r24, 0x8B	; 139
   12f50:	91 e0       	ldi	r25, 0x01	; 1
   12f52:	0e 94 52 75 	call	0xeaa4	; 0xeaa4 <ILI9486_SetCursor>
   12f56:	60 e0       	ldi	r22, 0x00	; 0
   12f58:	87 e9       	ldi	r24, 0x97	; 151
   12f5a:	92 e0       	ldi	r25, 0x02	; 2
   12f5c:	0e 94 1f 77 	call	0xee3e	; 0xee3e <ILI9486_Print_String32x48>
   12f60:	80 91 7d 04 	lds	r24, 0x047D	; 0x80047d <street_temp_integer>
   12f64:	8a 30       	cpi	r24, 0x0A	; 10
   12f66:	e8 f4       	brcc	.+58     	; 0x12fa2 <Print_Home_Page_Out+0x29c>
   12f68:	1f 92       	push	r1
   12f6a:	8f 93       	push	r24
   12f6c:	86 e6       	ldi	r24, 0x66	; 102
   12f6e:	93 e0       	ldi	r25, 0x03	; 3
   12f70:	9f 93       	push	r25
   12f72:	8f 93       	push	r24
   12f74:	8e 01       	movw	r16, r28
   12f76:	0f 5f       	subi	r16, 0xFF	; 255
   12f78:	1f 4f       	sbci	r17, 0xFF	; 255
   12f7a:	1f 93       	push	r17
   12f7c:	0f 93       	push	r16
   12f7e:	60 d7       	rcall	.+3776   	; 0x13e40 <sprintf>
   12f80:	6a ef       	ldi	r22, 0xFA	; 250
   12f82:	70 e0       	ldi	r23, 0x00	; 0
   12f84:	8e e4       	ldi	r24, 0x4E	; 78
   12f86:	91 e0       	ldi	r25, 0x01	; 1
   12f88:	0e 94 52 75 	call	0xeaa4	; 0xeaa4 <ILI9486_SetCursor>
   12f8c:	60 e0       	ldi	r22, 0x00	; 0
   12f8e:	c8 01       	movw	r24, r16
   12f90:	0e 94 1f 77 	call	0xee3e	; 0xee3e <ILI9486_Print_String32x48>
   12f94:	0f 90       	pop	r0
   12f96:	0f 90       	pop	r0
   12f98:	0f 90       	pop	r0
   12f9a:	0f 90       	pop	r0
   12f9c:	0f 90       	pop	r0
   12f9e:	0f 90       	pop	r0
   12fa0:	1c c0       	rjmp	.+56     	; 0x12fda <Print_Home_Page_Out+0x2d4>
   12fa2:	1f 92       	push	r1
   12fa4:	8f 93       	push	r24
   12fa6:	87 e6       	ldi	r24, 0x67	; 103
   12fa8:	93 e0       	ldi	r25, 0x03	; 3
   12faa:	9f 93       	push	r25
   12fac:	8f 93       	push	r24
   12fae:	8e 01       	movw	r16, r28
   12fb0:	0f 5f       	subi	r16, 0xFF	; 255
   12fb2:	1f 4f       	sbci	r17, 0xFF	; 255
   12fb4:	1f 93       	push	r17
   12fb6:	0f 93       	push	r16
   12fb8:	43 d7       	rcall	.+3718   	; 0x13e40 <sprintf>
   12fba:	6a ef       	ldi	r22, 0xFA	; 250
   12fbc:	70 e0       	ldi	r23, 0x00	; 0
   12fbe:	8e e4       	ldi	r24, 0x4E	; 78
   12fc0:	91 e0       	ldi	r25, 0x01	; 1
   12fc2:	0e 94 52 75 	call	0xeaa4	; 0xeaa4 <ILI9486_SetCursor>
   12fc6:	60 e0       	ldi	r22, 0x00	; 0
   12fc8:	c8 01       	movw	r24, r16
   12fca:	0e 94 1f 77 	call	0xee3e	; 0xee3e <ILI9486_Print_String32x48>
   12fce:	0f 90       	pop	r0
   12fd0:	0f 90       	pop	r0
   12fd2:	0f 90       	pop	r0
   12fd4:	0f 90       	pop	r0
   12fd6:	0f 90       	pop	r0
   12fd8:	0f 90       	pop	r0
   12fda:	8e 01       	movw	r16, r28
   12fdc:	0f 5f       	subi	r16, 0xFF	; 255
   12fde:	1f 4f       	sbci	r17, 0xFF	; 255
   12fe0:	f8 01       	movw	r30, r16
   12fe2:	01 90       	ld	r0, Z+
   12fe4:	00 20       	and	r0, r0
   12fe6:	e9 f7       	brne	.-6      	; 0x12fe2 <Print_Home_Page_Out+0x2dc>
   12fe8:	31 97       	sbiw	r30, 0x01	; 1
   12fea:	af 01       	movw	r20, r30
   12fec:	40 1b       	sub	r20, r16
   12fee:	51 0b       	sbc	r21, r17
   12ff0:	60 e0       	ldi	r22, 0x00	; 0
   12ff2:	70 e0       	ldi	r23, 0x00	; 0
   12ff4:	c8 01       	movw	r24, r16
   12ff6:	14 d7       	rcall	.+3624   	; 0x13e20 <memset>
   12ff8:	80 91 6d 04 	lds	r24, 0x046D	; 0x80046d <street_temp_fraction>
   12ffc:	1f 92       	push	r1
   12ffe:	8f 93       	push	r24
   13000:	87 e6       	ldi	r24, 0x67	; 103
   13002:	93 e0       	ldi	r25, 0x03	; 3
   13004:	9f 93       	push	r25
   13006:	8f 93       	push	r24
   13008:	1f 93       	push	r17
   1300a:	0f 93       	push	r16
   1300c:	19 d7       	rcall	.+3634   	; 0x13e40 <sprintf>
   1300e:	6a ef       	ldi	r22, 0xFA	; 250
   13010:	70 e0       	ldi	r23, 0x00	; 0
   13012:	88 ea       	ldi	r24, 0xA8	; 168
   13014:	91 e0       	ldi	r25, 0x01	; 1
   13016:	0e 94 52 75 	call	0xeaa4	; 0xeaa4 <ILI9486_SetCursor>
   1301a:	60 e0       	ldi	r22, 0x00	; 0
   1301c:	c8 01       	movw	r24, r16
   1301e:	0e 94 1f 77 	call	0xee3e	; 0xee3e <ILI9486_Print_String32x48>
   13022:	f8 01       	movw	r30, r16
   13024:	01 90       	ld	r0, Z+
   13026:	00 20       	and	r0, r0
   13028:	e9 f7       	brne	.-6      	; 0x13024 <Print_Home_Page_Out+0x31e>
   1302a:	31 97       	sbiw	r30, 0x01	; 1
   1302c:	af 01       	movw	r20, r30
   1302e:	40 1b       	sub	r20, r16
   13030:	51 0b       	sbc	r21, r17
   13032:	60 e0       	ldi	r22, 0x00	; 0
   13034:	70 e0       	ldi	r23, 0x00	; 0
   13036:	c8 01       	movw	r24, r16
   13038:	f3 d6       	rcall	.+3558   	; 0x13e20 <memset>
   1303a:	0f 90       	pop	r0
   1303c:	0f 90       	pop	r0
   1303e:	0f 90       	pop	r0
   13040:	0f 90       	pop	r0
   13042:	0f 90       	pop	r0
   13044:	0f 90       	pop	r0
   13046:	6c e0       	ldi	r22, 0x0C	; 12
   13048:	71 e0       	ldi	r23, 0x01	; 1
   1304a:	89 ec       	ldi	r24, 0xC9	; 201
   1304c:	91 e0       	ldi	r25, 0x01	; 1
   1304e:	0e 94 52 75 	call	0xeaa4	; 0xeaa4 <ILI9486_SetCursor>
   13052:	60 e0       	ldi	r22, 0x00	; 0
   13054:	8f e6       	ldi	r24, 0x6F	; 111
   13056:	93 e0       	ldi	r25, 0x03	; 3
   13058:	0e 94 cc 75 	call	0xeb98	; 0xeb98 <ILI9486_Print_String18x32>
   1305c:	66 e9       	ldi	r22, 0x96	; 150
   1305e:	70 e0       	ldi	r23, 0x00	; 0
   13060:	89 e6       	ldi	r24, 0x69	; 105
   13062:	91 e0       	ldi	r25, 0x01	; 1
   13064:	0e 94 52 75 	call	0xeaa4	; 0xeaa4 <ILI9486_SetCursor>
   13068:	60 e0       	ldi	r22, 0x00	; 0
   1306a:	81 e7       	ldi	r24, 0x71	; 113
   1306c:	93 e0       	ldi	r25, 0x03	; 3
   1306e:	0e 94 1f 77 	call	0xee3e	; 0xee3e <ILI9486_Print_String32x48>
   13072:	65 ea       	ldi	r22, 0xA5	; 165
   13074:	70 e0       	ldi	r23, 0x00	; 0
   13076:	8d ea       	ldi	r24, 0xAD	; 173
   13078:	91 e0       	ldi	r25, 0x01	; 1
   1307a:	0e 94 52 75 	call	0xeaa4	; 0xeaa4 <ILI9486_SetCursor>
   1307e:	60 e0       	ldi	r22, 0x00	; 0
   13080:	84 e7       	ldi	r24, 0x74	; 116
   13082:	93 e0       	ldi	r25, 0x03	; 3
   13084:	0e 94 cc 75 	call	0xeb98	; 0xeb98 <ILI9486_Print_String18x32>
   13088:	b8 dc       	rcall	.-1680   	; 0x129fa <DrawWindDirect>
   1308a:	82 d9       	rcall	.-3324   	; 0x12390 <DrawSun>
   1308c:	2a 96       	adiw	r28, 0x0a	; 10
   1308e:	0f b6       	in	r0, 0x3f	; 63
   13090:	f8 94       	cli
   13092:	de bf       	out	0x3e, r29	; 62
   13094:	0f be       	out	0x3f, r0	; 63
   13096:	cd bf       	out	0x3d, r28	; 61
   13098:	df 91       	pop	r29
   1309a:	cf 91       	pop	r28
   1309c:	1f 91       	pop	r17
   1309e:	0f 91       	pop	r16
   130a0:	08 95       	ret

000130a2 <Convert_to_string_Clock>:
   130a2:	ee e8       	ldi	r30, 0x8E	; 142
   130a4:	f4 e0       	ldi	r31, 0x04	; 4
   130a6:	01 90       	ld	r0, Z+
   130a8:	00 20       	and	r0, r0
   130aa:	e9 f7       	brne	.-6      	; 0x130a6 <Convert_to_string_Clock+0x4>
   130ac:	af 01       	movw	r20, r30
   130ae:	4f 58       	subi	r20, 0x8F	; 143
   130b0:	54 40       	sbci	r21, 0x04	; 4
   130b2:	60 e0       	ldi	r22, 0x00	; 0
   130b4:	70 e0       	ldi	r23, 0x00	; 0
   130b6:	8e e8       	ldi	r24, 0x8E	; 142
   130b8:	94 e0       	ldi	r25, 0x04	; 4
   130ba:	b2 d6       	rcall	.+3428   	; 0x13e20 <memset>
   130bc:	ea e8       	ldi	r30, 0x8A	; 138
   130be:	f4 e0       	ldi	r31, 0x04	; 4
   130c0:	01 90       	ld	r0, Z+
   130c2:	00 20       	and	r0, r0
   130c4:	e9 f7       	brne	.-6      	; 0x130c0 <Convert_to_string_Clock+0x1e>
   130c6:	af 01       	movw	r20, r30
   130c8:	4b 58       	subi	r20, 0x8B	; 139
   130ca:	54 40       	sbci	r21, 0x04	; 4
   130cc:	60 e0       	ldi	r22, 0x00	; 0
   130ce:	70 e0       	ldi	r23, 0x00	; 0
   130d0:	8a e8       	ldi	r24, 0x8A	; 138
   130d2:	94 e0       	ldi	r25, 0x04	; 4
   130d4:	a5 d6       	rcall	.+3402   	; 0x13e20 <memset>
   130d6:	e6 e8       	ldi	r30, 0x86	; 134
   130d8:	f4 e0       	ldi	r31, 0x04	; 4
   130da:	01 90       	ld	r0, Z+
   130dc:	00 20       	and	r0, r0
   130de:	e9 f7       	brne	.-6      	; 0x130da <Convert_to_string_Clock+0x38>
   130e0:	31 97       	sbiw	r30, 0x01	; 1
   130e2:	af 01       	movw	r20, r30
   130e4:	46 58       	subi	r20, 0x86	; 134
   130e6:	54 40       	sbci	r21, 0x04	; 4
   130e8:	60 e0       	ldi	r22, 0x00	; 0
   130ea:	70 e0       	ldi	r23, 0x00	; 0
   130ec:	86 e8       	ldi	r24, 0x86	; 134
   130ee:	94 e0       	ldi	r25, 0x04	; 4
   130f0:	97 d6       	rcall	.+3374   	; 0x13e20 <memset>
   130f2:	ec e9       	ldi	r30, 0x9C	; 156
   130f4:	f4 e0       	ldi	r31, 0x04	; 4
   130f6:	01 90       	ld	r0, Z+
   130f8:	00 20       	and	r0, r0
   130fa:	e9 f7       	brne	.-6      	; 0x130f6 <Convert_to_string_Clock+0x54>
   130fc:	af 01       	movw	r20, r30
   130fe:	4d 59       	subi	r20, 0x9D	; 157
   13100:	54 40       	sbci	r21, 0x04	; 4
   13102:	60 e0       	ldi	r22, 0x00	; 0
   13104:	70 e0       	ldi	r23, 0x00	; 0
   13106:	8c e9       	ldi	r24, 0x9C	; 156
   13108:	94 e0       	ldi	r25, 0x04	; 4
   1310a:	8a d6       	rcall	.+3348   	; 0x13e20 <memset>
   1310c:	e4 ea       	ldi	r30, 0xA4	; 164
   1310e:	f4 e0       	ldi	r31, 0x04	; 4
   13110:	01 90       	ld	r0, Z+
   13112:	00 20       	and	r0, r0
   13114:	e9 f7       	brne	.-6      	; 0x13110 <Convert_to_string_Clock+0x6e>
   13116:	af 01       	movw	r20, r30
   13118:	45 5a       	subi	r20, 0xA5	; 165
   1311a:	54 40       	sbci	r21, 0x04	; 4
   1311c:	60 e0       	ldi	r22, 0x00	; 0
   1311e:	70 e0       	ldi	r23, 0x00	; 0
   13120:	84 ea       	ldi	r24, 0xA4	; 164
   13122:	94 e0       	ldi	r25, 0x04	; 4
   13124:	7d d6       	rcall	.+3322   	; 0x13e20 <memset>
   13126:	e2 e9       	ldi	r30, 0x92	; 146
   13128:	f4 e0       	ldi	r31, 0x04	; 4
   1312a:	01 90       	ld	r0, Z+
   1312c:	00 20       	and	r0, r0
   1312e:	e9 f7       	brne	.-6      	; 0x1312a <Convert_to_string_Clock+0x88>
   13130:	af 01       	movw	r20, r30
   13132:	43 59       	subi	r20, 0x93	; 147
   13134:	54 40       	sbci	r21, 0x04	; 4
   13136:	60 e0       	ldi	r22, 0x00	; 0
   13138:	70 e0       	ldi	r23, 0x00	; 0
   1313a:	82 e9       	ldi	r24, 0x92	; 146
   1313c:	94 e0       	ldi	r25, 0x04	; 4
   1313e:	70 d6       	rcall	.+3296   	; 0x13e20 <memset>
   13140:	e0 ea       	ldi	r30, 0xA0	; 160
   13142:	f4 e0       	ldi	r31, 0x04	; 4
   13144:	01 90       	ld	r0, Z+
   13146:	00 20       	and	r0, r0
   13148:	e9 f7       	brne	.-6      	; 0x13144 <Convert_to_string_Clock+0xa2>
   1314a:	af 01       	movw	r20, r30
   1314c:	41 5a       	subi	r20, 0xA1	; 161
   1314e:	54 40       	sbci	r21, 0x04	; 4
   13150:	60 e0       	ldi	r22, 0x00	; 0
   13152:	70 e0       	ldi	r23, 0x00	; 0
   13154:	80 ea       	ldi	r24, 0xA0	; 160
   13156:	94 e0       	ldi	r25, 0x04	; 4
   13158:	63 d6       	rcall	.+3270   	; 0x13e20 <memset>
   1315a:	80 91 65 04 	lds	r24, 0x0465	; 0x800465 <sec>
   1315e:	8a 30       	cpi	r24, 0x0A	; 10
   13160:	90 f4       	brcc	.+36     	; 0x13186 <Convert_to_string_Clock+0xe4>
   13162:	1f 92       	push	r1
   13164:	8f 93       	push	r24
   13166:	86 e7       	ldi	r24, 0x76	; 118
   13168:	93 e0       	ldi	r25, 0x03	; 3
   1316a:	9f 93       	push	r25
   1316c:	8f 93       	push	r24
   1316e:	8e e8       	ldi	r24, 0x8E	; 142
   13170:	94 e0       	ldi	r25, 0x04	; 4
   13172:	9f 93       	push	r25
   13174:	8f 93       	push	r24
   13176:	64 d6       	rcall	.+3272   	; 0x13e40 <sprintf>
   13178:	0f 90       	pop	r0
   1317a:	0f 90       	pop	r0
   1317c:	0f 90       	pop	r0
   1317e:	0f 90       	pop	r0
   13180:	0f 90       	pop	r0
   13182:	0f 90       	pop	r0
   13184:	11 c0       	rjmp	.+34     	; 0x131a8 <Convert_to_string_Clock+0x106>
   13186:	1f 92       	push	r1
   13188:	8f 93       	push	r24
   1318a:	87 e6       	ldi	r24, 0x67	; 103
   1318c:	93 e0       	ldi	r25, 0x03	; 3
   1318e:	9f 93       	push	r25
   13190:	8f 93       	push	r24
   13192:	8e e8       	ldi	r24, 0x8E	; 142
   13194:	94 e0       	ldi	r25, 0x04	; 4
   13196:	9f 93       	push	r25
   13198:	8f 93       	push	r24
   1319a:	52 d6       	rcall	.+3236   	; 0x13e40 <sprintf>
   1319c:	0f 90       	pop	r0
   1319e:	0f 90       	pop	r0
   131a0:	0f 90       	pop	r0
   131a2:	0f 90       	pop	r0
   131a4:	0f 90       	pop	r0
   131a6:	0f 90       	pop	r0
   131a8:	80 91 63 04 	lds	r24, 0x0463	; 0x800463 <min>
   131ac:	8a 30       	cpi	r24, 0x0A	; 10
   131ae:	90 f4       	brcc	.+36     	; 0x131d4 <Convert_to_string_Clock+0x132>
   131b0:	1f 92       	push	r1
   131b2:	8f 93       	push	r24
   131b4:	86 e7       	ldi	r24, 0x76	; 118
   131b6:	93 e0       	ldi	r25, 0x03	; 3
   131b8:	9f 93       	push	r25
   131ba:	8f 93       	push	r24
   131bc:	8a e8       	ldi	r24, 0x8A	; 138
   131be:	94 e0       	ldi	r25, 0x04	; 4
   131c0:	9f 93       	push	r25
   131c2:	8f 93       	push	r24
   131c4:	3d d6       	rcall	.+3194   	; 0x13e40 <sprintf>
   131c6:	0f 90       	pop	r0
   131c8:	0f 90       	pop	r0
   131ca:	0f 90       	pop	r0
   131cc:	0f 90       	pop	r0
   131ce:	0f 90       	pop	r0
   131d0:	0f 90       	pop	r0
   131d2:	11 c0       	rjmp	.+34     	; 0x131f6 <Convert_to_string_Clock+0x154>
   131d4:	1f 92       	push	r1
   131d6:	8f 93       	push	r24
   131d8:	87 e6       	ldi	r24, 0x67	; 103
   131da:	93 e0       	ldi	r25, 0x03	; 3
   131dc:	9f 93       	push	r25
   131de:	8f 93       	push	r24
   131e0:	8a e8       	ldi	r24, 0x8A	; 138
   131e2:	94 e0       	ldi	r25, 0x04	; 4
   131e4:	9f 93       	push	r25
   131e6:	8f 93       	push	r24
   131e8:	2b d6       	rcall	.+3158   	; 0x13e40 <sprintf>
   131ea:	0f 90       	pop	r0
   131ec:	0f 90       	pop	r0
   131ee:	0f 90       	pop	r0
   131f0:	0f 90       	pop	r0
   131f2:	0f 90       	pop	r0
   131f4:	0f 90       	pop	r0
   131f6:	80 91 5f 04 	lds	r24, 0x045F	; 0x80045f <hour>
   131fa:	8a 30       	cpi	r24, 0x0A	; 10
   131fc:	90 f4       	brcc	.+36     	; 0x13222 <Convert_to_string_Clock+0x180>
   131fe:	1f 92       	push	r1
   13200:	8f 93       	push	r24
   13202:	86 e7       	ldi	r24, 0x76	; 118
   13204:	93 e0       	ldi	r25, 0x03	; 3
   13206:	9f 93       	push	r25
   13208:	8f 93       	push	r24
   1320a:	86 e8       	ldi	r24, 0x86	; 134
   1320c:	94 e0       	ldi	r25, 0x04	; 4
   1320e:	9f 93       	push	r25
   13210:	8f 93       	push	r24
   13212:	16 d6       	rcall	.+3116   	; 0x13e40 <sprintf>
   13214:	0f 90       	pop	r0
   13216:	0f 90       	pop	r0
   13218:	0f 90       	pop	r0
   1321a:	0f 90       	pop	r0
   1321c:	0f 90       	pop	r0
   1321e:	0f 90       	pop	r0
   13220:	11 c0       	rjmp	.+34     	; 0x13244 <Convert_to_string_Clock+0x1a2>
   13222:	1f 92       	push	r1
   13224:	8f 93       	push	r24
   13226:	87 e6       	ldi	r24, 0x67	; 103
   13228:	93 e0       	ldi	r25, 0x03	; 3
   1322a:	9f 93       	push	r25
   1322c:	8f 93       	push	r24
   1322e:	86 e8       	ldi	r24, 0x86	; 134
   13230:	94 e0       	ldi	r25, 0x04	; 4
   13232:	9f 93       	push	r25
   13234:	8f 93       	push	r24
   13236:	04 d6       	rcall	.+3080   	; 0x13e40 <sprintf>
   13238:	0f 90       	pop	r0
   1323a:	0f 90       	pop	r0
   1323c:	0f 90       	pop	r0
   1323e:	0f 90       	pop	r0
   13240:	0f 90       	pop	r0
   13242:	0f 90       	pop	r0
   13244:	80 91 68 04 	lds	r24, 0x0468	; 0x800468 <date>
   13248:	8a 30       	cpi	r24, 0x0A	; 10
   1324a:	90 f4       	brcc	.+36     	; 0x13270 <Convert_to_string_Clock+0x1ce>
   1324c:	1f 92       	push	r1
   1324e:	8f 93       	push	r24
   13250:	86 e7       	ldi	r24, 0x76	; 118
   13252:	93 e0       	ldi	r25, 0x03	; 3
   13254:	9f 93       	push	r25
   13256:	8f 93       	push	r24
   13258:	8c e9       	ldi	r24, 0x9C	; 156
   1325a:	94 e0       	ldi	r25, 0x04	; 4
   1325c:	9f 93       	push	r25
   1325e:	8f 93       	push	r24
   13260:	ef d5       	rcall	.+3038   	; 0x13e40 <sprintf>
   13262:	0f 90       	pop	r0
   13264:	0f 90       	pop	r0
   13266:	0f 90       	pop	r0
   13268:	0f 90       	pop	r0
   1326a:	0f 90       	pop	r0
   1326c:	0f 90       	pop	r0
   1326e:	11 c0       	rjmp	.+34     	; 0x13292 <Convert_to_string_Clock+0x1f0>
   13270:	1f 92       	push	r1
   13272:	8f 93       	push	r24
   13274:	87 e6       	ldi	r24, 0x67	; 103
   13276:	93 e0       	ldi	r25, 0x03	; 3
   13278:	9f 93       	push	r25
   1327a:	8f 93       	push	r24
   1327c:	8c e9       	ldi	r24, 0x9C	; 156
   1327e:	94 e0       	ldi	r25, 0x04	; 4
   13280:	9f 93       	push	r25
   13282:	8f 93       	push	r24
   13284:	dd d5       	rcall	.+3002   	; 0x13e40 <sprintf>
   13286:	0f 90       	pop	r0
   13288:	0f 90       	pop	r0
   1328a:	0f 90       	pop	r0
   1328c:	0f 90       	pop	r0
   1328e:	0f 90       	pop	r0
   13290:	0f 90       	pop	r0
   13292:	80 91 64 04 	lds	r24, 0x0464	; 0x800464 <year>
   13296:	8a 30       	cpi	r24, 0x0A	; 10
   13298:	90 f4       	brcc	.+36     	; 0x132be <Convert_to_string_Clock+0x21c>
   1329a:	1f 92       	push	r1
   1329c:	8f 93       	push	r24
   1329e:	86 e7       	ldi	r24, 0x76	; 118
   132a0:	93 e0       	ldi	r25, 0x03	; 3
   132a2:	9f 93       	push	r25
   132a4:	8f 93       	push	r24
   132a6:	84 ea       	ldi	r24, 0xA4	; 164
   132a8:	94 e0       	ldi	r25, 0x04	; 4
   132aa:	9f 93       	push	r25
   132ac:	8f 93       	push	r24
   132ae:	c8 d5       	rcall	.+2960   	; 0x13e40 <sprintf>
   132b0:	0f 90       	pop	r0
   132b2:	0f 90       	pop	r0
   132b4:	0f 90       	pop	r0
   132b6:	0f 90       	pop	r0
   132b8:	0f 90       	pop	r0
   132ba:	0f 90       	pop	r0
   132bc:	11 c0       	rjmp	.+34     	; 0x132e0 <Convert_to_string_Clock+0x23e>
   132be:	1f 92       	push	r1
   132c0:	8f 93       	push	r24
   132c2:	87 e6       	ldi	r24, 0x67	; 103
   132c4:	93 e0       	ldi	r25, 0x03	; 3
   132c6:	9f 93       	push	r25
   132c8:	8f 93       	push	r24
   132ca:	84 ea       	ldi	r24, 0xA4	; 164
   132cc:	94 e0       	ldi	r25, 0x04	; 4
   132ce:	9f 93       	push	r25
   132d0:	8f 93       	push	r24
   132d2:	b6 d5       	rcall	.+2924   	; 0x13e40 <sprintf>
   132d4:	0f 90       	pop	r0
   132d6:	0f 90       	pop	r0
   132d8:	0f 90       	pop	r0
   132da:	0f 90       	pop	r0
   132dc:	0f 90       	pop	r0
   132de:	0f 90       	pop	r0
   132e0:	e0 91 66 04 	lds	r30, 0x0466	; 0x800466 <day>
   132e4:	8e 2f       	mov	r24, r30
   132e6:	90 e0       	ldi	r25, 0x00	; 0
   132e8:	fc 01       	movw	r30, r24
   132ea:	31 97       	sbiw	r30, 0x01	; 1
   132ec:	e7 30       	cpi	r30, 0x07	; 7
   132ee:	f1 05       	cpc	r31, r1
   132f0:	08 f0       	brcs	.+2      	; 0x132f4 <Convert_to_string_Clock+0x252>
   132f2:	4a c0       	rjmp	.+148    	; 0x13388 <Convert_to_string_Clock+0x2e6>
   132f4:	88 27       	eor	r24, r24
   132f6:	e6 58       	subi	r30, 0x86	; 134
   132f8:	ff 4f       	sbci	r31, 0xFF	; 255
   132fa:	8f 4f       	sbci	r24, 0xFF	; 255
   132fc:	23 c4       	rjmp	.+2118   	; 0x13b44 <__tablejump2__>
   132fe:	8a e0       	ldi	r24, 0x0A	; 10
   13300:	ea e7       	ldi	r30, 0x7A	; 122
   13302:	f3 e0       	ldi	r31, 0x03	; 3
   13304:	a2 e9       	ldi	r26, 0x92	; 146
   13306:	b4 e0       	ldi	r27, 0x04	; 4
   13308:	01 90       	ld	r0, Z+
   1330a:	0d 92       	st	X+, r0
   1330c:	8a 95       	dec	r24
   1330e:	e1 f7       	brne	.-8      	; 0x13308 <Convert_to_string_Clock+0x266>
   13310:	3b c0       	rjmp	.+118    	; 0x13388 <Convert_to_string_Clock+0x2e6>
   13312:	8a e0       	ldi	r24, 0x0A	; 10
   13314:	e4 e8       	ldi	r30, 0x84	; 132
   13316:	f3 e0       	ldi	r31, 0x03	; 3
   13318:	a2 e9       	ldi	r26, 0x92	; 146
   1331a:	b4 e0       	ldi	r27, 0x04	; 4
   1331c:	01 90       	ld	r0, Z+
   1331e:	0d 92       	st	X+, r0
   13320:	8a 95       	dec	r24
   13322:	e1 f7       	brne	.-8      	; 0x1331c <Convert_to_string_Clock+0x27a>
   13324:	31 c0       	rjmp	.+98     	; 0x13388 <Convert_to_string_Clock+0x2e6>
   13326:	8a e0       	ldi	r24, 0x0A	; 10
   13328:	ee e8       	ldi	r30, 0x8E	; 142
   1332a:	f3 e0       	ldi	r31, 0x03	; 3
   1332c:	a2 e9       	ldi	r26, 0x92	; 146
   1332e:	b4 e0       	ldi	r27, 0x04	; 4
   13330:	01 90       	ld	r0, Z+
   13332:	0d 92       	st	X+, r0
   13334:	8a 95       	dec	r24
   13336:	e1 f7       	brne	.-8      	; 0x13330 <Convert_to_string_Clock+0x28e>
   13338:	27 c0       	rjmp	.+78     	; 0x13388 <Convert_to_string_Clock+0x2e6>
   1333a:	8a e0       	ldi	r24, 0x0A	; 10
   1333c:	e8 e9       	ldi	r30, 0x98	; 152
   1333e:	f3 e0       	ldi	r31, 0x03	; 3
   13340:	a2 e9       	ldi	r26, 0x92	; 146
   13342:	b4 e0       	ldi	r27, 0x04	; 4
   13344:	01 90       	ld	r0, Z+
   13346:	0d 92       	st	X+, r0
   13348:	8a 95       	dec	r24
   1334a:	e1 f7       	brne	.-8      	; 0x13344 <Convert_to_string_Clock+0x2a2>
   1334c:	1d c0       	rjmp	.+58     	; 0x13388 <Convert_to_string_Clock+0x2e6>
   1334e:	8a e0       	ldi	r24, 0x0A	; 10
   13350:	e2 ea       	ldi	r30, 0xA2	; 162
   13352:	f3 e0       	ldi	r31, 0x03	; 3
   13354:	a2 e9       	ldi	r26, 0x92	; 146
   13356:	b4 e0       	ldi	r27, 0x04	; 4
   13358:	01 90       	ld	r0, Z+
   1335a:	0d 92       	st	X+, r0
   1335c:	8a 95       	dec	r24
   1335e:	e1 f7       	brne	.-8      	; 0x13358 <Convert_to_string_Clock+0x2b6>
   13360:	13 c0       	rjmp	.+38     	; 0x13388 <Convert_to_string_Clock+0x2e6>
   13362:	8a e0       	ldi	r24, 0x0A	; 10
   13364:	ec ea       	ldi	r30, 0xAC	; 172
   13366:	f3 e0       	ldi	r31, 0x03	; 3
   13368:	a2 e9       	ldi	r26, 0x92	; 146
   1336a:	b4 e0       	ldi	r27, 0x04	; 4
   1336c:	01 90       	ld	r0, Z+
   1336e:	0d 92       	st	X+, r0
   13370:	8a 95       	dec	r24
   13372:	e1 f7       	brne	.-8      	; 0x1336c <Convert_to_string_Clock+0x2ca>
   13374:	09 c0       	rjmp	.+18     	; 0x13388 <Convert_to_string_Clock+0x2e6>
   13376:	8a e0       	ldi	r24, 0x0A	; 10
   13378:	e6 eb       	ldi	r30, 0xB6	; 182
   1337a:	f3 e0       	ldi	r31, 0x03	; 3
   1337c:	a2 e9       	ldi	r26, 0x92	; 146
   1337e:	b4 e0       	ldi	r27, 0x04	; 4
   13380:	01 90       	ld	r0, Z+
   13382:	0d 92       	st	X+, r0
   13384:	8a 95       	dec	r24
   13386:	e1 f7       	brne	.-8      	; 0x13380 <Convert_to_string_Clock+0x2de>
   13388:	e0 91 5e 04 	lds	r30, 0x045E	; 0x80045e <month>
   1338c:	8e 2f       	mov	r24, r30
   1338e:	90 e0       	ldi	r25, 0x00	; 0
   13390:	fc 01       	movw	r30, r24
   13392:	31 97       	sbiw	r30, 0x01	; 1
   13394:	ec 30       	cpi	r30, 0x0C	; 12
   13396:	f1 05       	cpc	r31, r1
   13398:	08 f0       	brcs	.+2      	; 0x1339c <Convert_to_string_Clock+0x2fa>
   1339a:	64 c0       	rjmp	.+200    	; 0x13464 <Convert_to_string_Clock+0x3c2>
   1339c:	88 27       	eor	r24, r24
   1339e:	ef 57       	subi	r30, 0x7F	; 127
   133a0:	ff 4f       	sbci	r31, 0xFF	; 255
   133a2:	8f 4f       	sbci	r24, 0xFF	; 255
   133a4:	cf c3       	rjmp	.+1950   	; 0x13b44 <__tablejump2__>
   133a6:	e0 ea       	ldi	r30, 0xA0	; 160
   133a8:	f4 e0       	ldi	r31, 0x04	; 4
   133aa:	80 e3       	ldi	r24, 0x30	; 48
   133ac:	91 e3       	ldi	r25, 0x31	; 49
   133ae:	91 83       	std	Z+1, r25	; 0x01
   133b0:	80 83       	st	Z, r24
   133b2:	12 82       	std	Z+2, r1	; 0x02
   133b4:	08 95       	ret
   133b6:	e0 ea       	ldi	r30, 0xA0	; 160
   133b8:	f4 e0       	ldi	r31, 0x04	; 4
   133ba:	80 e3       	ldi	r24, 0x30	; 48
   133bc:	92 e3       	ldi	r25, 0x32	; 50
   133be:	91 83       	std	Z+1, r25	; 0x01
   133c0:	80 83       	st	Z, r24
   133c2:	12 82       	std	Z+2, r1	; 0x02
   133c4:	08 95       	ret
   133c6:	e0 ea       	ldi	r30, 0xA0	; 160
   133c8:	f4 e0       	ldi	r31, 0x04	; 4
   133ca:	80 e3       	ldi	r24, 0x30	; 48
   133cc:	93 e3       	ldi	r25, 0x33	; 51
   133ce:	91 83       	std	Z+1, r25	; 0x01
   133d0:	80 83       	st	Z, r24
   133d2:	12 82       	std	Z+2, r1	; 0x02
   133d4:	08 95       	ret
   133d6:	e0 ea       	ldi	r30, 0xA0	; 160
   133d8:	f4 e0       	ldi	r31, 0x04	; 4
   133da:	80 e3       	ldi	r24, 0x30	; 48
   133dc:	94 e3       	ldi	r25, 0x34	; 52
   133de:	91 83       	std	Z+1, r25	; 0x01
   133e0:	80 83       	st	Z, r24
   133e2:	12 82       	std	Z+2, r1	; 0x02
   133e4:	08 95       	ret
   133e6:	e0 ea       	ldi	r30, 0xA0	; 160
   133e8:	f4 e0       	ldi	r31, 0x04	; 4
   133ea:	80 e3       	ldi	r24, 0x30	; 48
   133ec:	95 e3       	ldi	r25, 0x35	; 53
   133ee:	91 83       	std	Z+1, r25	; 0x01
   133f0:	80 83       	st	Z, r24
   133f2:	12 82       	std	Z+2, r1	; 0x02
   133f4:	08 95       	ret
   133f6:	e0 ea       	ldi	r30, 0xA0	; 160
   133f8:	f4 e0       	ldi	r31, 0x04	; 4
   133fa:	80 e3       	ldi	r24, 0x30	; 48
   133fc:	96 e3       	ldi	r25, 0x36	; 54
   133fe:	91 83       	std	Z+1, r25	; 0x01
   13400:	80 83       	st	Z, r24
   13402:	12 82       	std	Z+2, r1	; 0x02
   13404:	08 95       	ret
   13406:	e0 ea       	ldi	r30, 0xA0	; 160
   13408:	f4 e0       	ldi	r31, 0x04	; 4
   1340a:	80 e3       	ldi	r24, 0x30	; 48
   1340c:	97 e3       	ldi	r25, 0x37	; 55
   1340e:	91 83       	std	Z+1, r25	; 0x01
   13410:	80 83       	st	Z, r24
   13412:	12 82       	std	Z+2, r1	; 0x02
   13414:	08 95       	ret
   13416:	e0 ea       	ldi	r30, 0xA0	; 160
   13418:	f4 e0       	ldi	r31, 0x04	; 4
   1341a:	80 e3       	ldi	r24, 0x30	; 48
   1341c:	98 e3       	ldi	r25, 0x38	; 56
   1341e:	91 83       	std	Z+1, r25	; 0x01
   13420:	80 83       	st	Z, r24
   13422:	12 82       	std	Z+2, r1	; 0x02
   13424:	08 95       	ret
   13426:	e0 ea       	ldi	r30, 0xA0	; 160
   13428:	f4 e0       	ldi	r31, 0x04	; 4
   1342a:	80 e3       	ldi	r24, 0x30	; 48
   1342c:	99 e3       	ldi	r25, 0x39	; 57
   1342e:	91 83       	std	Z+1, r25	; 0x01
   13430:	80 83       	st	Z, r24
   13432:	12 82       	std	Z+2, r1	; 0x02
   13434:	08 95       	ret
   13436:	e0 ea       	ldi	r30, 0xA0	; 160
   13438:	f4 e0       	ldi	r31, 0x04	; 4
   1343a:	81 e3       	ldi	r24, 0x31	; 49
   1343c:	90 e3       	ldi	r25, 0x30	; 48
   1343e:	91 83       	std	Z+1, r25	; 0x01
   13440:	80 83       	st	Z, r24
   13442:	12 82       	std	Z+2, r1	; 0x02
   13444:	08 95       	ret
   13446:	e0 ea       	ldi	r30, 0xA0	; 160
   13448:	f4 e0       	ldi	r31, 0x04	; 4
   1344a:	81 e3       	ldi	r24, 0x31	; 49
   1344c:	91 e3       	ldi	r25, 0x31	; 49
   1344e:	91 83       	std	Z+1, r25	; 0x01
   13450:	80 83       	st	Z, r24
   13452:	12 82       	std	Z+2, r1	; 0x02
   13454:	08 95       	ret
   13456:	e0 ea       	ldi	r30, 0xA0	; 160
   13458:	f4 e0       	ldi	r31, 0x04	; 4
   1345a:	81 e3       	ldi	r24, 0x31	; 49
   1345c:	92 e3       	ldi	r25, 0x32	; 50
   1345e:	91 83       	std	Z+1, r25	; 0x01
   13460:	80 83       	st	Z, r24
   13462:	12 82       	std	Z+2, r1	; 0x02
   13464:	08 95       	ret

00013466 <Clock>:
   13466:	0e 94 e6 83 	call	0x107cc	; 0x107cc <I2C_StartCondition>
   1346a:	80 ed       	ldi	r24, 0xD0	; 208
   1346c:	0e 94 f2 83 	call	0x107e4	; 0x107e4 <I2C_SendByte>
   13470:	80 e0       	ldi	r24, 0x00	; 0
   13472:	0e 94 f2 83 	call	0x107e4	; 0x107e4 <I2C_SendByte>
   13476:	0e 94 ee 83 	call	0x107dc	; 0x107dc <I2C_StopCondition>
   1347a:	0e 94 e6 83 	call	0x107cc	; 0x107cc <I2C_StartCondition>
   1347e:	81 ed       	ldi	r24, 0xD1	; 209
   13480:	0e 94 f2 83 	call	0x107e4	; 0x107e4 <I2C_SendByte>
   13484:	0e 94 fc 83 	call	0x107f8	; 0x107f8 <I2C_ReadByte>
   13488:	0e 94 cc 83 	call	0x10798	; 0x10798 <RTC_ConvertFromDec>
   1348c:	80 93 65 04 	sts	0x0465, r24	; 0x800465 <sec>
   13490:	0e 94 fc 83 	call	0x107f8	; 0x107f8 <I2C_ReadByte>
   13494:	0e 94 cc 83 	call	0x10798	; 0x10798 <RTC_ConvertFromDec>
   13498:	80 93 63 04 	sts	0x0463, r24	; 0x800463 <min>
   1349c:	0e 94 fc 83 	call	0x107f8	; 0x107f8 <I2C_ReadByte>
   134a0:	0e 94 cc 83 	call	0x10798	; 0x10798 <RTC_ConvertFromDec>
   134a4:	80 93 5f 04 	sts	0x045F, r24	; 0x80045f <hour>
   134a8:	0e 94 fc 83 	call	0x107f8	; 0x107f8 <I2C_ReadByte>
   134ac:	0e 94 cc 83 	call	0x10798	; 0x10798 <RTC_ConvertFromDec>
   134b0:	80 93 66 04 	sts	0x0466, r24	; 0x800466 <day>
   134b4:	0e 94 fc 83 	call	0x107f8	; 0x107f8 <I2C_ReadByte>
   134b8:	0e 94 cc 83 	call	0x10798	; 0x10798 <RTC_ConvertFromDec>
   134bc:	80 93 68 04 	sts	0x0468, r24	; 0x800468 <date>
   134c0:	0e 94 fc 83 	call	0x107f8	; 0x107f8 <I2C_ReadByte>
   134c4:	0e 94 cc 83 	call	0x10798	; 0x10798 <RTC_ConvertFromDec>
   134c8:	80 93 5e 04 	sts	0x045E, r24	; 0x80045e <month>
   134cc:	0e 94 06 84 	call	0x1080c	; 0x1080c <I2C_ReadLastByte>
   134d0:	0e 94 cc 83 	call	0x10798	; 0x10798 <RTC_ConvertFromDec>
   134d4:	80 93 64 04 	sts	0x0464, r24	; 0x800464 <year>
   134d8:	0e 94 ee 83 	call	0x107dc	; 0x107dc <I2C_StopCondition>
   134dc:	e2 cd       	rjmp	.-1084   	; 0x130a2 <Convert_to_string_Clock>
   134de:	08 95       	ret

000134e0 <Print_Home_Page_In>:
   134e0:	ef 92       	push	r14
   134e2:	ff 92       	push	r15
   134e4:	0f 93       	push	r16
   134e6:	1f 93       	push	r17
   134e8:	cf 93       	push	r28
   134ea:	df 93       	push	r29
   134ec:	cd b7       	in	r28, 0x3d	; 61
   134ee:	de b7       	in	r29, 0x3e	; 62
   134f0:	6e 97       	sbiw	r28, 0x1e	; 30
   134f2:	0f b6       	in	r0, 0x3f	; 63
   134f4:	f8 94       	cli
   134f6:	de bf       	out	0x3e, r29	; 62
   134f8:	0f be       	out	0x3f, r0	; 63
   134fa:	cd bf       	out	0x3d, r28	; 61
   134fc:	8a e0       	ldi	r24, 0x0A	; 10
   134fe:	7e 01       	movw	r14, r28
   13500:	2b e0       	ldi	r18, 0x0B	; 11
   13502:	e2 0e       	add	r14, r18
   13504:	f1 1c       	adc	r15, r1
   13506:	f7 01       	movw	r30, r14
   13508:	28 2f       	mov	r18, r24
   1350a:	11 92       	st	Z+, r1
   1350c:	2a 95       	dec	r18
   1350e:	e9 f7       	brne	.-6      	; 0x1350a <Print_Home_Page_In+0x2a>
   13510:	8e 01       	movw	r16, r28
   13512:	0b 5e       	subi	r16, 0xEB	; 235
   13514:	1f 4f       	sbci	r17, 0xFF	; 255
   13516:	f8 01       	movw	r30, r16
   13518:	11 92       	st	Z+, r1
   1351a:	8a 95       	dec	r24
   1351c:	e9 f7       	brne	.-6      	; 0x13518 <Print_Home_Page_In+0x38>
   1351e:	a3 df       	rcall	.-186    	; 0x13466 <Clock>
   13520:	8a e8       	ldi	r24, 0x8A	; 138
   13522:	94 e0       	ldi	r25, 0x04	; 4
   13524:	9f 93       	push	r25
   13526:	8f 93       	push	r24
   13528:	86 e8       	ldi	r24, 0x86	; 134
   1352a:	94 e0       	ldi	r25, 0x04	; 4
   1352c:	9f 93       	push	r25
   1352e:	8f 93       	push	r24
   13530:	80 ec       	ldi	r24, 0xC0	; 192
   13532:	93 e0       	ldi	r25, 0x03	; 3
   13534:	9f 93       	push	r25
   13536:	8f 93       	push	r24
   13538:	ff 92       	push	r15
   1353a:	ef 92       	push	r14
   1353c:	81 d4       	rcall	.+2306   	; 0x13e40 <sprintf>
   1353e:	84 ea       	ldi	r24, 0xA4	; 164
   13540:	94 e0       	ldi	r25, 0x04	; 4
   13542:	9f 93       	push	r25
   13544:	8f 93       	push	r24
   13546:	80 ea       	ldi	r24, 0xA0	; 160
   13548:	94 e0       	ldi	r25, 0x04	; 4
   1354a:	9f 93       	push	r25
   1354c:	8f 93       	push	r24
   1354e:	8c e9       	ldi	r24, 0x9C	; 156
   13550:	94 e0       	ldi	r25, 0x04	; 4
   13552:	9f 93       	push	r25
   13554:	8f 93       	push	r24
   13556:	80 e4       	ldi	r24, 0x40	; 64
   13558:	92 e0       	ldi	r25, 0x02	; 2
   1355a:	9f 93       	push	r25
   1355c:	8f 93       	push	r24
   1355e:	1f 93       	push	r17
   13560:	0f 93       	push	r16
   13562:	6e d4       	rcall	.+2268   	; 0x13e40 <sprintf>
   13564:	60 e0       	ldi	r22, 0x00	; 0
   13566:	70 e0       	ldi	r23, 0x00	; 0
   13568:	8f ef       	ldi	r24, 0xFF	; 255
   1356a:	9f ef       	ldi	r25, 0xFF	; 255
   1356c:	0e 94 00 71 	call	0xe200	; 0xe200 <ILI9486_SetTextColor>
   13570:	6f e0       	ldi	r22, 0x0F	; 15
   13572:	70 e0       	ldi	r23, 0x00	; 0
   13574:	8a e0       	ldi	r24, 0x0A	; 10
   13576:	90 e0       	ldi	r25, 0x00	; 0
   13578:	0e 94 52 75 	call	0xeaa4	; 0xeaa4 <ILI9486_SetCursor>
   1357c:	60 e0       	ldi	r22, 0x00	; 0
   1357e:	c7 01       	movw	r24, r14
   13580:	0e 94 ae 76 	call	0xed5c	; 0xed5c <ILI9486_Print_String24x32>
   13584:	67 e3       	ldi	r22, 0x37	; 55
   13586:	70 e0       	ldi	r23, 0x00	; 0
   13588:	8c e0       	ldi	r24, 0x0C	; 12
   1358a:	90 e0       	ldi	r25, 0x00	; 0
   1358c:	0e 94 52 75 	call	0xeaa4	; 0xeaa4 <ILI9486_SetCursor>
   13590:	60 e0       	ldi	r22, 0x00	; 0
   13592:	82 e9       	ldi	r24, 0x92	; 146
   13594:	94 e0       	ldi	r25, 0x04	; 4
   13596:	0e 94 90 77 	call	0xef20	; 0xef20 <ILI9486_Print_String14x24>
   1359a:	60 e5       	ldi	r22, 0x50	; 80
   1359c:	70 e0       	ldi	r23, 0x00	; 0
   1359e:	89 e0       	ldi	r24, 0x09	; 9
   135a0:	90 e0       	ldi	r25, 0x00	; 0
   135a2:	0e 94 52 75 	call	0xeaa4	; 0xeaa4 <ILI9486_SetCursor>
   135a6:	60 e0       	ldi	r22, 0x00	; 0
   135a8:	c8 01       	movw	r24, r16
   135aa:	0e 94 cc 75 	call	0xeb98	; 0xeb98 <ILI9486_Print_String18x32>
   135ae:	a8 95       	wdr
   135b0:	60 e0       	ldi	r22, 0x00	; 0
   135b2:	70 e0       	ldi	r23, 0x00	; 0
   135b4:	82 ea       	ldi	r24, 0xA2	; 162
   135b6:	9b ef       	ldi	r25, 0xFB	; 251
   135b8:	0e 94 00 71 	call	0xe200	; 0xe200 <ILI9486_SetTextColor>
   135bc:	80 91 a8 04 	lds	r24, 0x04A8	; 0x8004a8 <home_temp_sign>
   135c0:	0f b6       	in	r0, 0x3f	; 63
   135c2:	f8 94       	cli
   135c4:	de bf       	out	0x3e, r29	; 62
   135c6:	0f be       	out	0x3f, r0	; 63
   135c8:	cd bf       	out	0x3d, r28	; 61
   135ca:	88 23       	and	r24, r24
   135cc:	09 f4       	brne	.+2      	; 0x135d0 <Print_Home_Page_In+0xf0>
   135ce:	9f c0       	rjmp	.+318    	; 0x1370e <Print_Home_Page_In+0x22e>
   135d0:	6a ef       	ldi	r22, 0xFA	; 250
   135d2:	70 e0       	ldi	r23, 0x00	; 0
   135d4:	8f e4       	ldi	r24, 0x4F	; 79
   135d6:	90 e0       	ldi	r25, 0x00	; 0
   135d8:	0e 94 52 75 	call	0xeaa4	; 0xeaa4 <ILI9486_SetCursor>
   135dc:	60 e0       	ldi	r22, 0x00	; 0
   135de:	87 e9       	ldi	r24, 0x97	; 151
   135e0:	92 e0       	ldi	r25, 0x02	; 2
   135e2:	0e 94 1f 77 	call	0xee3e	; 0xee3e <ILI9486_Print_String32x48>
   135e6:	80 91 85 04 	lds	r24, 0x0485	; 0x800485 <home_temp_integer>
   135ea:	8a 30       	cpi	r24, 0x0A	; 10
   135ec:	90 f5       	brcc	.+100    	; 0x13652 <Print_Home_Page_In+0x172>
   135ee:	1f 92       	push	r1
   135f0:	8f 93       	push	r24
   135f2:	86 e6       	ldi	r24, 0x66	; 102
   135f4:	93 e0       	ldi	r25, 0x03	; 3
   135f6:	9f 93       	push	r25
   135f8:	8f 93       	push	r24
   135fa:	04 51       	subi	r16, 0x14	; 20
   135fc:	11 09       	sbc	r17, r1
   135fe:	1f 93       	push	r17
   13600:	0f 93       	push	r16
   13602:	1e d4       	rcall	.+2108   	; 0x13e40 <sprintf>
   13604:	6a ef       	ldi	r22, 0xFA	; 250
   13606:	70 e0       	ldi	r23, 0x00	; 0
   13608:	83 e1       	ldi	r24, 0x13	; 19
   1360a:	90 e0       	ldi	r25, 0x00	; 0
   1360c:	0e 94 52 75 	call	0xeaa4	; 0xeaa4 <ILI9486_SetCursor>
   13610:	60 e0       	ldi	r22, 0x00	; 0
   13612:	c8 01       	movw	r24, r16
   13614:	0e 94 1f 77 	call	0xee3e	; 0xee3e <ILI9486_Print_String32x48>
   13618:	6f ef       	ldi	r22, 0xFF	; 255
   1361a:	70 e0       	ldi	r23, 0x00	; 0
   1361c:	83 e0       	ldi	r24, 0x03	; 3
   1361e:	90 e0       	ldi	r25, 0x00	; 0
   13620:	0e 94 52 75 	call	0xeaa4	; 0xeaa4 <ILI9486_SetCursor>
   13624:	60 e0       	ldi	r22, 0x00	; 0
   13626:	8a ea       	ldi	r24, 0xAA	; 170
   13628:	93 e0       	ldi	r25, 0x03	; 3
   1362a:	0e 94 cc 75 	call	0xeb98	; 0xeb98 <ILI9486_Print_String18x32>
   1362e:	6f ef       	ldi	r22, 0xFF	; 255
   13630:	70 e0       	ldi	r23, 0x00	; 0
   13632:	8e e1       	ldi	r24, 0x1E	; 30
   13634:	90 e0       	ldi	r25, 0x00	; 0
   13636:	0e 94 52 75 	call	0xeaa4	; 0xeaa4 <ILI9486_SetCursor>
   1363a:	60 e0       	ldi	r22, 0x00	; 0
   1363c:	8d e6       	ldi	r24, 0x6D	; 109
   1363e:	93 e0       	ldi	r25, 0x03	; 3
   13640:	0e 94 cc 75 	call	0xeb98	; 0xeb98 <ILI9486_Print_String18x32>
   13644:	0f 90       	pop	r0
   13646:	0f 90       	pop	r0
   13648:	0f 90       	pop	r0
   1364a:	0f 90       	pop	r0
   1364c:	0f 90       	pop	r0
   1364e:	0f 90       	pop	r0
   13650:	27 c0       	rjmp	.+78     	; 0x136a0 <Print_Home_Page_In+0x1c0>
   13652:	1f 92       	push	r1
   13654:	8f 93       	push	r24
   13656:	87 e6       	ldi	r24, 0x67	; 103
   13658:	93 e0       	ldi	r25, 0x03	; 3
   1365a:	9f 93       	push	r25
   1365c:	8f 93       	push	r24
   1365e:	8e 01       	movw	r16, r28
   13660:	0f 5f       	subi	r16, 0xFF	; 255
   13662:	1f 4f       	sbci	r17, 0xFF	; 255
   13664:	1f 93       	push	r17
   13666:	0f 93       	push	r16
   13668:	eb d3       	rcall	.+2006   	; 0x13e40 <sprintf>
   1366a:	6f ef       	ldi	r22, 0xFF	; 255
   1366c:	70 e0       	ldi	r23, 0x00	; 0
   1366e:	83 e0       	ldi	r24, 0x03	; 3
   13670:	90 e0       	ldi	r25, 0x00	; 0
   13672:	0e 94 52 75 	call	0xeaa4	; 0xeaa4 <ILI9486_SetCursor>
   13676:	60 e0       	ldi	r22, 0x00	; 0
   13678:	8d e6       	ldi	r24, 0x6D	; 109
   1367a:	93 e0       	ldi	r25, 0x03	; 3
   1367c:	0e 94 cc 75 	call	0xeb98	; 0xeb98 <ILI9486_Print_String18x32>
   13680:	6a ef       	ldi	r22, 0xFA	; 250
   13682:	70 e0       	ldi	r23, 0x00	; 0
   13684:	83 e1       	ldi	r24, 0x13	; 19
   13686:	90 e0       	ldi	r25, 0x00	; 0
   13688:	0e 94 52 75 	call	0xeaa4	; 0xeaa4 <ILI9486_SetCursor>
   1368c:	60 e0       	ldi	r22, 0x00	; 0
   1368e:	c8 01       	movw	r24, r16
   13690:	0e 94 1f 77 	call	0xee3e	; 0xee3e <ILI9486_Print_String32x48>
   13694:	0f 90       	pop	r0
   13696:	0f 90       	pop	r0
   13698:	0f 90       	pop	r0
   1369a:	0f 90       	pop	r0
   1369c:	0f 90       	pop	r0
   1369e:	0f 90       	pop	r0
   136a0:	8e 01       	movw	r16, r28
   136a2:	0f 5f       	subi	r16, 0xFF	; 255
   136a4:	1f 4f       	sbci	r17, 0xFF	; 255
   136a6:	f8 01       	movw	r30, r16
   136a8:	01 90       	ld	r0, Z+
   136aa:	00 20       	and	r0, r0
   136ac:	e9 f7       	brne	.-6      	; 0x136a8 <Print_Home_Page_In+0x1c8>
   136ae:	31 97       	sbiw	r30, 0x01	; 1
   136b0:	af 01       	movw	r20, r30
   136b2:	40 1b       	sub	r20, r16
   136b4:	51 0b       	sbc	r21, r17
   136b6:	60 e0       	ldi	r22, 0x00	; 0
   136b8:	70 e0       	ldi	r23, 0x00	; 0
   136ba:	c8 01       	movw	r24, r16
   136bc:	b1 d3       	rcall	.+1890   	; 0x13e20 <memset>
   136be:	80 91 7e 04 	lds	r24, 0x047E	; 0x80047e <home_temp_fraction>
   136c2:	1f 92       	push	r1
   136c4:	8f 93       	push	r24
   136c6:	87 e6       	ldi	r24, 0x67	; 103
   136c8:	93 e0       	ldi	r25, 0x03	; 3
   136ca:	9f 93       	push	r25
   136cc:	8f 93       	push	r24
   136ce:	1f 93       	push	r17
   136d0:	0f 93       	push	r16
   136d2:	b6 d3       	rcall	.+1900   	; 0x13e40 <sprintf>
   136d4:	6a ef       	ldi	r22, 0xFA	; 250
   136d6:	70 e0       	ldi	r23, 0x00	; 0
   136d8:	8e e6       	ldi	r24, 0x6E	; 110
   136da:	90 e0       	ldi	r25, 0x00	; 0
   136dc:	0e 94 52 75 	call	0xeaa4	; 0xeaa4 <ILI9486_SetCursor>
   136e0:	60 e0       	ldi	r22, 0x00	; 0
   136e2:	c8 01       	movw	r24, r16
   136e4:	0e 94 1f 77 	call	0xee3e	; 0xee3e <ILI9486_Print_String32x48>
   136e8:	f8 01       	movw	r30, r16
   136ea:	01 90       	ld	r0, Z+
   136ec:	00 20       	and	r0, r0
   136ee:	e9 f7       	brne	.-6      	; 0x136ea <Print_Home_Page_In+0x20a>
   136f0:	31 97       	sbiw	r30, 0x01	; 1
   136f2:	af 01       	movw	r20, r30
   136f4:	40 1b       	sub	r20, r16
   136f6:	51 0b       	sbc	r21, r17
   136f8:	60 e0       	ldi	r22, 0x00	; 0
   136fa:	70 e0       	ldi	r23, 0x00	; 0
   136fc:	c8 01       	movw	r24, r16
   136fe:	90 d3       	rcall	.+1824   	; 0x13e20 <memset>
   13700:	0f 90       	pop	r0
   13702:	0f 90       	pop	r0
   13704:	0f 90       	pop	r0
   13706:	0f 90       	pop	r0
   13708:	0f 90       	pop	r0
   1370a:	0f 90       	pop	r0
   1370c:	7e c0       	rjmp	.+252    	; 0x1380a <Print_Home_Page_In+0x32a>
   1370e:	6a ef       	ldi	r22, 0xFA	; 250
   13710:	70 e0       	ldi	r23, 0x00	; 0
   13712:	8f e4       	ldi	r24, 0x4F	; 79
   13714:	90 e0       	ldi	r25, 0x00	; 0
   13716:	0e 94 52 75 	call	0xeaa4	; 0xeaa4 <ILI9486_SetCursor>
   1371a:	60 e0       	ldi	r22, 0x00	; 0
   1371c:	87 e9       	ldi	r24, 0x97	; 151
   1371e:	92 e0       	ldi	r25, 0x02	; 2
   13720:	0e 94 1f 77 	call	0xee3e	; 0xee3e <ILI9486_Print_String32x48>
   13724:	80 91 85 04 	lds	r24, 0x0485	; 0x800485 <home_temp_integer>
   13728:	8a 30       	cpi	r24, 0x0A	; 10
   1372a:	e8 f4       	brcc	.+58     	; 0x13766 <Print_Home_Page_In+0x286>
   1372c:	1f 92       	push	r1
   1372e:	8f 93       	push	r24
   13730:	86 e6       	ldi	r24, 0x66	; 102
   13732:	93 e0       	ldi	r25, 0x03	; 3
   13734:	9f 93       	push	r25
   13736:	8f 93       	push	r24
   13738:	8e 01       	movw	r16, r28
   1373a:	0f 5f       	subi	r16, 0xFF	; 255
   1373c:	1f 4f       	sbci	r17, 0xFF	; 255
   1373e:	1f 93       	push	r17
   13740:	0f 93       	push	r16
   13742:	7e d3       	rcall	.+1788   	; 0x13e40 <sprintf>
   13744:	6a ef       	ldi	r22, 0xFA	; 250
   13746:	70 e0       	ldi	r23, 0x00	; 0
   13748:	83 e1       	ldi	r24, 0x13	; 19
   1374a:	90 e0       	ldi	r25, 0x00	; 0
   1374c:	0e 94 52 75 	call	0xeaa4	; 0xeaa4 <ILI9486_SetCursor>
   13750:	60 e0       	ldi	r22, 0x00	; 0
   13752:	c8 01       	movw	r24, r16
   13754:	0e 94 1f 77 	call	0xee3e	; 0xee3e <ILI9486_Print_String32x48>
   13758:	0f 90       	pop	r0
   1375a:	0f 90       	pop	r0
   1375c:	0f 90       	pop	r0
   1375e:	0f 90       	pop	r0
   13760:	0f 90       	pop	r0
   13762:	0f 90       	pop	r0
   13764:	1c c0       	rjmp	.+56     	; 0x1379e <Print_Home_Page_In+0x2be>
   13766:	1f 92       	push	r1
   13768:	8f 93       	push	r24
   1376a:	87 e6       	ldi	r24, 0x67	; 103
   1376c:	93 e0       	ldi	r25, 0x03	; 3
   1376e:	9f 93       	push	r25
   13770:	8f 93       	push	r24
   13772:	8e 01       	movw	r16, r28
   13774:	0f 5f       	subi	r16, 0xFF	; 255
   13776:	1f 4f       	sbci	r17, 0xFF	; 255
   13778:	1f 93       	push	r17
   1377a:	0f 93       	push	r16
   1377c:	61 d3       	rcall	.+1730   	; 0x13e40 <sprintf>
   1377e:	6a ef       	ldi	r22, 0xFA	; 250
   13780:	70 e0       	ldi	r23, 0x00	; 0
   13782:	83 e1       	ldi	r24, 0x13	; 19
   13784:	90 e0       	ldi	r25, 0x00	; 0
   13786:	0e 94 52 75 	call	0xeaa4	; 0xeaa4 <ILI9486_SetCursor>
   1378a:	60 e0       	ldi	r22, 0x00	; 0
   1378c:	c8 01       	movw	r24, r16
   1378e:	0e 94 1f 77 	call	0xee3e	; 0xee3e <ILI9486_Print_String32x48>
   13792:	0f 90       	pop	r0
   13794:	0f 90       	pop	r0
   13796:	0f 90       	pop	r0
   13798:	0f 90       	pop	r0
   1379a:	0f 90       	pop	r0
   1379c:	0f 90       	pop	r0
   1379e:	8e 01       	movw	r16, r28
   137a0:	0f 5f       	subi	r16, 0xFF	; 255
   137a2:	1f 4f       	sbci	r17, 0xFF	; 255
   137a4:	f8 01       	movw	r30, r16
   137a6:	01 90       	ld	r0, Z+
   137a8:	00 20       	and	r0, r0
   137aa:	e9 f7       	brne	.-6      	; 0x137a6 <Print_Home_Page_In+0x2c6>
   137ac:	31 97       	sbiw	r30, 0x01	; 1
   137ae:	af 01       	movw	r20, r30
   137b0:	40 1b       	sub	r20, r16
   137b2:	51 0b       	sbc	r21, r17
   137b4:	60 e0       	ldi	r22, 0x00	; 0
   137b6:	70 e0       	ldi	r23, 0x00	; 0
   137b8:	c8 01       	movw	r24, r16
   137ba:	32 d3       	rcall	.+1636   	; 0x13e20 <memset>
   137bc:	80 91 7e 04 	lds	r24, 0x047E	; 0x80047e <home_temp_fraction>
   137c0:	1f 92       	push	r1
   137c2:	8f 93       	push	r24
   137c4:	87 e6       	ldi	r24, 0x67	; 103
   137c6:	93 e0       	ldi	r25, 0x03	; 3
   137c8:	9f 93       	push	r25
   137ca:	8f 93       	push	r24
   137cc:	1f 93       	push	r17
   137ce:	0f 93       	push	r16
   137d0:	37 d3       	rcall	.+1646   	; 0x13e40 <sprintf>
   137d2:	6a ef       	ldi	r22, 0xFA	; 250
   137d4:	70 e0       	ldi	r23, 0x00	; 0
   137d6:	8e e6       	ldi	r24, 0x6E	; 110
   137d8:	90 e0       	ldi	r25, 0x00	; 0
   137da:	0e 94 52 75 	call	0xeaa4	; 0xeaa4 <ILI9486_SetCursor>
   137de:	60 e0       	ldi	r22, 0x00	; 0
   137e0:	c8 01       	movw	r24, r16
   137e2:	0e 94 1f 77 	call	0xee3e	; 0xee3e <ILI9486_Print_String32x48>
   137e6:	f8 01       	movw	r30, r16
   137e8:	01 90       	ld	r0, Z+
   137ea:	00 20       	and	r0, r0
   137ec:	e9 f7       	brne	.-6      	; 0x137e8 <Print_Home_Page_In+0x308>
   137ee:	31 97       	sbiw	r30, 0x01	; 1
   137f0:	af 01       	movw	r20, r30
   137f2:	40 1b       	sub	r20, r16
   137f4:	51 0b       	sbc	r21, r17
   137f6:	60 e0       	ldi	r22, 0x00	; 0
   137f8:	70 e0       	ldi	r23, 0x00	; 0
   137fa:	c8 01       	movw	r24, r16
   137fc:	11 d3       	rcall	.+1570   	; 0x13e20 <memset>
   137fe:	0f 90       	pop	r0
   13800:	0f 90       	pop	r0
   13802:	0f 90       	pop	r0
   13804:	0f 90       	pop	r0
   13806:	0f 90       	pop	r0
   13808:	0f 90       	pop	r0
   1380a:	6c e0       	ldi	r22, 0x0C	; 12
   1380c:	71 e0       	ldi	r23, 0x01	; 1
   1380e:	8f e8       	ldi	r24, 0x8F	; 143
   13810:	90 e0       	ldi	r25, 0x00	; 0
   13812:	0e 94 52 75 	call	0xeaa4	; 0xeaa4 <ILI9486_SetCursor>
   13816:	60 e0       	ldi	r22, 0x00	; 0
   13818:	8f e6       	ldi	r24, 0x6F	; 111
   1381a:	93 e0       	ldi	r25, 0x03	; 3
   1381c:	0e 94 cc 75 	call	0xeb98	; 0xeb98 <ILI9486_Print_String18x32>
   13820:	66 e9       	ldi	r22, 0x96	; 150
   13822:	70 e0       	ldi	r23, 0x00	; 0
   13824:	8f e2       	ldi	r24, 0x2F	; 47
   13826:	90 e0       	ldi	r25, 0x00	; 0
   13828:	0e 94 52 75 	call	0xeaa4	; 0xeaa4 <ILI9486_SetCursor>
   1382c:	80 91 aa 04 	lds	r24, 0x04AA	; 0x8004aa <home_hum_integer+0x1>
   13830:	8f 93       	push	r24
   13832:	80 91 a9 04 	lds	r24, 0x04A9	; 0x8004a9 <home_hum_integer>
   13836:	8f 93       	push	r24
   13838:	87 e6       	ldi	r24, 0x67	; 103
   1383a:	93 e0       	ldi	r25, 0x03	; 3
   1383c:	9f 93       	push	r25
   1383e:	8f 93       	push	r24
   13840:	8e 01       	movw	r16, r28
   13842:	0f 5f       	subi	r16, 0xFF	; 255
   13844:	1f 4f       	sbci	r17, 0xFF	; 255
   13846:	1f 93       	push	r17
   13848:	0f 93       	push	r16
   1384a:	fa d2       	rcall	.+1524   	; 0x13e40 <sprintf>
   1384c:	60 e0       	ldi	r22, 0x00	; 0
   1384e:	c8 01       	movw	r24, r16
   13850:	0e 94 1f 77 	call	0xee3e	; 0xee3e <ILI9486_Print_String32x48>
   13854:	65 ea       	ldi	r22, 0xA5	; 165
   13856:	70 e0       	ldi	r23, 0x00	; 0
   13858:	83 e7       	ldi	r24, 0x73	; 115
   1385a:	90 e0       	ldi	r25, 0x00	; 0
   1385c:	0e 94 52 75 	call	0xeaa4	; 0xeaa4 <ILI9486_SetCursor>
   13860:	f8 01       	movw	r30, r16
   13862:	01 90       	ld	r0, Z+
   13864:	00 20       	and	r0, r0
   13866:	e9 f7       	brne	.-6      	; 0x13862 <Print_Home_Page_In+0x382>
   13868:	31 97       	sbiw	r30, 0x01	; 1
   1386a:	af 01       	movw	r20, r30
   1386c:	40 1b       	sub	r20, r16
   1386e:	51 0b       	sbc	r21, r17
   13870:	60 e0       	ldi	r22, 0x00	; 0
   13872:	70 e0       	ldi	r23, 0x00	; 0
   13874:	c8 01       	movw	r24, r16
   13876:	d4 d2       	rcall	.+1448   	; 0x13e20 <memset>
   13878:	60 e0       	ldi	r22, 0x00	; 0
   1387a:	84 e7       	ldi	r24, 0x74	; 116
   1387c:	93 e0       	ldi	r25, 0x03	; 3
   1387e:	0e 94 cc 75 	call	0xeb98	; 0xeb98 <ILI9486_Print_String18x32>
   13882:	0f 90       	pop	r0
   13884:	0f 90       	pop	r0
   13886:	0f 90       	pop	r0
   13888:	0f 90       	pop	r0
   1388a:	0f 90       	pop	r0
   1388c:	0f 90       	pop	r0
   1388e:	6e 96       	adiw	r28, 0x1e	; 30
   13890:	0f b6       	in	r0, 0x3f	; 63
   13892:	f8 94       	cli
   13894:	de bf       	out	0x3e, r29	; 62
   13896:	0f be       	out	0x3f, r0	; 63
   13898:	cd bf       	out	0x3d, r28	; 61
   1389a:	df 91       	pop	r29
   1389c:	cf 91       	pop	r28
   1389e:	1f 91       	pop	r17
   138a0:	0f 91       	pop	r16
   138a2:	ff 90       	pop	r15
   138a4:	ef 90       	pop	r14
   138a6:	08 95       	ret

000138a8 <Print_Page_Clock_Settings_Static>:
   138a8:	80 e0       	ldi	r24, 0x00	; 0
   138aa:	90 e0       	ldi	r25, 0x00	; 0
   138ac:	0e 94 b8 6b 	call	0xd770	; 0xd770 <ILI9486_FillScreen>
   138b0:	81 e0       	ldi	r24, 0x01	; 1
   138b2:	0e 94 67 69 	call	0xd2ce	; 0xd2ce <ILI9486_SetRotation>
   138b6:	64 e1       	ldi	r22, 0x14	; 20
   138b8:	70 e0       	ldi	r23, 0x00	; 0
   138ba:	88 e2       	ldi	r24, 0x28	; 40
   138bc:	90 e0       	ldi	r25, 0x00	; 0
   138be:	0e 94 52 75 	call	0xeaa4	; 0xeaa4 <ILI9486_SetCursor>
   138c2:	6f ef       	ldi	r22, 0xFF	; 255
   138c4:	7f ef       	ldi	r23, 0xFF	; 255
   138c6:	80 e0       	ldi	r24, 0x00	; 0
   138c8:	90 e0       	ldi	r25, 0x00	; 0
   138ca:	0e 94 00 71 	call	0xe200	; 0xe200 <ILI9486_SetTextColor>
   138ce:	60 e0       	ldi	r22, 0x00	; 0
   138d0:	86 ec       	ldi	r24, 0xC6	; 198
   138d2:	93 e0       	ldi	r25, 0x03	; 3
   138d4:	0e 94 5b 75 	call	0xeab6	; 0xeab6 <ILI9486_Print_String40x40>
   138d8:	c6 dd       	rcall	.-1140   	; 0x13466 <Clock>
   138da:	60 e0       	ldi	r22, 0x00	; 0
   138dc:	70 e0       	ldi	r23, 0x00	; 0
   138de:	8f ef       	ldi	r24, 0xFF	; 255
   138e0:	9f ef       	ldi	r25, 0xFF	; 255
   138e2:	0e 94 00 71 	call	0xe200	; 0xe200 <ILI9486_SetTextColor>
   138e6:	68 e7       	ldi	r22, 0x78	; 120
   138e8:	70 e0       	ldi	r23, 0x00	; 0
   138ea:	80 e7       	ldi	r24, 0x70	; 112
   138ec:	90 e0       	ldi	r25, 0x00	; 0
   138ee:	0e 94 52 75 	call	0xeaa4	; 0xeaa4 <ILI9486_SetCursor>
   138f2:	60 e0       	ldi	r22, 0x00	; 0
   138f4:	83 ed       	ldi	r24, 0xD3	; 211
   138f6:	93 e0       	ldi	r25, 0x03	; 3
   138f8:	0e 94 3d 76 	call	0xec7a	; 0xec7a <ILI9486_Print_String32x32>
   138fc:	68 e7       	ldi	r22, 0x78	; 120
   138fe:	70 e0       	ldi	r23, 0x00	; 0
   13900:	88 ee       	ldi	r24, 0xE8	; 232
   13902:	90 e0       	ldi	r25, 0x00	; 0
   13904:	0e 94 52 75 	call	0xeaa4	; 0xeaa4 <ILI9486_SetCursor>
   13908:	60 e0       	ldi	r22, 0x00	; 0
   1390a:	85 ed       	ldi	r24, 0xD5	; 213
   1390c:	93 e0       	ldi	r25, 0x03	; 3
   1390e:	0e 94 3d 76 	call	0xec7a	; 0xec7a <ILI9486_Print_String32x32>
   13912:	68 e7       	ldi	r22, 0x78	; 120
   13914:	70 e0       	ldi	r23, 0x00	; 0
   13916:	89 e7       	ldi	r24, 0x79	; 121
   13918:	91 e0       	ldi	r25, 0x01	; 1
   1391a:	0e 94 52 75 	call	0xeaa4	; 0xeaa4 <ILI9486_SetCursor>
   1391e:	60 e0       	ldi	r22, 0x00	; 0
   13920:	89 ed       	ldi	r24, 0xD9	; 217
   13922:	93 e0       	ldi	r25, 0x03	; 3
   13924:	0e 94 3d 76 	call	0xec7a	; 0xec7a <ILI9486_Print_String32x32>
   13928:	64 e6       	ldi	r22, 0x64	; 100
   1392a:	70 e0       	ldi	r23, 0x00	; 0
   1392c:	82 e3       	ldi	r24, 0x32	; 50
   1392e:	90 e0       	ldi	r25, 0x00	; 0
   13930:	0e 94 52 75 	call	0xeaa4	; 0xeaa4 <ILI9486_SetCursor>
   13934:	60 e0       	ldi	r22, 0x00	; 0
   13936:	86 e8       	ldi	r24, 0x86	; 134
   13938:	94 e0       	ldi	r25, 0x04	; 4
   1393a:	0e 94 1f 77 	call	0xee3e	; 0xee3e <ILI9486_Print_String32x48>
   1393e:	64 e6       	ldi	r22, 0x64	; 100
   13940:	70 e0       	ldi	r23, 0x00	; 0
   13942:	8a ea       	ldi	r24, 0xAA	; 170
   13944:	90 e0       	ldi	r25, 0x00	; 0
   13946:	0e 94 52 75 	call	0xeaa4	; 0xeaa4 <ILI9486_SetCursor>
   1394a:	60 e0       	ldi	r22, 0x00	; 0
   1394c:	8a e8       	ldi	r24, 0x8A	; 138
   1394e:	94 e0       	ldi	r25, 0x04	; 4
   13950:	0e 94 1f 77 	call	0xee3e	; 0xee3e <ILI9486_Print_String32x48>
   13954:	64 e6       	ldi	r22, 0x64	; 100
   13956:	70 e0       	ldi	r23, 0x00	; 0
   13958:	8b e3       	ldi	r24, 0x3B	; 59
   1395a:	91 e0       	ldi	r25, 0x01	; 1
   1395c:	0e 94 52 75 	call	0xeaa4	; 0xeaa4 <ILI9486_SetCursor>
   13960:	60 e0       	ldi	r22, 0x00	; 0
   13962:	8e e8       	ldi	r24, 0x8E	; 142
   13964:	94 e0       	ldi	r25, 0x04	; 4
   13966:	0e 94 1f 77 	call	0xee3e	; 0xee3e <ILI9486_Print_String32x48>
   1396a:	6a ea       	ldi	r22, 0xAA	; 170
   1396c:	70 e0       	ldi	r23, 0x00	; 0
   1396e:	84 e6       	ldi	r24, 0x64	; 100
   13970:	90 e0       	ldi	r25, 0x00	; 0
   13972:	0e 94 52 75 	call	0xeaa4	; 0xeaa4 <ILI9486_SetCursor>
   13976:	60 e0       	ldi	r22, 0x00	; 0
   13978:	8c e9       	ldi	r24, 0x9C	; 156
   1397a:	94 e0       	ldi	r25, 0x04	; 4
   1397c:	0e 94 1f 77 	call	0xee3e	; 0xee3e <ILI9486_Print_String32x48>
   13980:	6a ea       	ldi	r22, 0xAA	; 170
   13982:	70 e0       	ldi	r23, 0x00	; 0
   13984:	85 ea       	ldi	r24, 0xA5	; 165
   13986:	90 e0       	ldi	r25, 0x00	; 0
   13988:	0e 94 52 75 	call	0xeaa4	; 0xeaa4 <ILI9486_SetCursor>
   1398c:	60 e0       	ldi	r22, 0x00	; 0
   1398e:	8b e6       	ldi	r24, 0x6B	; 107
   13990:	93 e0       	ldi	r25, 0x03	; 3
   13992:	0e 94 1f 77 	call	0xee3e	; 0xee3e <ILI9486_Print_String32x48>
   13996:	6a ea       	ldi	r22, 0xAA	; 170
   13998:	70 e0       	ldi	r23, 0x00	; 0
   1399a:	8d ec       	ldi	r24, 0xCD	; 205
   1399c:	90 e0       	ldi	r25, 0x00	; 0
   1399e:	0e 94 52 75 	call	0xeaa4	; 0xeaa4 <ILI9486_SetCursor>
   139a2:	60 e0       	ldi	r22, 0x00	; 0
   139a4:	80 ea       	ldi	r24, 0xA0	; 160
   139a6:	94 e0       	ldi	r25, 0x04	; 4
   139a8:	0e 94 1f 77 	call	0xee3e	; 0xee3e <ILI9486_Print_String32x48>
   139ac:	6a ea       	ldi	r22, 0xAA	; 170
   139ae:	70 e0       	ldi	r23, 0x00	; 0
   139b0:	83 e1       	ldi	r24, 0x13	; 19
   139b2:	91 e0       	ldi	r25, 0x01	; 1
   139b4:	0e 94 52 75 	call	0xeaa4	; 0xeaa4 <ILI9486_SetCursor>
   139b8:	60 e0       	ldi	r22, 0x00	; 0
   139ba:	8b e6       	ldi	r24, 0x6B	; 107
   139bc:	93 e0       	ldi	r25, 0x03	; 3
   139be:	0e 94 1f 77 	call	0xee3e	; 0xee3e <ILI9486_Print_String32x48>
   139c2:	6a ea       	ldi	r22, 0xAA	; 170
   139c4:	70 e0       	ldi	r23, 0x00	; 0
   139c6:	8b e3       	ldi	r24, 0x3B	; 59
   139c8:	91 e0       	ldi	r25, 0x01	; 1
   139ca:	0e 94 52 75 	call	0xeaa4	; 0xeaa4 <ILI9486_SetCursor>
   139ce:	60 e0       	ldi	r22, 0x00	; 0
   139d0:	84 ea       	ldi	r24, 0xA4	; 164
   139d2:	94 e0       	ldi	r25, 0x04	; 4
   139d4:	0e 94 1f 77 	call	0xee3e	; 0xee3e <ILI9486_Print_String32x48>
   139d8:	66 ee       	ldi	r22, 0xE6	; 230
   139da:	70 e0       	ldi	r23, 0x00	; 0
   139dc:	8e eb       	ldi	r24, 0xBE	; 190
   139de:	90 e0       	ldi	r25, 0x00	; 0
   139e0:	0e 94 52 75 	call	0xeaa4	; 0xeaa4 <ILI9486_SetCursor>
   139e4:	60 e0       	ldi	r22, 0x00	; 0
   139e6:	82 e9       	ldi	r24, 0x92	; 146
   139e8:	94 e0       	ldi	r25, 0x04	; 4
   139ea:	0e 94 cc 75 	call	0xeb98	; 0xeb98 <ILI9486_Print_String18x32>
   139ee:	6e e0       	ldi	r22, 0x0E	; 14
   139f0:	71 e0       	ldi	r23, 0x01	; 1
   139f2:	88 e2       	ldi	r24, 0x28	; 40
   139f4:	90 e0       	ldi	r25, 0x00	; 0
   139f6:	0e 94 52 75 	call	0xeaa4	; 0xeaa4 <ILI9486_SetCursor>
   139fa:	60 e0       	ldi	r22, 0x00	; 0
   139fc:	81 ef       	ldi	r24, 0xF1	; 241
   139fe:	92 e0       	ldi	r25, 0x02	; 2
   13a00:	0c 94 5b 75 	jmp	0xeab6	; 0xeab6 <ILI9486_Print_String40x40>
   13a04:	08 95       	ret

00013a06 <sprintf_HOME_Weath_Param>:
void sprintf_HOME_Weath_Param(void)
{
	wdt_reset();
   13a06:	a8 95       	wdr
	pressure_home = BMP180_calculation()*0.0075;
	sprintf(Press_home,"%d",pressure_home);*/
	
	// 
	int tt = 0; 
	tt = dt_check(); 
   13a08:	0e 94 d2 68 	call	0xd1a4	; 0xd1a4 <dt_check>
	home_temp_sign = tt>>11;//  
   13a0c:	29 2f       	mov	r18, r25
   13a0e:	25 95       	asr	r18
   13a10:	25 95       	asr	r18
   13a12:	25 95       	asr	r18
   13a14:	20 93 a8 04 	sts	0x04A8, r18	; 0x8004a8 <home_temp_sign>
	if (home_temp_sign == 0x00)
   13a18:	21 11       	cpse	r18, r1
   13a1a:	18 c0       	rjmp	.+48     	; 0x13a4c <sprintf_HOME_Weath_Param+0x46>
	{
		home_temp_fraction = tt & 0xF;
   13a1c:	28 2f       	mov	r18, r24
   13a1e:	2f 70       	andi	r18, 0x0F	; 15
		home_temp_fraction = (home_temp_fraction<<1) + (home_temp_fraction<<3);//   10
   13a20:	32 2f       	mov	r19, r18
   13a22:	33 0f       	add	r19, r19
   13a24:	22 0f       	add	r18, r18
   13a26:	22 0f       	add	r18, r18
   13a28:	22 0f       	add	r18, r18
   13a2a:	23 0f       	add	r18, r19
		home_temp_fraction = (home_temp_fraction>>4);//  16    0.0625
   13a2c:	22 95       	swap	r18
   13a2e:	2f 70       	andi	r18, 0x0F	; 15
   13a30:	20 93 7e 04 	sts	0x047E, r18	; 0x80047e <home_temp_fraction>
		home_temp_integer = (tt&0x07FF)>>4;
   13a34:	97 70       	andi	r25, 0x07	; 7
   13a36:	95 95       	asr	r25
   13a38:	87 95       	ror	r24
   13a3a:	95 95       	asr	r25
   13a3c:	87 95       	ror	r24
   13a3e:	95 95       	asr	r25
   13a40:	87 95       	ror	r24
   13a42:	95 95       	asr	r25
   13a44:	87 95       	ror	r24
   13a46:	80 93 85 04 	sts	0x0485, r24	; 0x800485 <home_temp_integer>
   13a4a:	1a c0       	rjmp	.+52     	; 0x13a80 <sprintf_HOME_Weath_Param+0x7a>
		//sprintf(data,"%d,%d\r",buf[1],buf[0]);
	}
	else
	{
		home_temp_fraction = ((~tt) & 0xF);
   13a4c:	28 2f       	mov	r18, r24
   13a4e:	20 95       	com	r18
   13a50:	2f 70       	andi	r18, 0x0F	; 15
		home_temp_fraction = (home_temp_fraction<<1) + (home_temp_fraction<<3);//   10
   13a52:	32 2f       	mov	r19, r18
   13a54:	33 0f       	add	r19, r19
   13a56:	22 0f       	add	r18, r18
   13a58:	22 0f       	add	r18, r18
   13a5a:	22 0f       	add	r18, r18
   13a5c:	23 0f       	add	r18, r19
		home_temp_fraction = (home_temp_fraction>>4);//  16    0.0625
   13a5e:	22 95       	swap	r18
   13a60:	2f 70       	andi	r18, 0x0F	; 15
   13a62:	20 93 7e 04 	sts	0x047E, r18	; 0x80047e <home_temp_fraction>
		home_temp_integer = ((~(tt))&0x07FF)>>4;
   13a66:	80 95       	com	r24
   13a68:	90 95       	com	r25
   13a6a:	97 70       	andi	r25, 0x07	; 7
   13a6c:	95 95       	asr	r25
   13a6e:	87 95       	ror	r24
   13a70:	95 95       	asr	r25
   13a72:	87 95       	ror	r24
   13a74:	95 95       	asr	r25
   13a76:	87 95       	ror	r24
   13a78:	95 95       	asr	r25
   13a7a:	87 95       	ror	r24
   13a7c:	80 93 85 04 	sts	0x0485, r24	; 0x800485 <home_temp_integer>
	/*long int hum = 0;
	hum = HTU21D_get_humidity();
	hum = (hum*125)/65536 - 6;
	home_hum_integer = hum;*/
	
	wdt_reset();
   13a80:	a8 95       	wdr
   13a82:	08 95       	ret

00013a84 <__mulsi3>:
   13a84:	db 01       	movw	r26, r22
   13a86:	8f 93       	push	r24
   13a88:	9f 93       	push	r25
   13a8a:	64 d0       	rcall	.+200    	; 0x13b54 <__muluhisi3>
   13a8c:	bf 91       	pop	r27
   13a8e:	af 91       	pop	r26
   13a90:	a2 9f       	mul	r26, r18
   13a92:	80 0d       	add	r24, r0
   13a94:	91 1d       	adc	r25, r1
   13a96:	a3 9f       	mul	r26, r19
   13a98:	90 0d       	add	r25, r0
   13a9a:	b2 9f       	mul	r27, r18
   13a9c:	90 0d       	add	r25, r0
   13a9e:	11 24       	eor	r1, r1
   13aa0:	08 95       	ret

00013aa2 <__divmodhi4>:
   13aa2:	97 fb       	bst	r25, 7
   13aa4:	07 2e       	mov	r0, r23
   13aa6:	16 f4       	brtc	.+4      	; 0x13aac <__divmodhi4+0xa>
   13aa8:	00 94       	com	r0
   13aaa:	06 d0       	rcall	.+12     	; 0x13ab8 <__divmodhi4_neg1>
   13aac:	77 fd       	sbrc	r23, 7
   13aae:	08 d0       	rcall	.+16     	; 0x13ac0 <__divmodhi4_neg2>
   13ab0:	61 d0       	rcall	.+194    	; 0x13b74 <__udivmodhi4>
   13ab2:	07 fc       	sbrc	r0, 7
   13ab4:	05 d0       	rcall	.+10     	; 0x13ac0 <__divmodhi4_neg2>
   13ab6:	3e f4       	brtc	.+14     	; 0x13ac6 <__divmodhi4_exit>

00013ab8 <__divmodhi4_neg1>:
   13ab8:	90 95       	com	r25
   13aba:	81 95       	neg	r24
   13abc:	9f 4f       	sbci	r25, 0xFF	; 255
   13abe:	08 95       	ret

00013ac0 <__divmodhi4_neg2>:
   13ac0:	70 95       	com	r23
   13ac2:	61 95       	neg	r22
   13ac4:	7f 4f       	sbci	r23, 0xFF	; 255

00013ac6 <__divmodhi4_exit>:
   13ac6:	08 95       	ret

00013ac8 <__udivmodsi4>:
   13ac8:	a1 e2       	ldi	r26, 0x21	; 33
   13aca:	1a 2e       	mov	r1, r26
   13acc:	aa 1b       	sub	r26, r26
   13ace:	bb 1b       	sub	r27, r27
   13ad0:	fd 01       	movw	r30, r26
   13ad2:	0d c0       	rjmp	.+26     	; 0x13aee <__udivmodsi4_ep>

00013ad4 <__udivmodsi4_loop>:
   13ad4:	aa 1f       	adc	r26, r26
   13ad6:	bb 1f       	adc	r27, r27
   13ad8:	ee 1f       	adc	r30, r30
   13ada:	ff 1f       	adc	r31, r31
   13adc:	a2 17       	cp	r26, r18
   13ade:	b3 07       	cpc	r27, r19
   13ae0:	e4 07       	cpc	r30, r20
   13ae2:	f5 07       	cpc	r31, r21
   13ae4:	20 f0       	brcs	.+8      	; 0x13aee <__udivmodsi4_ep>
   13ae6:	a2 1b       	sub	r26, r18
   13ae8:	b3 0b       	sbc	r27, r19
   13aea:	e4 0b       	sbc	r30, r20
   13aec:	f5 0b       	sbc	r31, r21

00013aee <__udivmodsi4_ep>:
   13aee:	66 1f       	adc	r22, r22
   13af0:	77 1f       	adc	r23, r23
   13af2:	88 1f       	adc	r24, r24
   13af4:	99 1f       	adc	r25, r25
   13af6:	1a 94       	dec	r1
   13af8:	69 f7       	brne	.-38     	; 0x13ad4 <__udivmodsi4_loop>
   13afa:	60 95       	com	r22
   13afc:	70 95       	com	r23
   13afe:	80 95       	com	r24
   13b00:	90 95       	com	r25
   13b02:	9b 01       	movw	r18, r22
   13b04:	ac 01       	movw	r20, r24
   13b06:	bd 01       	movw	r22, r26
   13b08:	cf 01       	movw	r24, r30
   13b0a:	08 95       	ret

00013b0c <__divmodsi4>:
   13b0c:	05 2e       	mov	r0, r21
   13b0e:	97 fb       	bst	r25, 7
   13b10:	16 f4       	brtc	.+4      	; 0x13b16 <__divmodsi4+0xa>
   13b12:	00 94       	com	r0
   13b14:	0f d0       	rcall	.+30     	; 0x13b34 <__negsi2>
   13b16:	57 fd       	sbrc	r21, 7
   13b18:	05 d0       	rcall	.+10     	; 0x13b24 <__divmodsi4_neg2>
   13b1a:	d6 df       	rcall	.-84     	; 0x13ac8 <__udivmodsi4>
   13b1c:	07 fc       	sbrc	r0, 7
   13b1e:	02 d0       	rcall	.+4      	; 0x13b24 <__divmodsi4_neg2>
   13b20:	46 f4       	brtc	.+16     	; 0x13b32 <__divmodsi4_exit>
   13b22:	08 c0       	rjmp	.+16     	; 0x13b34 <__negsi2>

00013b24 <__divmodsi4_neg2>:
   13b24:	50 95       	com	r21
   13b26:	40 95       	com	r20
   13b28:	30 95       	com	r19
   13b2a:	21 95       	neg	r18
   13b2c:	3f 4f       	sbci	r19, 0xFF	; 255
   13b2e:	4f 4f       	sbci	r20, 0xFF	; 255
   13b30:	5f 4f       	sbci	r21, 0xFF	; 255

00013b32 <__divmodsi4_exit>:
   13b32:	08 95       	ret

00013b34 <__negsi2>:
   13b34:	90 95       	com	r25
   13b36:	80 95       	com	r24
   13b38:	70 95       	com	r23
   13b3a:	61 95       	neg	r22
   13b3c:	7f 4f       	sbci	r23, 0xFF	; 255
   13b3e:	8f 4f       	sbci	r24, 0xFF	; 255
   13b40:	9f 4f       	sbci	r25, 0xFF	; 255
   13b42:	08 95       	ret

00013b44 <__tablejump2__>:
   13b44:	ee 0f       	add	r30, r30
   13b46:	ff 1f       	adc	r31, r31
   13b48:	88 1f       	adc	r24, r24
   13b4a:	8b bf       	out	0x3b, r24	; 59
   13b4c:	07 90       	elpm	r0, Z+
   13b4e:	f6 91       	elpm	r31, Z
   13b50:	e0 2d       	mov	r30, r0
   13b52:	19 94       	eijmp

00013b54 <__muluhisi3>:
   13b54:	23 d0       	rcall	.+70     	; 0x13b9c <__umulhisi3>
   13b56:	a5 9f       	mul	r26, r21
   13b58:	90 0d       	add	r25, r0
   13b5a:	b4 9f       	mul	r27, r20
   13b5c:	90 0d       	add	r25, r0
   13b5e:	a4 9f       	mul	r26, r20
   13b60:	80 0d       	add	r24, r0
   13b62:	91 1d       	adc	r25, r1
   13b64:	11 24       	eor	r1, r1
   13b66:	08 95       	ret

00013b68 <__mulshisi3>:
   13b68:	b7 ff       	sbrs	r27, 7
   13b6a:	f4 cf       	rjmp	.-24     	; 0x13b54 <__muluhisi3>

00013b6c <__mulohisi3>:
   13b6c:	f3 df       	rcall	.-26     	; 0x13b54 <__muluhisi3>
   13b6e:	82 1b       	sub	r24, r18
   13b70:	93 0b       	sbc	r25, r19
   13b72:	08 95       	ret

00013b74 <__udivmodhi4>:
   13b74:	aa 1b       	sub	r26, r26
   13b76:	bb 1b       	sub	r27, r27
   13b78:	51 e1       	ldi	r21, 0x11	; 17
   13b7a:	07 c0       	rjmp	.+14     	; 0x13b8a <__udivmodhi4_ep>

00013b7c <__udivmodhi4_loop>:
   13b7c:	aa 1f       	adc	r26, r26
   13b7e:	bb 1f       	adc	r27, r27
   13b80:	a6 17       	cp	r26, r22
   13b82:	b7 07       	cpc	r27, r23
   13b84:	10 f0       	brcs	.+4      	; 0x13b8a <__udivmodhi4_ep>
   13b86:	a6 1b       	sub	r26, r22
   13b88:	b7 0b       	sbc	r27, r23

00013b8a <__udivmodhi4_ep>:
   13b8a:	88 1f       	adc	r24, r24
   13b8c:	99 1f       	adc	r25, r25
   13b8e:	5a 95       	dec	r21
   13b90:	a9 f7       	brne	.-22     	; 0x13b7c <__udivmodhi4_loop>
   13b92:	80 95       	com	r24
   13b94:	90 95       	com	r25
   13b96:	bc 01       	movw	r22, r24
   13b98:	cd 01       	movw	r24, r26
   13b9a:	08 95       	ret

00013b9c <__umulhisi3>:
   13b9c:	a2 9f       	mul	r26, r18
   13b9e:	b0 01       	movw	r22, r0
   13ba0:	b3 9f       	mul	r27, r19
   13ba2:	c0 01       	movw	r24, r0
   13ba4:	a3 9f       	mul	r26, r19
   13ba6:	70 0d       	add	r23, r0
   13ba8:	81 1d       	adc	r24, r1
   13baa:	11 24       	eor	r1, r1
   13bac:	91 1d       	adc	r25, r1
   13bae:	b2 9f       	mul	r27, r18
   13bb0:	70 0d       	add	r23, r0
   13bb2:	81 1d       	adc	r24, r1
   13bb4:	11 24       	eor	r1, r1
   13bb6:	91 1d       	adc	r25, r1
   13bb8:	08 95       	ret

00013bba <strtol>:
   13bba:	3f 92       	push	r3
   13bbc:	4f 92       	push	r4
   13bbe:	5f 92       	push	r5
   13bc0:	6f 92       	push	r6
   13bc2:	7f 92       	push	r7
   13bc4:	8f 92       	push	r8
   13bc6:	9f 92       	push	r9
   13bc8:	af 92       	push	r10
   13bca:	bf 92       	push	r11
   13bcc:	cf 92       	push	r12
   13bce:	df 92       	push	r13
   13bd0:	ef 92       	push	r14
   13bd2:	ff 92       	push	r15
   13bd4:	0f 93       	push	r16
   13bd6:	1f 93       	push	r17
   13bd8:	cf 93       	push	r28
   13bda:	df 93       	push	r29
   13bdc:	5c 01       	movw	r10, r24
   13bde:	6b 01       	movw	r12, r22
   13be0:	7a 01       	movw	r14, r20
   13be2:	61 15       	cp	r22, r1
   13be4:	71 05       	cpc	r23, r1
   13be6:	19 f0       	breq	.+6      	; 0x13bee <strtol+0x34>
   13be8:	fb 01       	movw	r30, r22
   13bea:	91 83       	std	Z+1, r25	; 0x01
   13bec:	80 83       	st	Z, r24
   13bee:	e1 14       	cp	r14, r1
   13bf0:	f1 04       	cpc	r15, r1
   13bf2:	29 f0       	breq	.+10     	; 0x13bfe <strtol+0x44>
   13bf4:	c7 01       	movw	r24, r14
   13bf6:	02 97       	sbiw	r24, 0x02	; 2
   13bf8:	83 97       	sbiw	r24, 0x23	; 35
   13bfa:	08 f0       	brcs	.+2      	; 0x13bfe <strtol+0x44>
   13bfc:	e2 c0       	rjmp	.+452    	; 0x13dc2 <strtol+0x208>
   13bfe:	e5 01       	movw	r28, r10
   13c00:	21 96       	adiw	r28, 0x01	; 1
   13c02:	f5 01       	movw	r30, r10
   13c04:	10 81       	ld	r17, Z
   13c06:	81 2f       	mov	r24, r17
   13c08:	90 e0       	ldi	r25, 0x00	; 0
   13c0a:	02 d1       	rcall	.+516    	; 0x13e10 <isspace>
   13c0c:	89 2b       	or	r24, r25
   13c0e:	11 f0       	breq	.+4      	; 0x13c14 <strtol+0x5a>
   13c10:	5e 01       	movw	r10, r28
   13c12:	f5 cf       	rjmp	.-22     	; 0x13bfe <strtol+0x44>
   13c14:	1d 32       	cpi	r17, 0x2D	; 45
   13c16:	29 f4       	brne	.+10     	; 0x13c22 <strtol+0x68>
   13c18:	21 96       	adiw	r28, 0x01	; 1
   13c1a:	f5 01       	movw	r30, r10
   13c1c:	11 81       	ldd	r17, Z+1	; 0x01
   13c1e:	01 e0       	ldi	r16, 0x01	; 1
   13c20:	07 c0       	rjmp	.+14     	; 0x13c30 <strtol+0x76>
   13c22:	1b 32       	cpi	r17, 0x2B	; 43
   13c24:	21 f4       	brne	.+8      	; 0x13c2e <strtol+0x74>
   13c26:	e5 01       	movw	r28, r10
   13c28:	22 96       	adiw	r28, 0x02	; 2
   13c2a:	f5 01       	movw	r30, r10
   13c2c:	11 81       	ldd	r17, Z+1	; 0x01
   13c2e:	00 e0       	ldi	r16, 0x00	; 0
   13c30:	e1 14       	cp	r14, r1
   13c32:	f1 04       	cpc	r15, r1
   13c34:	09 f1       	breq	.+66     	; 0x13c78 <strtol+0xbe>
   13c36:	f0 e1       	ldi	r31, 0x10	; 16
   13c38:	ef 16       	cp	r14, r31
   13c3a:	f1 04       	cpc	r15, r1
   13c3c:	29 f4       	brne	.+10     	; 0x13c48 <strtol+0x8e>
   13c3e:	3e c0       	rjmp	.+124    	; 0x13cbc <strtol+0x102>
   13c40:	10 e3       	ldi	r17, 0x30	; 48
   13c42:	e1 14       	cp	r14, r1
   13c44:	f1 04       	cpc	r15, r1
   13c46:	21 f1       	breq	.+72     	; 0x13c90 <strtol+0xd6>
   13c48:	28 e0       	ldi	r18, 0x08	; 8
   13c4a:	e2 16       	cp	r14, r18
   13c4c:	f1 04       	cpc	r15, r1
   13c4e:	01 f1       	breq	.+64     	; 0x13c90 <strtol+0xd6>
   13c50:	54 f4       	brge	.+20     	; 0x13c66 <strtol+0xac>
   13c52:	e2 e0       	ldi	r30, 0x02	; 2
   13c54:	ee 16       	cp	r14, r30
   13c56:	f1 04       	cpc	r15, r1
   13c58:	21 f5       	brne	.+72     	; 0x13ca2 <strtol+0xe8>
   13c5a:	81 2c       	mov	r8, r1
   13c5c:	91 2c       	mov	r9, r1
   13c5e:	a1 2c       	mov	r10, r1
   13c60:	b0 e4       	ldi	r27, 0x40	; 64
   13c62:	bb 2e       	mov	r11, r27
   13c64:	3d c0       	rjmp	.+122    	; 0x13ce0 <strtol+0x126>
   13c66:	fa e0       	ldi	r31, 0x0A	; 10
   13c68:	ef 16       	cp	r14, r31
   13c6a:	f1 04       	cpc	r15, r1
   13c6c:	39 f0       	breq	.+14     	; 0x13c7c <strtol+0xc2>
   13c6e:	20 e1       	ldi	r18, 0x10	; 16
   13c70:	e2 16       	cp	r14, r18
   13c72:	f1 04       	cpc	r15, r1
   13c74:	b1 f4       	brne	.+44     	; 0x13ca2 <strtol+0xe8>
   13c76:	2f c0       	rjmp	.+94     	; 0x13cd6 <strtol+0x11c>
   13c78:	10 33       	cpi	r17, 0x30	; 48
   13c7a:	11 f1       	breq	.+68     	; 0x13cc0 <strtol+0x106>
   13c7c:	fa e0       	ldi	r31, 0x0A	; 10
   13c7e:	ef 2e       	mov	r14, r31
   13c80:	f1 2c       	mov	r15, r1
   13c82:	ac ec       	ldi	r26, 0xCC	; 204
   13c84:	8a 2e       	mov	r8, r26
   13c86:	98 2c       	mov	r9, r8
   13c88:	a8 2c       	mov	r10, r8
   13c8a:	ac e0       	ldi	r26, 0x0C	; 12
   13c8c:	ba 2e       	mov	r11, r26
   13c8e:	28 c0       	rjmp	.+80     	; 0x13ce0 <strtol+0x126>
   13c90:	78 e0       	ldi	r23, 0x08	; 8
   13c92:	e7 2e       	mov	r14, r23
   13c94:	f1 2c       	mov	r15, r1
   13c96:	81 2c       	mov	r8, r1
   13c98:	91 2c       	mov	r9, r1
   13c9a:	a1 2c       	mov	r10, r1
   13c9c:	e0 e1       	ldi	r30, 0x10	; 16
   13c9e:	be 2e       	mov	r11, r30
   13ca0:	1f c0       	rjmp	.+62     	; 0x13ce0 <strtol+0x126>
   13ca2:	60 e0       	ldi	r22, 0x00	; 0
   13ca4:	70 e0       	ldi	r23, 0x00	; 0
   13ca6:	80 e0       	ldi	r24, 0x00	; 0
   13ca8:	90 e8       	ldi	r25, 0x80	; 128
   13caa:	97 01       	movw	r18, r14
   13cac:	0f 2c       	mov	r0, r15
   13cae:	00 0c       	add	r0, r0
   13cb0:	44 0b       	sbc	r20, r20
   13cb2:	55 0b       	sbc	r21, r21
   13cb4:	09 df       	rcall	.-494    	; 0x13ac8 <__udivmodsi4>
   13cb6:	49 01       	movw	r8, r18
   13cb8:	5a 01       	movw	r10, r20
   13cba:	12 c0       	rjmp	.+36     	; 0x13ce0 <strtol+0x126>
   13cbc:	10 33       	cpi	r17, 0x30	; 48
   13cbe:	59 f4       	brne	.+22     	; 0x13cd6 <strtol+0x11c>
   13cc0:	88 81       	ld	r24, Y
   13cc2:	8f 7d       	andi	r24, 0xDF	; 223
   13cc4:	88 35       	cpi	r24, 0x58	; 88
   13cc6:	09 f0       	breq	.+2      	; 0x13cca <strtol+0x110>
   13cc8:	bb cf       	rjmp	.-138    	; 0x13c40 <strtol+0x86>
   13cca:	19 81       	ldd	r17, Y+1	; 0x01
   13ccc:	22 96       	adiw	r28, 0x02	; 2
   13cce:	02 60       	ori	r16, 0x02	; 2
   13cd0:	80 e1       	ldi	r24, 0x10	; 16
   13cd2:	e8 2e       	mov	r14, r24
   13cd4:	f1 2c       	mov	r15, r1
   13cd6:	81 2c       	mov	r8, r1
   13cd8:	91 2c       	mov	r9, r1
   13cda:	a1 2c       	mov	r10, r1
   13cdc:	68 e0       	ldi	r22, 0x08	; 8
   13cde:	b6 2e       	mov	r11, r22
   13ce0:	40 e0       	ldi	r20, 0x00	; 0
   13ce2:	60 e0       	ldi	r22, 0x00	; 0
   13ce4:	70 e0       	ldi	r23, 0x00	; 0
   13ce6:	cb 01       	movw	r24, r22
   13ce8:	27 01       	movw	r4, r14
   13cea:	0f 2c       	mov	r0, r15
   13cec:	00 0c       	add	r0, r0
   13cee:	66 08       	sbc	r6, r6
   13cf0:	77 08       	sbc	r7, r7
   13cf2:	fe 01       	movw	r30, r28
   13cf4:	50 ed       	ldi	r21, 0xD0	; 208
   13cf6:	35 2e       	mov	r3, r21
   13cf8:	31 0e       	add	r3, r17
   13cfa:	29 e0       	ldi	r18, 0x09	; 9
   13cfc:	23 15       	cp	r18, r3
   13cfe:	70 f4       	brcc	.+28     	; 0x13d1c <strtol+0x162>
   13d00:	2f eb       	ldi	r18, 0xBF	; 191
   13d02:	21 0f       	add	r18, r17
   13d04:	2a 31       	cpi	r18, 0x1A	; 26
   13d06:	18 f4       	brcc	.+6      	; 0x13d0e <strtol+0x154>
   13d08:	39 ec       	ldi	r19, 0xC9	; 201
   13d0a:	33 2e       	mov	r3, r19
   13d0c:	06 c0       	rjmp	.+12     	; 0x13d1a <strtol+0x160>
   13d0e:	2f e9       	ldi	r18, 0x9F	; 159
   13d10:	21 0f       	add	r18, r17
   13d12:	2a 31       	cpi	r18, 0x1A	; 26
   13d14:	10 f5       	brcc	.+68     	; 0x13d5a <strtol+0x1a0>
   13d16:	29 ea       	ldi	r18, 0xA9	; 169
   13d18:	32 2e       	mov	r3, r18
   13d1a:	31 0e       	add	r3, r17
   13d1c:	23 2d       	mov	r18, r3
   13d1e:	30 e0       	ldi	r19, 0x00	; 0
   13d20:	2e 15       	cp	r18, r14
   13d22:	3f 05       	cpc	r19, r15
   13d24:	d4 f4       	brge	.+52     	; 0x13d5a <strtol+0x1a0>
   13d26:	47 fd       	sbrc	r20, 7
   13d28:	15 c0       	rjmp	.+42     	; 0x13d54 <strtol+0x19a>
   13d2a:	86 16       	cp	r8, r22
   13d2c:	97 06       	cpc	r9, r23
   13d2e:	a8 06       	cpc	r10, r24
   13d30:	b9 06       	cpc	r11, r25
   13d32:	68 f0       	brcs	.+26     	; 0x13d4e <strtol+0x194>
   13d34:	a3 01       	movw	r20, r6
   13d36:	92 01       	movw	r18, r4
   13d38:	a5 de       	rcall	.-694    	; 0x13a84 <__mulsi3>
   13d3a:	63 0d       	add	r22, r3
   13d3c:	71 1d       	adc	r23, r1
   13d3e:	81 1d       	adc	r24, r1
   13d40:	91 1d       	adc	r25, r1
   13d42:	61 30       	cpi	r22, 0x01	; 1
   13d44:	71 05       	cpc	r23, r1
   13d46:	81 05       	cpc	r24, r1
   13d48:	20 e8       	ldi	r18, 0x80	; 128
   13d4a:	92 07       	cpc	r25, r18
   13d4c:	10 f0       	brcs	.+4      	; 0x13d52 <strtol+0x198>
   13d4e:	4f ef       	ldi	r20, 0xFF	; 255
   13d50:	01 c0       	rjmp	.+2      	; 0x13d54 <strtol+0x19a>
   13d52:	41 e0       	ldi	r20, 0x01	; 1
   13d54:	21 96       	adiw	r28, 0x01	; 1
   13d56:	10 81       	ld	r17, Z
   13d58:	cc cf       	rjmp	.-104    	; 0x13cf2 <strtol+0x138>
   13d5a:	20 2f       	mov	r18, r16
   13d5c:	21 70       	andi	r18, 0x01	; 1
   13d5e:	c1 14       	cp	r12, r1
   13d60:	d1 04       	cpc	r13, r1
   13d62:	71 f0       	breq	.+28     	; 0x13d80 <strtol+0x1c6>
   13d64:	44 23       	and	r20, r20
   13d66:	29 f0       	breq	.+10     	; 0x13d72 <strtol+0x1b8>
   13d68:	21 97       	sbiw	r28, 0x01	; 1
   13d6a:	f6 01       	movw	r30, r12
   13d6c:	d1 83       	std	Z+1, r29	; 0x01
   13d6e:	c0 83       	st	Z, r28
   13d70:	07 c0       	rjmp	.+14     	; 0x13d80 <strtol+0x1c6>
   13d72:	01 ff       	sbrs	r16, 1
   13d74:	19 c0       	rjmp	.+50     	; 0x13da8 <strtol+0x1ee>
   13d76:	22 97       	sbiw	r28, 0x02	; 2
   13d78:	f6 01       	movw	r30, r12
   13d7a:	d1 83       	std	Z+1, r29	; 0x01
   13d7c:	c0 83       	st	Z, r28
   13d7e:	14 c0       	rjmp	.+40     	; 0x13da8 <strtol+0x1ee>
   13d80:	47 ff       	sbrs	r20, 7
   13d82:	12 c0       	rjmp	.+36     	; 0x13da8 <strtol+0x1ee>
   13d84:	22 23       	and	r18, r18
   13d86:	29 f0       	breq	.+10     	; 0x13d92 <strtol+0x1d8>
   13d88:	60 e0       	ldi	r22, 0x00	; 0
   13d8a:	70 e0       	ldi	r23, 0x00	; 0
   13d8c:	80 e0       	ldi	r24, 0x00	; 0
   13d8e:	90 e8       	ldi	r25, 0x80	; 128
   13d90:	04 c0       	rjmp	.+8      	; 0x13d9a <strtol+0x1e0>
   13d92:	6f ef       	ldi	r22, 0xFF	; 255
   13d94:	7f ef       	ldi	r23, 0xFF	; 255
   13d96:	8f ef       	ldi	r24, 0xFF	; 255
   13d98:	9f e7       	ldi	r25, 0x7F	; 127
   13d9a:	22 e2       	ldi	r18, 0x22	; 34
   13d9c:	30 e0       	ldi	r19, 0x00	; 0
   13d9e:	30 93 ac 04 	sts	0x04AC, r19	; 0x8004ac <errno+0x1>
   13da2:	20 93 ab 04 	sts	0x04AB, r18	; 0x8004ab <errno>
   13da6:	09 c0       	rjmp	.+18     	; 0x13dba <strtol+0x200>
   13da8:	22 23       	and	r18, r18
   13daa:	81 f0       	breq	.+32     	; 0x13dcc <strtol+0x212>
   13dac:	90 95       	com	r25
   13dae:	80 95       	com	r24
   13db0:	70 95       	com	r23
   13db2:	61 95       	neg	r22
   13db4:	7f 4f       	sbci	r23, 0xFF	; 255
   13db6:	8f 4f       	sbci	r24, 0xFF	; 255
   13db8:	9f 4f       	sbci	r25, 0xFF	; 255
   13dba:	46 2f       	mov	r20, r22
   13dbc:	37 2f       	mov	r19, r23
   13dbe:	28 2f       	mov	r18, r24
   13dc0:	12 c0       	rjmp	.+36     	; 0x13de6 <strtol+0x22c>
   13dc2:	40 e0       	ldi	r20, 0x00	; 0
   13dc4:	30 e0       	ldi	r19, 0x00	; 0
   13dc6:	20 e0       	ldi	r18, 0x00	; 0
   13dc8:	90 e0       	ldi	r25, 0x00	; 0
   13dca:	0d c0       	rjmp	.+26     	; 0x13de6 <strtol+0x22c>
   13dcc:	97 ff       	sbrs	r25, 7
   13dce:	f5 cf       	rjmp	.-22     	; 0x13dba <strtol+0x200>
   13dd0:	82 e2       	ldi	r24, 0x22	; 34
   13dd2:	90 e0       	ldi	r25, 0x00	; 0
   13dd4:	90 93 ac 04 	sts	0x04AC, r25	; 0x8004ac <errno+0x1>
   13dd8:	80 93 ab 04 	sts	0x04AB, r24	; 0x8004ab <errno>
   13ddc:	6f ef       	ldi	r22, 0xFF	; 255
   13dde:	7f ef       	ldi	r23, 0xFF	; 255
   13de0:	8f ef       	ldi	r24, 0xFF	; 255
   13de2:	9f e7       	ldi	r25, 0x7F	; 127
   13de4:	ea cf       	rjmp	.-44     	; 0x13dba <strtol+0x200>
   13de6:	64 2f       	mov	r22, r20
   13de8:	73 2f       	mov	r23, r19
   13dea:	82 2f       	mov	r24, r18
   13dec:	df 91       	pop	r29
   13dee:	cf 91       	pop	r28
   13df0:	1f 91       	pop	r17
   13df2:	0f 91       	pop	r16
   13df4:	ff 90       	pop	r15
   13df6:	ef 90       	pop	r14
   13df8:	df 90       	pop	r13
   13dfa:	cf 90       	pop	r12
   13dfc:	bf 90       	pop	r11
   13dfe:	af 90       	pop	r10
   13e00:	9f 90       	pop	r9
   13e02:	8f 90       	pop	r8
   13e04:	7f 90       	pop	r7
   13e06:	6f 90       	pop	r6
   13e08:	5f 90       	pop	r5
   13e0a:	4f 90       	pop	r4
   13e0c:	3f 90       	pop	r3
   13e0e:	08 95       	ret

00013e10 <isspace>:
   13e10:	91 11       	cpse	r25, r1
   13e12:	41 c2       	rjmp	.+1154   	; 0x14296 <__ctype_isfalse>
   13e14:	80 32       	cpi	r24, 0x20	; 32
   13e16:	19 f0       	breq	.+6      	; 0x13e1e <isspace+0xe>
   13e18:	89 50       	subi	r24, 0x09	; 9
   13e1a:	85 50       	subi	r24, 0x05	; 5
   13e1c:	d0 f7       	brcc	.-12     	; 0x13e12 <isspace+0x2>
   13e1e:	08 95       	ret

00013e20 <memset>:
   13e20:	dc 01       	movw	r26, r24
   13e22:	01 c0       	rjmp	.+2      	; 0x13e26 <memset+0x6>
   13e24:	6d 93       	st	X+, r22
   13e26:	41 50       	subi	r20, 0x01	; 1
   13e28:	50 40       	sbci	r21, 0x00	; 0
   13e2a:	e0 f7       	brcc	.-8      	; 0x13e24 <memset+0x4>
   13e2c:	08 95       	ret

00013e2e <strcmp>:
   13e2e:	fb 01       	movw	r30, r22
   13e30:	dc 01       	movw	r26, r24
   13e32:	8d 91       	ld	r24, X+
   13e34:	01 90       	ld	r0, Z+
   13e36:	80 19       	sub	r24, r0
   13e38:	01 10       	cpse	r0, r1
   13e3a:	d9 f3       	breq	.-10     	; 0x13e32 <strcmp+0x4>
   13e3c:	99 0b       	sbc	r25, r25
   13e3e:	08 95       	ret

00013e40 <sprintf>:
   13e40:	0f 93       	push	r16
   13e42:	1f 93       	push	r17
   13e44:	cf 93       	push	r28
   13e46:	df 93       	push	r29
   13e48:	cd b7       	in	r28, 0x3d	; 61
   13e4a:	de b7       	in	r29, 0x3e	; 62
   13e4c:	2e 97       	sbiw	r28, 0x0e	; 14
   13e4e:	0f b6       	in	r0, 0x3f	; 63
   13e50:	f8 94       	cli
   13e52:	de bf       	out	0x3e, r29	; 62
   13e54:	0f be       	out	0x3f, r0	; 63
   13e56:	cd bf       	out	0x3d, r28	; 61
   13e58:	0e 89       	ldd	r16, Y+22	; 0x16
   13e5a:	1f 89       	ldd	r17, Y+23	; 0x17
   13e5c:	86 e0       	ldi	r24, 0x06	; 6
   13e5e:	8c 83       	std	Y+4, r24	; 0x04
   13e60:	1a 83       	std	Y+2, r17	; 0x02
   13e62:	09 83       	std	Y+1, r16	; 0x01
   13e64:	8f ef       	ldi	r24, 0xFF	; 255
   13e66:	9f e7       	ldi	r25, 0x7F	; 127
   13e68:	9e 83       	std	Y+6, r25	; 0x06
   13e6a:	8d 83       	std	Y+5, r24	; 0x05
   13e6c:	ae 01       	movw	r20, r28
   13e6e:	46 5e       	subi	r20, 0xE6	; 230
   13e70:	5f 4f       	sbci	r21, 0xFF	; 255
   13e72:	68 8d       	ldd	r22, Y+24	; 0x18
   13e74:	79 8d       	ldd	r23, Y+25	; 0x19
   13e76:	ce 01       	movw	r24, r28
   13e78:	01 96       	adiw	r24, 0x01	; 1
   13e7a:	10 d0       	rcall	.+32     	; 0x13e9c <vfprintf>
   13e7c:	ef 81       	ldd	r30, Y+7	; 0x07
   13e7e:	f8 85       	ldd	r31, Y+8	; 0x08
   13e80:	e0 0f       	add	r30, r16
   13e82:	f1 1f       	adc	r31, r17
   13e84:	10 82       	st	Z, r1
   13e86:	2e 96       	adiw	r28, 0x0e	; 14
   13e88:	0f b6       	in	r0, 0x3f	; 63
   13e8a:	f8 94       	cli
   13e8c:	de bf       	out	0x3e, r29	; 62
   13e8e:	0f be       	out	0x3f, r0	; 63
   13e90:	cd bf       	out	0x3d, r28	; 61
   13e92:	df 91       	pop	r29
   13e94:	cf 91       	pop	r28
   13e96:	1f 91       	pop	r17
   13e98:	0f 91       	pop	r16
   13e9a:	08 95       	ret

00013e9c <vfprintf>:
   13e9c:	2f 92       	push	r2
   13e9e:	3f 92       	push	r3
   13ea0:	4f 92       	push	r4
   13ea2:	5f 92       	push	r5
   13ea4:	6f 92       	push	r6
   13ea6:	7f 92       	push	r7
   13ea8:	8f 92       	push	r8
   13eaa:	9f 92       	push	r9
   13eac:	af 92       	push	r10
   13eae:	bf 92       	push	r11
   13eb0:	cf 92       	push	r12
   13eb2:	df 92       	push	r13
   13eb4:	ef 92       	push	r14
   13eb6:	ff 92       	push	r15
   13eb8:	0f 93       	push	r16
   13eba:	1f 93       	push	r17
   13ebc:	cf 93       	push	r28
   13ebe:	df 93       	push	r29
   13ec0:	cd b7       	in	r28, 0x3d	; 61
   13ec2:	de b7       	in	r29, 0x3e	; 62
   13ec4:	2b 97       	sbiw	r28, 0x0b	; 11
   13ec6:	0f b6       	in	r0, 0x3f	; 63
   13ec8:	f8 94       	cli
   13eca:	de bf       	out	0x3e, r29	; 62
   13ecc:	0f be       	out	0x3f, r0	; 63
   13ece:	cd bf       	out	0x3d, r28	; 61
   13ed0:	6c 01       	movw	r12, r24
   13ed2:	7b 01       	movw	r14, r22
   13ed4:	8a 01       	movw	r16, r20
   13ed6:	fc 01       	movw	r30, r24
   13ed8:	17 82       	std	Z+7, r1	; 0x07
   13eda:	16 82       	std	Z+6, r1	; 0x06
   13edc:	83 81       	ldd	r24, Z+3	; 0x03
   13ede:	81 ff       	sbrs	r24, 1
   13ee0:	bf c1       	rjmp	.+894    	; 0x14260 <vfprintf+0x3c4>
   13ee2:	ce 01       	movw	r24, r28
   13ee4:	01 96       	adiw	r24, 0x01	; 1
   13ee6:	3c 01       	movw	r6, r24
   13ee8:	f6 01       	movw	r30, r12
   13eea:	93 81       	ldd	r25, Z+3	; 0x03
   13eec:	f7 01       	movw	r30, r14
   13eee:	93 fd       	sbrc	r25, 3
   13ef0:	85 91       	lpm	r24, Z+
   13ef2:	93 ff       	sbrs	r25, 3
   13ef4:	81 91       	ld	r24, Z+
   13ef6:	7f 01       	movw	r14, r30
   13ef8:	88 23       	and	r24, r24
   13efa:	09 f4       	brne	.+2      	; 0x13efe <vfprintf+0x62>
   13efc:	ad c1       	rjmp	.+858    	; 0x14258 <vfprintf+0x3bc>
   13efe:	85 32       	cpi	r24, 0x25	; 37
   13f00:	39 f4       	brne	.+14     	; 0x13f10 <vfprintf+0x74>
   13f02:	93 fd       	sbrc	r25, 3
   13f04:	85 91       	lpm	r24, Z+
   13f06:	93 ff       	sbrs	r25, 3
   13f08:	81 91       	ld	r24, Z+
   13f0a:	7f 01       	movw	r14, r30
   13f0c:	85 32       	cpi	r24, 0x25	; 37
   13f0e:	21 f4       	brne	.+8      	; 0x13f18 <vfprintf+0x7c>
   13f10:	b6 01       	movw	r22, r12
   13f12:	90 e0       	ldi	r25, 0x00	; 0
   13f14:	d9 d1       	rcall	.+946    	; 0x142c8 <fputc>
   13f16:	e8 cf       	rjmp	.-48     	; 0x13ee8 <vfprintf+0x4c>
   13f18:	91 2c       	mov	r9, r1
   13f1a:	21 2c       	mov	r2, r1
   13f1c:	31 2c       	mov	r3, r1
   13f1e:	ff e1       	ldi	r31, 0x1F	; 31
   13f20:	f3 15       	cp	r31, r3
   13f22:	d8 f0       	brcs	.+54     	; 0x13f5a <vfprintf+0xbe>
   13f24:	8b 32       	cpi	r24, 0x2B	; 43
   13f26:	79 f0       	breq	.+30     	; 0x13f46 <vfprintf+0xaa>
   13f28:	38 f4       	brcc	.+14     	; 0x13f38 <vfprintf+0x9c>
   13f2a:	80 32       	cpi	r24, 0x20	; 32
   13f2c:	79 f0       	breq	.+30     	; 0x13f4c <vfprintf+0xb0>
   13f2e:	83 32       	cpi	r24, 0x23	; 35
   13f30:	a1 f4       	brne	.+40     	; 0x13f5a <vfprintf+0xbe>
   13f32:	23 2d       	mov	r18, r3
   13f34:	20 61       	ori	r18, 0x10	; 16
   13f36:	1d c0       	rjmp	.+58     	; 0x13f72 <vfprintf+0xd6>
   13f38:	8d 32       	cpi	r24, 0x2D	; 45
   13f3a:	61 f0       	breq	.+24     	; 0x13f54 <vfprintf+0xb8>
   13f3c:	80 33       	cpi	r24, 0x30	; 48
   13f3e:	69 f4       	brne	.+26     	; 0x13f5a <vfprintf+0xbe>
   13f40:	23 2d       	mov	r18, r3
   13f42:	21 60       	ori	r18, 0x01	; 1
   13f44:	16 c0       	rjmp	.+44     	; 0x13f72 <vfprintf+0xd6>
   13f46:	83 2d       	mov	r24, r3
   13f48:	82 60       	ori	r24, 0x02	; 2
   13f4a:	38 2e       	mov	r3, r24
   13f4c:	e3 2d       	mov	r30, r3
   13f4e:	e4 60       	ori	r30, 0x04	; 4
   13f50:	3e 2e       	mov	r3, r30
   13f52:	2a c0       	rjmp	.+84     	; 0x13fa8 <vfprintf+0x10c>
   13f54:	f3 2d       	mov	r31, r3
   13f56:	f8 60       	ori	r31, 0x08	; 8
   13f58:	1d c0       	rjmp	.+58     	; 0x13f94 <vfprintf+0xf8>
   13f5a:	37 fc       	sbrc	r3, 7
   13f5c:	2d c0       	rjmp	.+90     	; 0x13fb8 <vfprintf+0x11c>
   13f5e:	20 ed       	ldi	r18, 0xD0	; 208
   13f60:	28 0f       	add	r18, r24
   13f62:	2a 30       	cpi	r18, 0x0A	; 10
   13f64:	40 f0       	brcs	.+16     	; 0x13f76 <vfprintf+0xda>
   13f66:	8e 32       	cpi	r24, 0x2E	; 46
   13f68:	b9 f4       	brne	.+46     	; 0x13f98 <vfprintf+0xfc>
   13f6a:	36 fc       	sbrc	r3, 6
   13f6c:	75 c1       	rjmp	.+746    	; 0x14258 <vfprintf+0x3bc>
   13f6e:	23 2d       	mov	r18, r3
   13f70:	20 64       	ori	r18, 0x40	; 64
   13f72:	32 2e       	mov	r3, r18
   13f74:	19 c0       	rjmp	.+50     	; 0x13fa8 <vfprintf+0x10c>
   13f76:	36 fe       	sbrs	r3, 6
   13f78:	06 c0       	rjmp	.+12     	; 0x13f86 <vfprintf+0xea>
   13f7a:	8a e0       	ldi	r24, 0x0A	; 10
   13f7c:	98 9e       	mul	r9, r24
   13f7e:	20 0d       	add	r18, r0
   13f80:	11 24       	eor	r1, r1
   13f82:	92 2e       	mov	r9, r18
   13f84:	11 c0       	rjmp	.+34     	; 0x13fa8 <vfprintf+0x10c>
   13f86:	ea e0       	ldi	r30, 0x0A	; 10
   13f88:	2e 9e       	mul	r2, r30
   13f8a:	20 0d       	add	r18, r0
   13f8c:	11 24       	eor	r1, r1
   13f8e:	22 2e       	mov	r2, r18
   13f90:	f3 2d       	mov	r31, r3
   13f92:	f0 62       	ori	r31, 0x20	; 32
   13f94:	3f 2e       	mov	r3, r31
   13f96:	08 c0       	rjmp	.+16     	; 0x13fa8 <vfprintf+0x10c>
   13f98:	8c 36       	cpi	r24, 0x6C	; 108
   13f9a:	21 f4       	brne	.+8      	; 0x13fa4 <vfprintf+0x108>
   13f9c:	83 2d       	mov	r24, r3
   13f9e:	80 68       	ori	r24, 0x80	; 128
   13fa0:	38 2e       	mov	r3, r24
   13fa2:	02 c0       	rjmp	.+4      	; 0x13fa8 <vfprintf+0x10c>
   13fa4:	88 36       	cpi	r24, 0x68	; 104
   13fa6:	41 f4       	brne	.+16     	; 0x13fb8 <vfprintf+0x11c>
   13fa8:	f7 01       	movw	r30, r14
   13faa:	93 fd       	sbrc	r25, 3
   13fac:	85 91       	lpm	r24, Z+
   13fae:	93 ff       	sbrs	r25, 3
   13fb0:	81 91       	ld	r24, Z+
   13fb2:	7f 01       	movw	r14, r30
   13fb4:	81 11       	cpse	r24, r1
   13fb6:	b3 cf       	rjmp	.-154    	; 0x13f1e <vfprintf+0x82>
   13fb8:	98 2f       	mov	r25, r24
   13fba:	9f 7d       	andi	r25, 0xDF	; 223
   13fbc:	95 54       	subi	r25, 0x45	; 69
   13fbe:	93 30       	cpi	r25, 0x03	; 3
   13fc0:	28 f4       	brcc	.+10     	; 0x13fcc <vfprintf+0x130>
   13fc2:	0c 5f       	subi	r16, 0xFC	; 252
   13fc4:	1f 4f       	sbci	r17, 0xFF	; 255
   13fc6:	9f e3       	ldi	r25, 0x3F	; 63
   13fc8:	99 83       	std	Y+1, r25	; 0x01
   13fca:	0d c0       	rjmp	.+26     	; 0x13fe6 <vfprintf+0x14a>
   13fcc:	83 36       	cpi	r24, 0x63	; 99
   13fce:	31 f0       	breq	.+12     	; 0x13fdc <vfprintf+0x140>
   13fd0:	83 37       	cpi	r24, 0x73	; 115
   13fd2:	71 f0       	breq	.+28     	; 0x13ff0 <vfprintf+0x154>
   13fd4:	83 35       	cpi	r24, 0x53	; 83
   13fd6:	09 f0       	breq	.+2      	; 0x13fda <vfprintf+0x13e>
   13fd8:	55 c0       	rjmp	.+170    	; 0x14084 <vfprintf+0x1e8>
   13fda:	20 c0       	rjmp	.+64     	; 0x1401c <vfprintf+0x180>
   13fdc:	f8 01       	movw	r30, r16
   13fde:	80 81       	ld	r24, Z
   13fe0:	89 83       	std	Y+1, r24	; 0x01
   13fe2:	0e 5f       	subi	r16, 0xFE	; 254
   13fe4:	1f 4f       	sbci	r17, 0xFF	; 255
   13fe6:	88 24       	eor	r8, r8
   13fe8:	83 94       	inc	r8
   13fea:	91 2c       	mov	r9, r1
   13fec:	53 01       	movw	r10, r6
   13fee:	12 c0       	rjmp	.+36     	; 0x14014 <vfprintf+0x178>
   13ff0:	28 01       	movw	r4, r16
   13ff2:	f2 e0       	ldi	r31, 0x02	; 2
   13ff4:	4f 0e       	add	r4, r31
   13ff6:	51 1c       	adc	r5, r1
   13ff8:	f8 01       	movw	r30, r16
   13ffa:	a0 80       	ld	r10, Z
   13ffc:	b1 80       	ldd	r11, Z+1	; 0x01
   13ffe:	36 fe       	sbrs	r3, 6
   14000:	03 c0       	rjmp	.+6      	; 0x14008 <vfprintf+0x16c>
   14002:	69 2d       	mov	r22, r9
   14004:	70 e0       	ldi	r23, 0x00	; 0
   14006:	02 c0       	rjmp	.+4      	; 0x1400c <vfprintf+0x170>
   14008:	6f ef       	ldi	r22, 0xFF	; 255
   1400a:	7f ef       	ldi	r23, 0xFF	; 255
   1400c:	c5 01       	movw	r24, r10
   1400e:	51 d1       	rcall	.+674    	; 0x142b2 <strnlen>
   14010:	4c 01       	movw	r8, r24
   14012:	82 01       	movw	r16, r4
   14014:	f3 2d       	mov	r31, r3
   14016:	ff 77       	andi	r31, 0x7F	; 127
   14018:	3f 2e       	mov	r3, r31
   1401a:	15 c0       	rjmp	.+42     	; 0x14046 <vfprintf+0x1aa>
   1401c:	28 01       	movw	r4, r16
   1401e:	22 e0       	ldi	r18, 0x02	; 2
   14020:	42 0e       	add	r4, r18
   14022:	51 1c       	adc	r5, r1
   14024:	f8 01       	movw	r30, r16
   14026:	a0 80       	ld	r10, Z
   14028:	b1 80       	ldd	r11, Z+1	; 0x01
   1402a:	36 fe       	sbrs	r3, 6
   1402c:	03 c0       	rjmp	.+6      	; 0x14034 <vfprintf+0x198>
   1402e:	69 2d       	mov	r22, r9
   14030:	70 e0       	ldi	r23, 0x00	; 0
   14032:	02 c0       	rjmp	.+4      	; 0x14038 <vfprintf+0x19c>
   14034:	6f ef       	ldi	r22, 0xFF	; 255
   14036:	7f ef       	ldi	r23, 0xFF	; 255
   14038:	c5 01       	movw	r24, r10
   1403a:	30 d1       	rcall	.+608    	; 0x1429c <strnlen_P>
   1403c:	4c 01       	movw	r8, r24
   1403e:	f3 2d       	mov	r31, r3
   14040:	f0 68       	ori	r31, 0x80	; 128
   14042:	3f 2e       	mov	r3, r31
   14044:	82 01       	movw	r16, r4
   14046:	33 fc       	sbrc	r3, 3
   14048:	19 c0       	rjmp	.+50     	; 0x1407c <vfprintf+0x1e0>
   1404a:	82 2d       	mov	r24, r2
   1404c:	90 e0       	ldi	r25, 0x00	; 0
   1404e:	88 16       	cp	r8, r24
   14050:	99 06       	cpc	r9, r25
   14052:	a0 f4       	brcc	.+40     	; 0x1407c <vfprintf+0x1e0>
   14054:	b6 01       	movw	r22, r12
   14056:	80 e2       	ldi	r24, 0x20	; 32
   14058:	90 e0       	ldi	r25, 0x00	; 0
   1405a:	36 d1       	rcall	.+620    	; 0x142c8 <fputc>
   1405c:	2a 94       	dec	r2
   1405e:	f5 cf       	rjmp	.-22     	; 0x1404a <vfprintf+0x1ae>
   14060:	f5 01       	movw	r30, r10
   14062:	37 fc       	sbrc	r3, 7
   14064:	85 91       	lpm	r24, Z+
   14066:	37 fe       	sbrs	r3, 7
   14068:	81 91       	ld	r24, Z+
   1406a:	5f 01       	movw	r10, r30
   1406c:	b6 01       	movw	r22, r12
   1406e:	90 e0       	ldi	r25, 0x00	; 0
   14070:	2b d1       	rcall	.+598    	; 0x142c8 <fputc>
   14072:	21 10       	cpse	r2, r1
   14074:	2a 94       	dec	r2
   14076:	21 e0       	ldi	r18, 0x01	; 1
   14078:	82 1a       	sub	r8, r18
   1407a:	91 08       	sbc	r9, r1
   1407c:	81 14       	cp	r8, r1
   1407e:	91 04       	cpc	r9, r1
   14080:	79 f7       	brne	.-34     	; 0x14060 <vfprintf+0x1c4>
   14082:	e1 c0       	rjmp	.+450    	; 0x14246 <vfprintf+0x3aa>
   14084:	84 36       	cpi	r24, 0x64	; 100
   14086:	11 f0       	breq	.+4      	; 0x1408c <vfprintf+0x1f0>
   14088:	89 36       	cpi	r24, 0x69	; 105
   1408a:	39 f5       	brne	.+78     	; 0x140da <vfprintf+0x23e>
   1408c:	f8 01       	movw	r30, r16
   1408e:	37 fe       	sbrs	r3, 7
   14090:	07 c0       	rjmp	.+14     	; 0x140a0 <vfprintf+0x204>
   14092:	60 81       	ld	r22, Z
   14094:	71 81       	ldd	r23, Z+1	; 0x01
   14096:	82 81       	ldd	r24, Z+2	; 0x02
   14098:	93 81       	ldd	r25, Z+3	; 0x03
   1409a:	0c 5f       	subi	r16, 0xFC	; 252
   1409c:	1f 4f       	sbci	r17, 0xFF	; 255
   1409e:	08 c0       	rjmp	.+16     	; 0x140b0 <vfprintf+0x214>
   140a0:	60 81       	ld	r22, Z
   140a2:	71 81       	ldd	r23, Z+1	; 0x01
   140a4:	07 2e       	mov	r0, r23
   140a6:	00 0c       	add	r0, r0
   140a8:	88 0b       	sbc	r24, r24
   140aa:	99 0b       	sbc	r25, r25
   140ac:	0e 5f       	subi	r16, 0xFE	; 254
   140ae:	1f 4f       	sbci	r17, 0xFF	; 255
   140b0:	f3 2d       	mov	r31, r3
   140b2:	ff 76       	andi	r31, 0x6F	; 111
   140b4:	3f 2e       	mov	r3, r31
   140b6:	97 ff       	sbrs	r25, 7
   140b8:	09 c0       	rjmp	.+18     	; 0x140cc <vfprintf+0x230>
   140ba:	90 95       	com	r25
   140bc:	80 95       	com	r24
   140be:	70 95       	com	r23
   140c0:	61 95       	neg	r22
   140c2:	7f 4f       	sbci	r23, 0xFF	; 255
   140c4:	8f 4f       	sbci	r24, 0xFF	; 255
   140c6:	9f 4f       	sbci	r25, 0xFF	; 255
   140c8:	f0 68       	ori	r31, 0x80	; 128
   140ca:	3f 2e       	mov	r3, r31
   140cc:	2a e0       	ldi	r18, 0x0A	; 10
   140ce:	30 e0       	ldi	r19, 0x00	; 0
   140d0:	a3 01       	movw	r20, r6
   140d2:	36 d1       	rcall	.+620    	; 0x14340 <__ultoa_invert>
   140d4:	88 2e       	mov	r8, r24
   140d6:	86 18       	sub	r8, r6
   140d8:	44 c0       	rjmp	.+136    	; 0x14162 <vfprintf+0x2c6>
   140da:	85 37       	cpi	r24, 0x75	; 117
   140dc:	31 f4       	brne	.+12     	; 0x140ea <vfprintf+0x24e>
   140de:	23 2d       	mov	r18, r3
   140e0:	2f 7e       	andi	r18, 0xEF	; 239
   140e2:	b2 2e       	mov	r11, r18
   140e4:	2a e0       	ldi	r18, 0x0A	; 10
   140e6:	30 e0       	ldi	r19, 0x00	; 0
   140e8:	25 c0       	rjmp	.+74     	; 0x14134 <vfprintf+0x298>
   140ea:	93 2d       	mov	r25, r3
   140ec:	99 7f       	andi	r25, 0xF9	; 249
   140ee:	b9 2e       	mov	r11, r25
   140f0:	8f 36       	cpi	r24, 0x6F	; 111
   140f2:	c1 f0       	breq	.+48     	; 0x14124 <vfprintf+0x288>
   140f4:	18 f4       	brcc	.+6      	; 0x140fc <vfprintf+0x260>
   140f6:	88 35       	cpi	r24, 0x58	; 88
   140f8:	79 f0       	breq	.+30     	; 0x14118 <vfprintf+0x27c>
   140fa:	ae c0       	rjmp	.+348    	; 0x14258 <vfprintf+0x3bc>
   140fc:	80 37       	cpi	r24, 0x70	; 112
   140fe:	19 f0       	breq	.+6      	; 0x14106 <vfprintf+0x26a>
   14100:	88 37       	cpi	r24, 0x78	; 120
   14102:	21 f0       	breq	.+8      	; 0x1410c <vfprintf+0x270>
   14104:	a9 c0       	rjmp	.+338    	; 0x14258 <vfprintf+0x3bc>
   14106:	e9 2f       	mov	r30, r25
   14108:	e0 61       	ori	r30, 0x10	; 16
   1410a:	be 2e       	mov	r11, r30
   1410c:	b4 fe       	sbrs	r11, 4
   1410e:	0d c0       	rjmp	.+26     	; 0x1412a <vfprintf+0x28e>
   14110:	fb 2d       	mov	r31, r11
   14112:	f4 60       	ori	r31, 0x04	; 4
   14114:	bf 2e       	mov	r11, r31
   14116:	09 c0       	rjmp	.+18     	; 0x1412a <vfprintf+0x28e>
   14118:	34 fe       	sbrs	r3, 4
   1411a:	0a c0       	rjmp	.+20     	; 0x14130 <vfprintf+0x294>
   1411c:	29 2f       	mov	r18, r25
   1411e:	26 60       	ori	r18, 0x06	; 6
   14120:	b2 2e       	mov	r11, r18
   14122:	06 c0       	rjmp	.+12     	; 0x14130 <vfprintf+0x294>
   14124:	28 e0       	ldi	r18, 0x08	; 8
   14126:	30 e0       	ldi	r19, 0x00	; 0
   14128:	05 c0       	rjmp	.+10     	; 0x14134 <vfprintf+0x298>
   1412a:	20 e1       	ldi	r18, 0x10	; 16
   1412c:	30 e0       	ldi	r19, 0x00	; 0
   1412e:	02 c0       	rjmp	.+4      	; 0x14134 <vfprintf+0x298>
   14130:	20 e1       	ldi	r18, 0x10	; 16
   14132:	32 e0       	ldi	r19, 0x02	; 2
   14134:	f8 01       	movw	r30, r16
   14136:	b7 fe       	sbrs	r11, 7
   14138:	07 c0       	rjmp	.+14     	; 0x14148 <vfprintf+0x2ac>
   1413a:	60 81       	ld	r22, Z
   1413c:	71 81       	ldd	r23, Z+1	; 0x01
   1413e:	82 81       	ldd	r24, Z+2	; 0x02
   14140:	93 81       	ldd	r25, Z+3	; 0x03
   14142:	0c 5f       	subi	r16, 0xFC	; 252
   14144:	1f 4f       	sbci	r17, 0xFF	; 255
   14146:	06 c0       	rjmp	.+12     	; 0x14154 <vfprintf+0x2b8>
   14148:	60 81       	ld	r22, Z
   1414a:	71 81       	ldd	r23, Z+1	; 0x01
   1414c:	80 e0       	ldi	r24, 0x00	; 0
   1414e:	90 e0       	ldi	r25, 0x00	; 0
   14150:	0e 5f       	subi	r16, 0xFE	; 254
   14152:	1f 4f       	sbci	r17, 0xFF	; 255
   14154:	a3 01       	movw	r20, r6
   14156:	f4 d0       	rcall	.+488    	; 0x14340 <__ultoa_invert>
   14158:	88 2e       	mov	r8, r24
   1415a:	86 18       	sub	r8, r6
   1415c:	fb 2d       	mov	r31, r11
   1415e:	ff 77       	andi	r31, 0x7F	; 127
   14160:	3f 2e       	mov	r3, r31
   14162:	36 fe       	sbrs	r3, 6
   14164:	0d c0       	rjmp	.+26     	; 0x14180 <vfprintf+0x2e4>
   14166:	23 2d       	mov	r18, r3
   14168:	2e 7f       	andi	r18, 0xFE	; 254
   1416a:	a2 2e       	mov	r10, r18
   1416c:	89 14       	cp	r8, r9
   1416e:	58 f4       	brcc	.+22     	; 0x14186 <vfprintf+0x2ea>
   14170:	34 fe       	sbrs	r3, 4
   14172:	0b c0       	rjmp	.+22     	; 0x1418a <vfprintf+0x2ee>
   14174:	32 fc       	sbrc	r3, 2
   14176:	09 c0       	rjmp	.+18     	; 0x1418a <vfprintf+0x2ee>
   14178:	83 2d       	mov	r24, r3
   1417a:	8e 7e       	andi	r24, 0xEE	; 238
   1417c:	a8 2e       	mov	r10, r24
   1417e:	05 c0       	rjmp	.+10     	; 0x1418a <vfprintf+0x2ee>
   14180:	b8 2c       	mov	r11, r8
   14182:	a3 2c       	mov	r10, r3
   14184:	03 c0       	rjmp	.+6      	; 0x1418c <vfprintf+0x2f0>
   14186:	b8 2c       	mov	r11, r8
   14188:	01 c0       	rjmp	.+2      	; 0x1418c <vfprintf+0x2f0>
   1418a:	b9 2c       	mov	r11, r9
   1418c:	a4 fe       	sbrs	r10, 4
   1418e:	0f c0       	rjmp	.+30     	; 0x141ae <vfprintf+0x312>
   14190:	fe 01       	movw	r30, r28
   14192:	e8 0d       	add	r30, r8
   14194:	f1 1d       	adc	r31, r1
   14196:	80 81       	ld	r24, Z
   14198:	80 33       	cpi	r24, 0x30	; 48
   1419a:	21 f4       	brne	.+8      	; 0x141a4 <vfprintf+0x308>
   1419c:	9a 2d       	mov	r25, r10
   1419e:	99 7e       	andi	r25, 0xE9	; 233
   141a0:	a9 2e       	mov	r10, r25
   141a2:	09 c0       	rjmp	.+18     	; 0x141b6 <vfprintf+0x31a>
   141a4:	a2 fe       	sbrs	r10, 2
   141a6:	06 c0       	rjmp	.+12     	; 0x141b4 <vfprintf+0x318>
   141a8:	b3 94       	inc	r11
   141aa:	b3 94       	inc	r11
   141ac:	04 c0       	rjmp	.+8      	; 0x141b6 <vfprintf+0x31a>
   141ae:	8a 2d       	mov	r24, r10
   141b0:	86 78       	andi	r24, 0x86	; 134
   141b2:	09 f0       	breq	.+2      	; 0x141b6 <vfprintf+0x31a>
   141b4:	b3 94       	inc	r11
   141b6:	a3 fc       	sbrc	r10, 3
   141b8:	10 c0       	rjmp	.+32     	; 0x141da <vfprintf+0x33e>
   141ba:	a0 fe       	sbrs	r10, 0
   141bc:	06 c0       	rjmp	.+12     	; 0x141ca <vfprintf+0x32e>
   141be:	b2 14       	cp	r11, r2
   141c0:	80 f4       	brcc	.+32     	; 0x141e2 <vfprintf+0x346>
   141c2:	28 0c       	add	r2, r8
   141c4:	92 2c       	mov	r9, r2
   141c6:	9b 18       	sub	r9, r11
   141c8:	0d c0       	rjmp	.+26     	; 0x141e4 <vfprintf+0x348>
   141ca:	b2 14       	cp	r11, r2
   141cc:	58 f4       	brcc	.+22     	; 0x141e4 <vfprintf+0x348>
   141ce:	b6 01       	movw	r22, r12
   141d0:	80 e2       	ldi	r24, 0x20	; 32
   141d2:	90 e0       	ldi	r25, 0x00	; 0
   141d4:	79 d0       	rcall	.+242    	; 0x142c8 <fputc>
   141d6:	b3 94       	inc	r11
   141d8:	f8 cf       	rjmp	.-16     	; 0x141ca <vfprintf+0x32e>
   141da:	b2 14       	cp	r11, r2
   141dc:	18 f4       	brcc	.+6      	; 0x141e4 <vfprintf+0x348>
   141de:	2b 18       	sub	r2, r11
   141e0:	02 c0       	rjmp	.+4      	; 0x141e6 <vfprintf+0x34a>
   141e2:	98 2c       	mov	r9, r8
   141e4:	21 2c       	mov	r2, r1
   141e6:	a4 fe       	sbrs	r10, 4
   141e8:	0f c0       	rjmp	.+30     	; 0x14208 <vfprintf+0x36c>
   141ea:	b6 01       	movw	r22, r12
   141ec:	80 e3       	ldi	r24, 0x30	; 48
   141ee:	90 e0       	ldi	r25, 0x00	; 0
   141f0:	6b d0       	rcall	.+214    	; 0x142c8 <fputc>
   141f2:	a2 fe       	sbrs	r10, 2
   141f4:	16 c0       	rjmp	.+44     	; 0x14222 <vfprintf+0x386>
   141f6:	a1 fc       	sbrc	r10, 1
   141f8:	03 c0       	rjmp	.+6      	; 0x14200 <vfprintf+0x364>
   141fa:	88 e7       	ldi	r24, 0x78	; 120
   141fc:	90 e0       	ldi	r25, 0x00	; 0
   141fe:	02 c0       	rjmp	.+4      	; 0x14204 <vfprintf+0x368>
   14200:	88 e5       	ldi	r24, 0x58	; 88
   14202:	90 e0       	ldi	r25, 0x00	; 0
   14204:	b6 01       	movw	r22, r12
   14206:	0c c0       	rjmp	.+24     	; 0x14220 <vfprintf+0x384>
   14208:	8a 2d       	mov	r24, r10
   1420a:	86 78       	andi	r24, 0x86	; 134
   1420c:	51 f0       	breq	.+20     	; 0x14222 <vfprintf+0x386>
   1420e:	a1 fe       	sbrs	r10, 1
   14210:	02 c0       	rjmp	.+4      	; 0x14216 <vfprintf+0x37a>
   14212:	8b e2       	ldi	r24, 0x2B	; 43
   14214:	01 c0       	rjmp	.+2      	; 0x14218 <vfprintf+0x37c>
   14216:	80 e2       	ldi	r24, 0x20	; 32
   14218:	a7 fc       	sbrc	r10, 7
   1421a:	8d e2       	ldi	r24, 0x2D	; 45
   1421c:	b6 01       	movw	r22, r12
   1421e:	90 e0       	ldi	r25, 0x00	; 0
   14220:	53 d0       	rcall	.+166    	; 0x142c8 <fputc>
   14222:	89 14       	cp	r8, r9
   14224:	30 f4       	brcc	.+12     	; 0x14232 <vfprintf+0x396>
   14226:	b6 01       	movw	r22, r12
   14228:	80 e3       	ldi	r24, 0x30	; 48
   1422a:	90 e0       	ldi	r25, 0x00	; 0
   1422c:	4d d0       	rcall	.+154    	; 0x142c8 <fputc>
   1422e:	9a 94       	dec	r9
   14230:	f8 cf       	rjmp	.-16     	; 0x14222 <vfprintf+0x386>
   14232:	8a 94       	dec	r8
   14234:	f3 01       	movw	r30, r6
   14236:	e8 0d       	add	r30, r8
   14238:	f1 1d       	adc	r31, r1
   1423a:	80 81       	ld	r24, Z
   1423c:	b6 01       	movw	r22, r12
   1423e:	90 e0       	ldi	r25, 0x00	; 0
   14240:	43 d0       	rcall	.+134    	; 0x142c8 <fputc>
   14242:	81 10       	cpse	r8, r1
   14244:	f6 cf       	rjmp	.-20     	; 0x14232 <vfprintf+0x396>
   14246:	22 20       	and	r2, r2
   14248:	09 f4       	brne	.+2      	; 0x1424c <vfprintf+0x3b0>
   1424a:	4e ce       	rjmp	.-868    	; 0x13ee8 <vfprintf+0x4c>
   1424c:	b6 01       	movw	r22, r12
   1424e:	80 e2       	ldi	r24, 0x20	; 32
   14250:	90 e0       	ldi	r25, 0x00	; 0
   14252:	3a d0       	rcall	.+116    	; 0x142c8 <fputc>
   14254:	2a 94       	dec	r2
   14256:	f7 cf       	rjmp	.-18     	; 0x14246 <vfprintf+0x3aa>
   14258:	f6 01       	movw	r30, r12
   1425a:	86 81       	ldd	r24, Z+6	; 0x06
   1425c:	97 81       	ldd	r25, Z+7	; 0x07
   1425e:	02 c0       	rjmp	.+4      	; 0x14264 <vfprintf+0x3c8>
   14260:	8f ef       	ldi	r24, 0xFF	; 255
   14262:	9f ef       	ldi	r25, 0xFF	; 255
   14264:	2b 96       	adiw	r28, 0x0b	; 11
   14266:	0f b6       	in	r0, 0x3f	; 63
   14268:	f8 94       	cli
   1426a:	de bf       	out	0x3e, r29	; 62
   1426c:	0f be       	out	0x3f, r0	; 63
   1426e:	cd bf       	out	0x3d, r28	; 61
   14270:	df 91       	pop	r29
   14272:	cf 91       	pop	r28
   14274:	1f 91       	pop	r17
   14276:	0f 91       	pop	r16
   14278:	ff 90       	pop	r15
   1427a:	ef 90       	pop	r14
   1427c:	df 90       	pop	r13
   1427e:	cf 90       	pop	r12
   14280:	bf 90       	pop	r11
   14282:	af 90       	pop	r10
   14284:	9f 90       	pop	r9
   14286:	8f 90       	pop	r8
   14288:	7f 90       	pop	r7
   1428a:	6f 90       	pop	r6
   1428c:	5f 90       	pop	r5
   1428e:	4f 90       	pop	r4
   14290:	3f 90       	pop	r3
   14292:	2f 90       	pop	r2
   14294:	08 95       	ret

00014296 <__ctype_isfalse>:
   14296:	99 27       	eor	r25, r25
   14298:	88 27       	eor	r24, r24

0001429a <__ctype_istrue>:
   1429a:	08 95       	ret

0001429c <strnlen_P>:
   1429c:	fc 01       	movw	r30, r24
   1429e:	05 90       	lpm	r0, Z+
   142a0:	61 50       	subi	r22, 0x01	; 1
   142a2:	70 40       	sbci	r23, 0x00	; 0
   142a4:	01 10       	cpse	r0, r1
   142a6:	d8 f7       	brcc	.-10     	; 0x1429e <strnlen_P+0x2>
   142a8:	80 95       	com	r24
   142aa:	90 95       	com	r25
   142ac:	8e 0f       	add	r24, r30
   142ae:	9f 1f       	adc	r25, r31
   142b0:	08 95       	ret

000142b2 <strnlen>:
   142b2:	fc 01       	movw	r30, r24
   142b4:	61 50       	subi	r22, 0x01	; 1
   142b6:	70 40       	sbci	r23, 0x00	; 0
   142b8:	01 90       	ld	r0, Z+
   142ba:	01 10       	cpse	r0, r1
   142bc:	d8 f7       	brcc	.-10     	; 0x142b4 <strnlen+0x2>
   142be:	80 95       	com	r24
   142c0:	90 95       	com	r25
   142c2:	8e 0f       	add	r24, r30
   142c4:	9f 1f       	adc	r25, r31
   142c6:	08 95       	ret

000142c8 <fputc>:
   142c8:	0f 93       	push	r16
   142ca:	1f 93       	push	r17
   142cc:	cf 93       	push	r28
   142ce:	df 93       	push	r29
   142d0:	fb 01       	movw	r30, r22
   142d2:	23 81       	ldd	r18, Z+3	; 0x03
   142d4:	21 fd       	sbrc	r18, 1
   142d6:	03 c0       	rjmp	.+6      	; 0x142de <fputc+0x16>
   142d8:	8f ef       	ldi	r24, 0xFF	; 255
   142da:	9f ef       	ldi	r25, 0xFF	; 255
   142dc:	2c c0       	rjmp	.+88     	; 0x14336 <fputc+0x6e>
   142de:	22 ff       	sbrs	r18, 2
   142e0:	16 c0       	rjmp	.+44     	; 0x1430e <fputc+0x46>
   142e2:	46 81       	ldd	r20, Z+6	; 0x06
   142e4:	57 81       	ldd	r21, Z+7	; 0x07
   142e6:	24 81       	ldd	r18, Z+4	; 0x04
   142e8:	35 81       	ldd	r19, Z+5	; 0x05
   142ea:	42 17       	cp	r20, r18
   142ec:	53 07       	cpc	r21, r19
   142ee:	44 f4       	brge	.+16     	; 0x14300 <fputc+0x38>
   142f0:	a0 81       	ld	r26, Z
   142f2:	b1 81       	ldd	r27, Z+1	; 0x01
   142f4:	9d 01       	movw	r18, r26
   142f6:	2f 5f       	subi	r18, 0xFF	; 255
   142f8:	3f 4f       	sbci	r19, 0xFF	; 255
   142fa:	31 83       	std	Z+1, r19	; 0x01
   142fc:	20 83       	st	Z, r18
   142fe:	8c 93       	st	X, r24
   14300:	26 81       	ldd	r18, Z+6	; 0x06
   14302:	37 81       	ldd	r19, Z+7	; 0x07
   14304:	2f 5f       	subi	r18, 0xFF	; 255
   14306:	3f 4f       	sbci	r19, 0xFF	; 255
   14308:	37 83       	std	Z+7, r19	; 0x07
   1430a:	26 83       	std	Z+6, r18	; 0x06
   1430c:	14 c0       	rjmp	.+40     	; 0x14336 <fputc+0x6e>
   1430e:	8b 01       	movw	r16, r22
   14310:	ec 01       	movw	r28, r24
   14312:	fb 01       	movw	r30, r22
   14314:	00 84       	ldd	r0, Z+8	; 0x08
   14316:	f1 85       	ldd	r31, Z+9	; 0x09
   14318:	e0 2d       	mov	r30, r0
   1431a:	19 95       	eicall
   1431c:	89 2b       	or	r24, r25
   1431e:	e1 f6       	brne	.-72     	; 0x142d8 <fputc+0x10>
   14320:	d8 01       	movw	r26, r16
   14322:	16 96       	adiw	r26, 0x06	; 6
   14324:	8d 91       	ld	r24, X+
   14326:	9c 91       	ld	r25, X
   14328:	17 97       	sbiw	r26, 0x07	; 7
   1432a:	01 96       	adiw	r24, 0x01	; 1
   1432c:	17 96       	adiw	r26, 0x07	; 7
   1432e:	9c 93       	st	X, r25
   14330:	8e 93       	st	-X, r24
   14332:	16 97       	sbiw	r26, 0x06	; 6
   14334:	ce 01       	movw	r24, r28
   14336:	df 91       	pop	r29
   14338:	cf 91       	pop	r28
   1433a:	1f 91       	pop	r17
   1433c:	0f 91       	pop	r16
   1433e:	08 95       	ret

00014340 <__ultoa_invert>:
   14340:	fa 01       	movw	r30, r20
   14342:	aa 27       	eor	r26, r26
   14344:	28 30       	cpi	r18, 0x08	; 8
   14346:	51 f1       	breq	.+84     	; 0x1439c <__ultoa_invert+0x5c>
   14348:	20 31       	cpi	r18, 0x10	; 16
   1434a:	81 f1       	breq	.+96     	; 0x143ac <__ultoa_invert+0x6c>
   1434c:	e8 94       	clt
   1434e:	6f 93       	push	r22
   14350:	6e 7f       	andi	r22, 0xFE	; 254
   14352:	6e 5f       	subi	r22, 0xFE	; 254
   14354:	7f 4f       	sbci	r23, 0xFF	; 255
   14356:	8f 4f       	sbci	r24, 0xFF	; 255
   14358:	9f 4f       	sbci	r25, 0xFF	; 255
   1435a:	af 4f       	sbci	r26, 0xFF	; 255
   1435c:	b1 e0       	ldi	r27, 0x01	; 1
   1435e:	3e d0       	rcall	.+124    	; 0x143dc <__ultoa_invert+0x9c>
   14360:	b4 e0       	ldi	r27, 0x04	; 4
   14362:	3c d0       	rcall	.+120    	; 0x143dc <__ultoa_invert+0x9c>
   14364:	67 0f       	add	r22, r23
   14366:	78 1f       	adc	r23, r24
   14368:	89 1f       	adc	r24, r25
   1436a:	9a 1f       	adc	r25, r26
   1436c:	a1 1d       	adc	r26, r1
   1436e:	68 0f       	add	r22, r24
   14370:	79 1f       	adc	r23, r25
   14372:	8a 1f       	adc	r24, r26
   14374:	91 1d       	adc	r25, r1
   14376:	a1 1d       	adc	r26, r1
   14378:	6a 0f       	add	r22, r26
   1437a:	71 1d       	adc	r23, r1
   1437c:	81 1d       	adc	r24, r1
   1437e:	91 1d       	adc	r25, r1
   14380:	a1 1d       	adc	r26, r1
   14382:	20 d0       	rcall	.+64     	; 0x143c4 <__ultoa_invert+0x84>
   14384:	09 f4       	brne	.+2      	; 0x14388 <__ultoa_invert+0x48>
   14386:	68 94       	set
   14388:	3f 91       	pop	r19
   1438a:	2a e0       	ldi	r18, 0x0A	; 10
   1438c:	26 9f       	mul	r18, r22
   1438e:	11 24       	eor	r1, r1
   14390:	30 19       	sub	r19, r0
   14392:	30 5d       	subi	r19, 0xD0	; 208
   14394:	31 93       	st	Z+, r19
   14396:	de f6       	brtc	.-74     	; 0x1434e <__ultoa_invert+0xe>
   14398:	cf 01       	movw	r24, r30
   1439a:	08 95       	ret
   1439c:	46 2f       	mov	r20, r22
   1439e:	47 70       	andi	r20, 0x07	; 7
   143a0:	40 5d       	subi	r20, 0xD0	; 208
   143a2:	41 93       	st	Z+, r20
   143a4:	b3 e0       	ldi	r27, 0x03	; 3
   143a6:	0f d0       	rcall	.+30     	; 0x143c6 <__ultoa_invert+0x86>
   143a8:	c9 f7       	brne	.-14     	; 0x1439c <__ultoa_invert+0x5c>
   143aa:	f6 cf       	rjmp	.-20     	; 0x14398 <__ultoa_invert+0x58>
   143ac:	46 2f       	mov	r20, r22
   143ae:	4f 70       	andi	r20, 0x0F	; 15
   143b0:	40 5d       	subi	r20, 0xD0	; 208
   143b2:	4a 33       	cpi	r20, 0x3A	; 58
   143b4:	18 f0       	brcs	.+6      	; 0x143bc <__ultoa_invert+0x7c>
   143b6:	49 5d       	subi	r20, 0xD9	; 217
   143b8:	31 fd       	sbrc	r19, 1
   143ba:	40 52       	subi	r20, 0x20	; 32
   143bc:	41 93       	st	Z+, r20
   143be:	02 d0       	rcall	.+4      	; 0x143c4 <__ultoa_invert+0x84>
   143c0:	a9 f7       	brne	.-22     	; 0x143ac <__ultoa_invert+0x6c>
   143c2:	ea cf       	rjmp	.-44     	; 0x14398 <__ultoa_invert+0x58>
   143c4:	b4 e0       	ldi	r27, 0x04	; 4
   143c6:	a6 95       	lsr	r26
   143c8:	97 95       	ror	r25
   143ca:	87 95       	ror	r24
   143cc:	77 95       	ror	r23
   143ce:	67 95       	ror	r22
   143d0:	ba 95       	dec	r27
   143d2:	c9 f7       	brne	.-14     	; 0x143c6 <__ultoa_invert+0x86>
   143d4:	00 97       	sbiw	r24, 0x00	; 0
   143d6:	61 05       	cpc	r22, r1
   143d8:	71 05       	cpc	r23, r1
   143da:	08 95       	ret
   143dc:	9b 01       	movw	r18, r22
   143de:	ac 01       	movw	r20, r24
   143e0:	0a 2e       	mov	r0, r26
   143e2:	06 94       	lsr	r0
   143e4:	57 95       	ror	r21
   143e6:	47 95       	ror	r20
   143e8:	37 95       	ror	r19
   143ea:	27 95       	ror	r18
   143ec:	ba 95       	dec	r27
   143ee:	c9 f7       	brne	.-14     	; 0x143e2 <__ultoa_invert+0xa2>
   143f0:	62 0f       	add	r22, r18
   143f2:	73 1f       	adc	r23, r19
   143f4:	84 1f       	adc	r24, r20
   143f6:	95 1f       	adc	r25, r21
   143f8:	a0 1d       	adc	r26, r0
   143fa:	08 95       	ret

000143fc <_exit>:
   143fc:	f8 94       	cli

000143fe <__stop_program>:
   143fe:	ff cf       	rjmp	.-2      	; 0x143fe <__stop_program>
